
game:     file format elf32-i386


Disassembly of section .text:

080480a0 <sulp>:
 80480a0:	55                   	push   %ebp
 80480a1:	89 e5                	mov    %esp,%ebp
 80480a3:	53                   	push   %ebx
 80480a4:	89 cb                	mov    %ecx,%ebx
 80480a6:	83 ec 14             	sub    $0x14,%esp
 80480a9:	89 45 f0             	mov    %eax,-0x10(%ebp)
 80480ac:	89 55 f4             	mov    %edx,-0xc(%ebp)
 80480af:	dd 45 f0             	fldl   -0x10(%ebp)
 80480b2:	dd 1c 24             	fstpl  (%esp)
 80480b5:	e8 76 9b 02 00       	call   8071c30 <__ulp>
 80480ba:	85 db                	test   %ebx,%ebx
 80480bc:	74 2c                	je     80480ea <sulp+0x4a>
 80480be:	8b 55 f4             	mov    -0xc(%ebp),%edx
 80480c1:	b8 6b 00 00 00       	mov    $0x6b,%eax
 80480c6:	81 e2 00 00 f0 7f    	and    $0x7ff00000,%edx
 80480cc:	c1 ea 14             	shr    $0x14,%edx
 80480cf:	29 d0                	sub    %edx,%eax
 80480d1:	85 c0                	test   %eax,%eax
 80480d3:	7e 15                	jle    80480ea <sulp+0x4a>
 80480d5:	c1 e0 14             	shl    $0x14,%eax
 80480d8:	05 00 00 f0 3f       	add    $0x3ff00000,%eax
 80480dd:	89 45 f4             	mov    %eax,-0xc(%ebp)
 80480e0:	c7 45 f0 00 00 00 00 	movl   $0x0,-0x10(%ebp)
 80480e7:	dc 4d f0             	fmull  -0x10(%ebp)
 80480ea:	83 c4 14             	add    $0x14,%esp
 80480ed:	5b                   	pop    %ebx
 80480ee:	5d                   	pop    %ebp
 80480ef:	c3                   	ret    

080480f0 <add_irq_handle>:
 80480f0:	55                   	push   %ebp
 80480f1:	89 e5                	mov    %esp,%ebp
 80480f3:	83 ec 0c             	sub    $0xc,%esp
 80480f6:	ff 75 0c             	pushl  0xc(%ebp)
 80480f9:	ff 75 08             	pushl  0x8(%ebp)
 80480fc:	6a 00                	push   $0x0
 80480fe:	e8 8d 00 00 00       	call   8048190 <syscall>
 8048103:	83 c4 10             	add    $0x10,%esp
 8048106:	c9                   	leave  
 8048107:	c3                   	ret    
 8048108:	90                   	nop
 8048109:	8d b4 26 00 00 00 00 	lea    0x0(%esi,%eiz,1),%esi

08048110 <game_init>:
 8048110:	55                   	push   %ebp
 8048111:	89 e5                	mov    %esp,%ebp
 8048113:	83 ec 08             	sub    $0x8,%esp
 8048116:	e8 95 01 00 00       	call   80482b0 <init_timer>
 804811b:	83 ec 04             	sub    $0x4,%esp
 804811e:	68 00 62 05 08       	push   $0x8056200
 8048123:	6a 00                	push   $0x0
 8048125:	6a 00                	push   $0x0
 8048127:	e8 64 00 00 00       	call   8048190 <syscall>
 804812c:	83 c4 0c             	add    $0xc,%esp
 804812f:	68 d0 62 05 08       	push   $0x80562d0
 8048134:	6a 01                	push   $0x1
 8048136:	6a 00                	push   $0x0
 8048138:	e8 53 00 00 00       	call   8048190 <syscall>
 804813d:	68 cc 82 07 08       	push   $0x80782cc
 8048142:	6a 12                	push   $0x12
 8048144:	68 40 82 07 08       	push   $0x8078240
 8048149:	68 58 82 07 08       	push   $0x8078258
 804814e:	e8 bd 10 02 00       	call   8069210 <printf>
 8048153:	83 c4 20             	add    $0x20,%esp
 8048156:	e8 55 0a 01 00       	call   8058bb0 <main_loop>
 804815b:	fa                   	cli    
 804815c:	83 ec 0c             	sub    $0xc,%esp
 804815f:	68 fd 82 07 08       	push   $0x80782fd
 8048164:	68 cc 82 07 08       	push   $0x80782cc
 8048169:	6a 16                	push   $0x16
 804816b:	68 40 82 07 08       	push   $0x8078240
 8048170:	68 84 82 07 08       	push   $0x8078284
 8048175:	e8 96 10 02 00       	call   8069210 <printf>
 804817a:	b8 01 00 00 00       	mov    $0x1,%eax
 804817f:	d6                   	(bad)  
 8048180:	83 c4 20             	add    $0x20,%esp
 8048183:	c9                   	leave  
 8048184:	c3                   	ret    
 8048185:	66 90                	xchg   %ax,%ax
 8048187:	66 90                	xchg   %ax,%ax
 8048189:	66 90                	xchg   %ax,%ax
 804818b:	66 90                	xchg   %ax,%ax
 804818d:	66 90                	xchg   %ax,%ax
 804818f:	90                   	nop

08048190 <syscall>:
 8048190:	55                   	push   %ebp
 8048191:	89 e5                	mov    %esp,%ebp
 8048193:	53                   	push   %ebx
 8048194:	8b 55 14             	mov    0x14(%ebp),%edx
 8048197:	8b 4d 10             	mov    0x10(%ebp),%ecx
 804819a:	8b 45 08             	mov    0x8(%ebp),%eax
 804819d:	8b 5d 0c             	mov    0xc(%ebp),%ebx
 80481a0:	cd 80                	int    $0x80
 80481a2:	5b                   	pop    %ebx
 80481a3:	5d                   	pop    %ebp
 80481a4:	c3                   	ret    
 80481a5:	8d 74 26 00          	lea    0x0(%esi,%eiz,1),%esi
 80481a9:	8d bc 27 00 00 00 00 	lea    0x0(%edi,%eiz,1),%edi

080481b0 <_exit>:
 80481b0:	55                   	push   %ebp
 80481b1:	89 e5                	mov    %esp,%ebp
 80481b3:	8b 45 08             	mov    0x8(%ebp),%eax
 80481b6:	85 c0                	test   %eax,%eax
 80481b8:	74 06                	je     80481c0 <_exit+0x10>
 80481ba:	b8 01 00 00 00       	mov    $0x1,%eax
 80481bf:	d6                   	(bad)  
 80481c0:	5d                   	pop    %ebp
 80481c1:	c3                   	ret    
 80481c2:	8d b4 26 00 00 00 00 	lea    0x0(%esi,%eiz,1),%esi
 80481c9:	8d bc 27 00 00 00 00 	lea    0x0(%edi,%eiz,1),%edi

080481d0 <open>:
 80481d0:	55                   	push   %ebp
 80481d1:	b8 01 00 00 00       	mov    $0x1,%eax
 80481d6:	89 e5                	mov    %esp,%ebp
 80481d8:	d6                   	(bad)  
 80481d9:	30 c0                	xor    %al,%al
 80481db:	5d                   	pop    %ebp
 80481dc:	c3                   	ret    
 80481dd:	8d 76 00             	lea    0x0(%esi),%esi

080481e0 <read>:
 80481e0:	55                   	push   %ebp
 80481e1:	b8 01 00 00 00       	mov    $0x1,%eax
 80481e6:	89 e5                	mov    %esp,%ebp
 80481e8:	d6                   	(bad)  
 80481e9:	30 c0                	xor    %al,%al
 80481eb:	5d                   	pop    %ebp
 80481ec:	c3                   	ret    
 80481ed:	8d 76 00             	lea    0x0(%esi),%esi

080481f0 <write>:
 80481f0:	55                   	push   %ebp
 80481f1:	89 e5                	mov    %esp,%ebp
 80481f3:	ff 75 10             	pushl  0x10(%ebp)
 80481f6:	ff 75 0c             	pushl  0xc(%ebp)
 80481f9:	ff 75 08             	pushl  0x8(%ebp)
 80481fc:	6a 04                	push   $0x4
 80481fe:	e8 8d ff ff ff       	call   8048190 <syscall>
 8048203:	c9                   	leave  
 8048204:	c3                   	ret    
 8048205:	8d 74 26 00          	lea    0x0(%esi,%eiz,1),%esi
 8048209:	8d bc 27 00 00 00 00 	lea    0x0(%edi,%eiz,1),%edi

08048210 <lseek>:
 8048210:	55                   	push   %ebp
 8048211:	b8 01 00 00 00       	mov    $0x1,%eax
 8048216:	89 e5                	mov    %esp,%ebp
 8048218:	d6                   	(bad)  
 8048219:	30 c0                	xor    %al,%al
 804821b:	5d                   	pop    %ebp
 804821c:	c3                   	ret    
 804821d:	8d 76 00             	lea    0x0(%esi),%esi

08048220 <sbrk>:
 8048220:	55                   	push   %ebp
 8048221:	89 e5                	mov    %esp,%ebp
 8048223:	56                   	push   %esi
 8048224:	53                   	push   %ebx
 8048225:	8b 1d c0 15 08 08    	mov    0x80815c0,%ebx
 804822b:	85 db                	test   %ebx,%ebx
 804822d:	74 31                	je     8048260 <sbrk+0x40>
 804822f:	8b 75 08             	mov    0x8(%ebp),%esi
 8048232:	01 de                	add    %ebx,%esi
 8048234:	56                   	push   %esi
 8048235:	6a 2d                	push   $0x2d
 8048237:	e8 54 ff ff ff       	call   8048190 <syscall>
 804823c:	85 c0                	test   %eax,%eax
 804823e:	5a                   	pop    %edx
 804823f:	59                   	pop    %ecx
 8048240:	74 06                	je     8048248 <sbrk+0x28>
 8048242:	b8 01 00 00 00       	mov    $0x1,%eax
 8048247:	d6                   	(bad)  
 8048248:	89 35 c0 15 08 08    	mov    %esi,0x80815c0
 804824e:	8d 65 f8             	lea    -0x8(%ebp),%esp
 8048251:	89 d8                	mov    %ebx,%eax
 8048253:	5b                   	pop    %ebx
 8048254:	5e                   	pop    %esi
 8048255:	5d                   	pop    %ebp
 8048256:	c3                   	ret    
 8048257:	89 f6                	mov    %esi,%esi
 8048259:	8d bc 27 00 00 00 00 	lea    0x0(%edi,%eiz,1),%edi
 8048260:	bb 68 8b 09 08       	mov    $0x8098b68,%ebx
 8048265:	eb c8                	jmp    804822f <sbrk+0xf>
 8048267:	89 f6                	mov    %esi,%esi
 8048269:	8d bc 27 00 00 00 00 	lea    0x0(%edi,%eiz,1),%edi

08048270 <close>:
 8048270:	55                   	push   %ebp
 8048271:	b8 01 00 00 00       	mov    $0x1,%eax
 8048276:	89 e5                	mov    %esp,%ebp
 8048278:	d6                   	(bad)  
 8048279:	30 c0                	xor    %al,%al
 804827b:	5d                   	pop    %ebp
 804827c:	c3                   	ret    
 804827d:	8d 76 00             	lea    0x0(%esi),%esi

08048280 <fstat>:
 8048280:	55                   	push   %ebp
 8048281:	89 e5                	mov    %esp,%ebp
 8048283:	8b 45 0c             	mov    0xc(%ebp),%eax
 8048286:	c7 40 04 00 20 00 00 	movl   $0x2000,0x4(%eax)
 804828d:	31 c0                	xor    %eax,%eax
 804828f:	5d                   	pop    %ebp
 8048290:	c3                   	ret    
 8048291:	eb 0d                	jmp    80482a0 <isatty>
 8048293:	90                   	nop
 8048294:	90                   	nop
 8048295:	90                   	nop
 8048296:	90                   	nop
 8048297:	90                   	nop
 8048298:	90                   	nop
 8048299:	90                   	nop
 804829a:	90                   	nop
 804829b:	90                   	nop
 804829c:	90                   	nop
 804829d:	90                   	nop
 804829e:	90                   	nop
 804829f:	90                   	nop

080482a0 <isatty>:
 80482a0:	55                   	push   %ebp
 80482a1:	31 c0                	xor    %eax,%eax
 80482a3:	89 e5                	mov    %esp,%ebp
 80482a5:	5d                   	pop    %ebp
 80482a6:	c3                   	ret    
 80482a7:	66 90                	xchg   %ax,%ax
 80482a9:	66 90                	xchg   %ax,%ax
 80482ab:	66 90                	xchg   %ax,%ax
 80482ad:	66 90                	xchg   %ax,%ax
 80482af:	90                   	nop

080482b0 <init_timer>:
 80482b0:	55                   	push   %ebp
 80482b1:	ba 43 00 00 00       	mov    $0x43,%edx
 80482b6:	b8 34 00 00 00       	mov    $0x34,%eax
 80482bb:	89 e5                	mov    %esp,%ebp
 80482bd:	ee                   	out    %al,(%dx)
 80482be:	b8 9b ff ff ff       	mov    $0xffffff9b,%eax
 80482c3:	b2 40                	mov    $0x40,%dl
 80482c5:	ee                   	out    %al,(%dx)
 80482c6:	b8 2e 00 00 00       	mov    $0x2e,%eax
 80482cb:	ee                   	out    %al,(%dx)
 80482cc:	5d                   	pop    %ebp
 80482cd:	c3                   	ret    
 80482ce:	66 90                	xchg   %ax,%ax

080482d0 <write_palette>:
 80482d0:	55                   	push   %ebp
 80482d1:	ba c8 03 00 00       	mov    $0x3c8,%edx
 80482d6:	31 c0                	xor    %eax,%eax
 80482d8:	89 e5                	mov    %esp,%ebp
 80482da:	53                   	push   %ebx
 80482db:	8b 5d 0c             	mov    0xc(%ebp),%ebx
 80482de:	ee                   	out    %al,(%dx)
 80482df:	85 db                	test   %ebx,%ebx
 80482e1:	7e 2b                	jle    804830e <write_palette+0x3e>
 80482e3:	8b 4d 08             	mov    0x8(%ebp),%ecx
 80482e6:	b2 c9                	mov    $0xc9,%dl
 80482e8:	8d 1c 99             	lea    (%ecx,%ebx,4),%ebx
 80482eb:	90                   	nop
 80482ec:	8d 74 26 00          	lea    0x0(%esi,%eiz,1),%esi
 80482f0:	0f b6 01             	movzbl (%ecx),%eax
 80482f3:	c0 e8 02             	shr    $0x2,%al
 80482f6:	ee                   	out    %al,(%dx)
 80482f7:	0f b6 41 01          	movzbl 0x1(%ecx),%eax
 80482fb:	c0 e8 02             	shr    $0x2,%al
 80482fe:	ee                   	out    %al,(%dx)
 80482ff:	0f b6 41 02          	movzbl 0x2(%ecx),%eax
 8048303:	c0 e8 02             	shr    $0x2,%al
 8048306:	ee                   	out    %al,(%dx)
 8048307:	83 c1 04             	add    $0x4,%ecx
 804830a:	39 d9                	cmp    %ebx,%ecx
 804830c:	75 e2                	jne    80482f0 <write_palette+0x20>
 804830e:	5b                   	pop    %ebx
 804830f:	5d                   	pop    %ebp
 8048310:	c3                   	ret    
 8048311:	eb 0d                	jmp    8048320 <read_palette>
 8048313:	90                   	nop
 8048314:	90                   	nop
 8048315:	90                   	nop
 8048316:	90                   	nop
 8048317:	90                   	nop
 8048318:	90                   	nop
 8048319:	90                   	nop
 804831a:	90                   	nop
 804831b:	90                   	nop
 804831c:	90                   	nop
 804831d:	90                   	nop
 804831e:	90                   	nop
 804831f:	90                   	nop

08048320 <read_palette>:
 8048320:	55                   	push   %ebp
 8048321:	ba c7 03 00 00       	mov    $0x3c7,%edx
 8048326:	31 c0                	xor    %eax,%eax
 8048328:	89 e5                	mov    %esp,%ebp
 804832a:	57                   	push   %edi
 804832b:	56                   	push   %esi
 804832c:	53                   	push   %ebx
 804832d:	83 ec 0c             	sub    $0xc,%esp
 8048330:	ee                   	out    %al,(%dx)
 8048331:	bb 00 01 00 00       	mov    $0x100,%ebx
 8048336:	be c9 03 00 00       	mov    $0x3c9,%esi
 804833b:	90                   	nop
 804833c:	8d 74 26 00          	lea    0x0(%esi,%eiz,1),%esi
 8048340:	89 f2                	mov    %esi,%edx
 8048342:	ec                   	in     (%dx),%al
 8048343:	0f b6 c8             	movzbl %al,%ecx
 8048346:	ec                   	in     (%dx),%al
 8048347:	89 c7                	mov    %eax,%edi
 8048349:	ec                   	in     (%dx),%al
 804834a:	0f b6 c0             	movzbl %al,%eax
 804834d:	50                   	push   %eax
 804834e:	89 f8                	mov    %edi,%eax
 8048350:	0f b6 f8             	movzbl %al,%edi
 8048353:	57                   	push   %edi
 8048354:	51                   	push   %ecx
 8048355:	68 d6 82 07 08       	push   $0x80782d6
 804835a:	e8 b1 0e 02 00       	call   8069210 <printf>
 804835f:	83 c4 10             	add    $0x10,%esp
 8048362:	83 eb 01             	sub    $0x1,%ebx
 8048365:	75 d9                	jne    8048340 <read_palette+0x20>
 8048367:	8d 65 f4             	lea    -0xc(%ebp),%esp
 804836a:	5b                   	pop    %ebx
 804836b:	5e                   	pop    %esi
 804836c:	5f                   	pop    %edi
 804836d:	5d                   	pop    %ebp
 804836e:	c3                   	ret    
 804836f:	90                   	nop

08048370 <prepare_buffer>:
 8048370:	55                   	push   %ebp
 8048371:	89 e5                	mov    %esp,%ebp
 8048373:	83 ec 0c             	sub    $0xc,%esp
 8048376:	68 00 fa 00 00       	push   $0xfa00
 804837b:	6a 00                	push   $0x0
 804837d:	ff 35 00 04 08 08    	pushl  0x8080400
 8048383:	e8 55 0d 02 00       	call   80690dd <memset>
 8048388:	83 c4 10             	add    $0x10,%esp
 804838b:	c9                   	leave  
 804838c:	c3                   	ret    
 804838d:	8d 76 00             	lea    0x0(%esi),%esi

08048390 <display_buffer>:
 8048390:	55                   	push   %ebp
 8048391:	b9 80 3e 00 00       	mov    $0x3e80,%ecx
 8048396:	89 e5                	mov    %esp,%ebp
 8048398:	57                   	push   %edi
 8048399:	bf 00 00 0a 00       	mov    $0xa0000,%edi
 804839e:	56                   	push   %esi
 804839f:	8b 35 00 04 08 08    	mov    0x8080400,%esi
 80483a5:	fc                   	cld    
 80483a6:	f3 a5                	rep movsl %ds:(%esi),%es:(%edi)
 80483a8:	5e                   	pop    %esi
 80483a9:	5f                   	pop    %edi
 80483aa:	5d                   	pop    %ebp
 80483ab:	c3                   	ret    
 80483ac:	8d 74 26 00          	lea    0x0(%esi,%eiz,1),%esi

080483b0 <draw_string>:
 80483b0:	55                   	push   %ebp
 80483b1:	89 e5                	mov    %esp,%ebp
 80483b3:	57                   	push   %edi
 80483b4:	56                   	push   %esi
 80483b5:	53                   	push   %ebx
 80483b6:	83 ec 1c             	sub    $0x1c,%esp
 80483b9:	8b 7d 10             	mov    0x10(%ebp),%edi
 80483bc:	8b 45 08             	mov    0x8(%ebp),%eax
 80483bf:	0f be 18             	movsbl (%eax),%ebx
 80483c2:	84 db                	test   %bl,%bl
 80483c4:	0f 84 9d 00 00 00    	je     8048467 <draw_string+0xb7>
 80483ca:	83 45 08 01          	addl   $0x1,0x8(%ebp)
 80483ce:	84 db                	test   %bl,%bl
 80483d0:	0f 88 d2 00 00 00    	js     80484a8 <draw_string+0xf8>
 80483d6:	8b 45 0c             	mov    0xc(%ebp),%eax
 80483d9:	8b 75 0c             	mov    0xc(%ebp),%esi
 80483dc:	8d 14 dd 00 00 08 08 	lea    0x8080000(,%ebx,8),%edx
 80483e3:	83 c0 08             	add    $0x8,%eax
 80483e6:	29 f2                	sub    %esi,%edx
 80483e8:	89 45 dc             	mov    %eax,-0x24(%ebp)
 80483eb:	90                   	nop
 80483ec:	8d 74 26 00          	lea    0x0(%esi,%eiz,1),%esi
 80483f0:	69 c6 40 01 00 00    	imul   $0x140,%esi,%eax
 80483f6:	31 db                	xor    %ebx,%ebx
 80483f8:	89 7d 10             	mov    %edi,0x10(%ebp)
 80483fb:	89 45 e0             	mov    %eax,-0x20(%ebp)
 80483fe:	eb 08                	jmp    8048408 <draw_string+0x58>
 8048400:	83 c3 01             	add    $0x1,%ebx
 8048403:	83 fb 08             	cmp    $0x8,%ebx
 8048406:	74 39                	je     8048441 <draw_string+0x91>
 8048408:	0f be 04 32          	movsbl (%edx,%esi,1),%eax
 804840c:	0f a3 d8             	bt     %ebx,%eax
 804840f:	73 ef                	jae    8048400 <draw_string+0x50>
 8048411:	8b 45 10             	mov    0x10(%ebp),%eax
 8048414:	01 d8                	add    %ebx,%eax
 8048416:	3d 3f 01 00 00       	cmp    $0x13f,%eax
 804841b:	77 53                	ja     8048470 <draw_string+0xc0>
 804841d:	81 fe c7 00 00 00    	cmp    $0xc7,%esi
 8048423:	77 4b                	ja     8048470 <draw_string+0xc0>
 8048425:	a1 00 04 08 08       	mov    0x8080400,%eax
 804842a:	0f b6 4d 14          	movzbl 0x14(%ebp),%ecx
 804842e:	8b 7d e0             	mov    -0x20(%ebp),%edi
 8048431:	01 d8                	add    %ebx,%eax
 8048433:	03 45 10             	add    0x10(%ebp),%eax
 8048436:	83 c3 01             	add    $0x1,%ebx
 8048439:	83 fb 08             	cmp    $0x8,%ebx
 804843c:	88 0c 38             	mov    %cl,(%eax,%edi,1)
 804843f:	75 c7                	jne    8048408 <draw_string+0x58>
 8048441:	83 c6 01             	add    $0x1,%esi
 8048444:	3b 75 dc             	cmp    -0x24(%ebp),%esi
 8048447:	8b 7d 10             	mov    0x10(%ebp),%edi
 804844a:	75 a4                	jne    80483f0 <draw_string+0x40>
 804844c:	81 ff 37 01 00 00    	cmp    $0x137,%edi
 8048452:	7e 4c                	jle    80484a0 <draw_string+0xf0>
 8048454:	8b 45 08             	mov    0x8(%ebp),%eax
 8048457:	31 ff                	xor    %edi,%edi
 8048459:	89 75 0c             	mov    %esi,0xc(%ebp)
 804845c:	0f be 18             	movsbl (%eax),%ebx
 804845f:	84 db                	test   %bl,%bl
 8048461:	0f 85 63 ff ff ff    	jne    80483ca <draw_string+0x1a>
 8048467:	8d 65 f4             	lea    -0xc(%ebp),%esp
 804846a:	5b                   	pop    %ebx
 804846b:	5e                   	pop    %esi
 804846c:	5f                   	pop    %edi
 804846d:	5d                   	pop    %ebp
 804846e:	c3                   	ret    
 804846f:	90                   	nop
 8048470:	89 55 e4             	mov    %edx,-0x1c(%ebp)
 8048473:	fa                   	cli    
 8048474:	83 ec 0c             	sub    $0xc,%esp
 8048477:	68 3c 83 07 08       	push   $0x807833c
 804847c:	68 70 83 07 08       	push   $0x8078370
 8048481:	6a 0f                	push   $0xf
 8048483:	68 ff 82 07 08       	push   $0x80782ff
 8048488:	68 84 82 07 08       	push   $0x8078284
 804848d:	e8 7e 0d 02 00       	call   8069210 <printf>
 8048492:	b8 01 00 00 00       	mov    $0x1,%eax
 8048497:	d6                   	(bad)  
 8048498:	83 c4 20             	add    $0x20,%esp
 804849b:	8b 55 e4             	mov    -0x1c(%ebp),%edx
 804849e:	eb 85                	jmp    8048425 <draw_string+0x75>
 80484a0:	83 c7 08             	add    $0x8,%edi
 80484a3:	e9 14 ff ff ff       	jmp    80483bc <draw_string+0xc>
 80484a8:	fa                   	cli    
 80484a9:	83 ec 0c             	sub    $0xc,%esp
 80484ac:	68 ee 82 07 08       	push   $0x80782ee
 80484b1:	68 7b 83 07 08       	push   $0x807837b
 80484b6:	6a 18                	push   $0x18
 80484b8:	68 1c 83 07 08       	push   $0x807831c
 80484bd:	68 84 82 07 08       	push   $0x8078284
 80484c2:	e8 49 0d 02 00       	call   8069210 <printf>
 80484c7:	b8 01 00 00 00       	mov    $0x1,%eax
 80484cc:	d6                   	(bad)  
 80484cd:	83 c4 20             	add    $0x20,%esp
 80484d0:	e9 01 ff ff ff       	jmp    80483d6 <draw_string+0x26>
 80484d5:	66 90                	xchg   %ax,%ax
 80484d7:	66 90                	xchg   %ax,%ax
 80484d9:	66 90                	xchg   %ax,%ax
 80484db:	66 90                	xchg   %ax,%ax
 80484dd:	66 90                	xchg   %ax,%ax
 80484df:	90                   	nop

080484e0 <PAL_GameMain>:
 80484e0:	55                   	push   %ebp
 80484e1:	89 e5                	mov    %esp,%ebp
 80484e3:	53                   	push   %ebx
 80484e4:	83 ec 04             	sub    $0x4,%esp
 80484e7:	8b 1d 08 72 09 08    	mov    0x8097208,%ebx
 80484ed:	e8 8e 70 01 00       	call   805f580 <PAL_OpeningMenu>
 80484f2:	83 ec 0c             	sub    $0xc,%esp
 80484f5:	88 83 b8 2a 00 00    	mov    %al,0x2ab8(%ebx)
 80484fb:	a1 08 72 09 08       	mov    0x8097208,%eax
 8048500:	0f b6 80 b8 2a 00 00 	movzbl 0x2ab8(%eax),%eax
 8048507:	50                   	push   %eax
 8048508:	e8 23 3a 01 00       	call   805bf30 <PAL_InitGameData>
 804850d:	e8 3e dd 00 00       	call   8056250 <SDL_GetTicks>
 8048512:	89 c3                	mov    %eax,%ebx
 8048514:	a1 08 72 09 08       	mov    0x8097208,%eax
 8048519:	83 c4 10             	add    $0x10,%esp
 804851c:	8b 88 cc 2a 00 00    	mov    0x2acc(%eax),%ecx
 8048522:	85 c9                	test   %ecx,%ecx
 8048524:	75 59                	jne    804857f <PAL_GameMain+0x9f>
 8048526:	8d 76 00             	lea    0x0(%esi),%esi
 8048529:	8d bc 27 00 00 00 00 	lea    0x0(%edi,%eiz,1),%edi
 8048530:	e8 2b 4e 01 00       	call   805d360 <PAL_LoadResources>
 8048535:	e8 16 cc 01 00       	call   8065150 <PAL_ClearKeyState>
 804853a:	e8 61 cc 01 00       	call   80651a0 <PAL_ProcessEvent>
 804853f:	eb 19                	jmp    804855a <PAL_GameMain+0x7a>
 8048541:	8d b4 26 00 00 00 00 	lea    0x0(%esi,%eiz,1),%esi
 8048548:	e8 53 cc 01 00       	call   80651a0 <PAL_ProcessEvent>
 804854d:	83 ec 0c             	sub    $0xc,%esp
 8048550:	6a 01                	push   $0x1
 8048552:	e8 19 dd 00 00       	call   8056270 <SDL_Delay>
 8048557:	83 c4 10             	add    $0x10,%esp
 804855a:	e8 f1 dc 00 00       	call   8056250 <SDL_GetTicks>
 804855f:	39 c3                	cmp    %eax,%ebx
 8048561:	73 e5                	jae    8048548 <PAL_GameMain+0x68>
 8048563:	e8 e8 dc 00 00       	call   8056250 <SDL_GetTicks>
 8048568:	8d 58 64             	lea    0x64(%eax),%ebx
 804856b:	e8 10 09 00 00       	call   8048e80 <PAL_StartFrame>
 8048570:	a1 08 72 09 08       	mov    0x8097208,%eax
 8048575:	8b 88 cc 2a 00 00    	mov    0x2acc(%eax),%ecx
 804857b:	85 c9                	test   %ecx,%ecx
 804857d:	74 b1                	je     8048530 <PAL_GameMain+0x50>
 804857f:	83 ec 0c             	sub    $0xc,%esp
 8048582:	6a 03                	push   $0x3
 8048584:	e8 b7 4d 01 00       	call   805d340 <PAL_SetLoadFlags>
 8048589:	a1 08 72 09 08       	mov    0x8097208,%eax
 804858e:	83 c4 10             	add    $0x10,%esp
 8048591:	8b 90 d0 2a 00 00    	mov    0x2ad0(%eax),%edx
 8048597:	85 d2                	test   %edx,%edx
 8048599:	75 1c                	jne    80485b7 <PAL_GameMain+0xd7>
 804859b:	0f b7 80 54 44 00 00 	movzwl 0x4454(%eax),%eax
 80485a2:	83 ec 04             	sub    $0x4,%esp
 80485a5:	6a 01                	push   $0x1
 80485a7:	6a 01                	push   $0x1
 80485a9:	50                   	push   %eax
 80485aa:	e8 c1 e7 00 00       	call   8056d70 <PAL_PlayMUS>
 80485af:	a1 08 72 09 08       	mov    0x8097208,%eax
 80485b4:	83 c4 10             	add    $0x10,%esp
 80485b7:	c7 80 d4 2a 00 00 01 	movl   $0x1,0x2ad4(%eax)
 80485be:	00 00 00 
 80485c1:	c7 80 30 4d 00 00 00 	movl   $0x0,0x4d30(%eax)
 80485c8:	00 00 00 
 80485cb:	c7 80 cc 2a 00 00 00 	movl   $0x0,0x2acc(%eax)
 80485d2:	00 00 00 
 80485d5:	e9 56 ff ff ff       	jmp    8048530 <PAL_GameMain+0x50>
 80485da:	66 90                	xchg   %ax,%ax
 80485dc:	66 90                	xchg   %ax,%ax
 80485de:	66 90                	xchg   %ax,%ax

080485e0 <PAL_GameUpdate>:
 80485e0:	55                   	push   %ebp
 80485e1:	89 e5                	mov    %esp,%ebp
 80485e3:	57                   	push   %edi
 80485e4:	56                   	push   %esi
 80485e5:	53                   	push   %ebx
 80485e6:	83 ec 1c             	sub    $0x1c,%esp
 80485e9:	8b 5d 08             	mov    0x8(%ebp),%ebx
 80485ec:	a1 08 72 09 08       	mov    0x8097208,%eax
 80485f1:	85 db                	test   %ebx,%ebx
 80485f3:	0f 85 a7 01 00 00    	jne    80487a0 <PAL_GameUpdate+0x1c0>
 80485f9:	0f b7 90 4a 44 00 00 	movzwl 0x444a(%eax),%edx
 8048600:	8d 14 d0             	lea    (%eax,%edx,8),%edx
 8048603:	0f b7 4a 26          	movzwl 0x26(%edx),%ecx
 8048607:	0f b7 52 2e          	movzwl 0x2e(%edx),%edx
 804860b:	8d 79 01             	lea    0x1(%ecx),%edi
 804860e:	66 39 d7             	cmp    %dx,%di
 8048611:	0f 87 79 01 00 00    	ja     8048790 <PAL_GameUpdate+0x1b0>
 8048617:	8b 75 08             	mov    0x8(%ebp),%esi
 804861a:	eb 2b                	jmp    8048647 <PAL_GameUpdate+0x67>
 804861c:	8d 74 26 00          	lea    0x0(%esi,%eiz,1),%esi
 8048620:	85 f6                	test   %esi,%esi
 8048622:	74 0e                	je     8048632 <PAL_GameUpdate+0x52>
 8048624:	66 83 7b 0c 01       	cmpw   $0x1,0xc(%ebx)
 8048629:	7e 07                	jle    8048632 <PAL_GameUpdate+0x52>
 804862b:	66 83 7b 10 00       	cmpw   $0x0,0x10(%ebx)
 8048630:	75 6e                	jne    80486a0 <PAL_GameUpdate+0xc0>
 8048632:	0f b7 90 4a 44 00 00 	movzwl 0x444a(%eax),%edx
 8048639:	83 c7 01             	add    $0x1,%edi
 804863c:	66 39 7c d0 2e       	cmp    %di,0x2e(%eax,%edx,8)
 8048641:	0f 82 49 01 00 00    	jb     8048790 <PAL_GameUpdate+0x1b0>
 8048647:	0f b7 d7             	movzwl %di,%edx
 804864a:	8d 9a ff ff ff 07    	lea    0x7ffffff(%edx),%ebx
 8048650:	c1 e3 05             	shl    $0x5,%ebx
 8048653:	03 58 20             	add    0x20(%eax),%ebx
 8048656:	66 83 7b 0c 00       	cmpw   $0x0,0xc(%ebx)
 804865b:	7e c3                	jle    8048620 <PAL_GameUpdate+0x40>
 804865d:	66 83 3b 00          	cmpw   $0x0,(%ebx)
 8048661:	75 bd                	jne    8048620 <PAL_GameUpdate+0x40>
 8048663:	0f b7 4b 0a          	movzwl 0xa(%ebx),%ecx
 8048667:	66 85 c9             	test   %cx,%cx
 804866a:	74 b4                	je     8048620 <PAL_GameUpdate+0x40>
 804866c:	83 ec 08             	sub    $0x8,%esp
 804866f:	52                   	push   %edx
 8048670:	51                   	push   %ecx
 8048671:	e8 ba 46 00 00       	call   804cd30 <PAL_RunAutoScript>
 8048676:	66 89 43 0a          	mov    %ax,0xa(%ebx)
 804867a:	a1 08 72 09 08       	mov    0x8097208,%eax
 804867f:	83 c4 10             	add    $0x10,%esp
 8048682:	8b 88 d0 2a 00 00    	mov    0x2ad0(%eax),%ecx
 8048688:	85 c9                	test   %ecx,%ecx
 804868a:	75 0a                	jne    8048696 <PAL_GameUpdate+0xb6>
 804868c:	8b 90 cc 2a 00 00    	mov    0x2acc(%eax),%edx
 8048692:	85 d2                	test   %edx,%edx
 8048694:	74 8a                	je     8048620 <PAL_GameUpdate+0x40>
 8048696:	8d 65 f4             	lea    -0xc(%ebp),%esp
 8048699:	5b                   	pop    %ebx
 804869a:	5e                   	pop    %esi
 804869b:	5f                   	pop    %edi
 804869c:	5d                   	pop    %ebp
 804869d:	c3                   	ret    
 804869e:	66 90                	xchg   %ax,%ax
 80486a0:	0f bf 88 ec 43 00 00 	movswl 0x43ec(%eax),%ecx
 80486a7:	0f b7 53 02          	movzwl 0x2(%ebx),%edx
 80486ab:	83 ec 0c             	sub    $0xc,%esp
 80486ae:	0f bf 80 f0 43 00 00 	movswl 0x43f0(%eax),%eax
 80486b5:	29 ca                	sub    %ecx,%edx
 80486b7:	29 c2                	sub    %eax,%edx
 80486b9:	52                   	push   %edx
 80486ba:	e8 11 e6 01 00       	call   8066cd0 <abs>
 80486bf:	8b 0d 08 72 09 08    	mov    0x8097208,%ecx
 80486c5:	0f b7 53 04          	movzwl 0x4(%ebx),%edx
 80486c9:	89 45 e4             	mov    %eax,-0x1c(%ebp)
 80486cc:	0f bf 81 ee 43 00 00 	movswl 0x43ee(%ecx),%eax
 80486d3:	29 c2                	sub    %eax,%edx
 80486d5:	0f bf 81 f2 43 00 00 	movswl 0x43f2(%ecx),%eax
 80486dc:	29 c2                	sub    %eax,%edx
 80486de:	89 14 24             	mov    %edx,(%esp)
 80486e1:	e8 ea e5 01 00       	call   8066cd0 <abs>
 80486e6:	8b 4d e4             	mov    -0x1c(%ebp),%ecx
 80486e9:	83 c4 10             	add    $0x10,%esp
 80486ec:	8d 04 41             	lea    (%ecx,%eax,2),%eax
 80486ef:	83 f8 0c             	cmp    $0xc,%eax
 80486f2:	0f 8f 8c 00 00 00    	jg     8048784 <PAL_GameUpdate+0x1a4>
 80486f8:	0f b7 43 14          	movzwl 0x14(%ebx),%eax
 80486fc:	b9 04 00 00 00       	mov    $0x4,%ecx
 8048701:	66 89 7d e4          	mov    %di,-0x1c(%ebp)
 8048705:	89 75 08             	mov    %esi,0x8(%ebp)
 8048708:	89 ce                	mov    %ecx,%esi
 804870a:	83 c0 01             	add    $0x1,%eax
 804870d:	83 e0 03             	and    $0x3,%eax
 8048710:	89 c7                	mov    %eax,%edi
 8048712:	a1 08 72 09 08       	mov    0x8097208,%eax
 8048717:	8b 90 ec 43 00 00    	mov    0x43ec(%eax),%edx
 804871d:	8b 80 f0 43 00 00    	mov    0x43f0(%eax),%eax
 8048723:	0f bf da             	movswl %dx,%ebx
 8048726:	0f bf c8             	movswl %ax,%ecx
 8048729:	c1 fa 10             	sar    $0x10,%edx
 804872c:	c1 f8 10             	sar    $0x10,%eax
 804872f:	01 d9                	add    %ebx,%ecx
 8048731:	01 d0                	add    %edx,%eax
 8048733:	66 83 ff 02          	cmp    $0x2,%di
 8048737:	19 d2                	sbb    %edx,%edx
 8048739:	83 e2 e0             	and    $0xffffffe0,%edx
 804873c:	8d 54 0a 10          	lea    0x10(%edx,%ecx,1),%edx
 8048740:	8d 4f ff             	lea    -0x1(%edi),%ecx
 8048743:	66 83 f9 02          	cmp    $0x2,%cx
 8048747:	19 c9                	sbb    %ecx,%ecx
 8048749:	83 ec 04             	sub    $0x4,%esp
 804874c:	83 e1 f0             	and    $0xfffffff0,%ecx
 804874f:	6a 00                	push   $0x0
 8048751:	6a 01                	push   $0x1
 8048753:	8d 5c 01 08          	lea    0x8(%ecx,%eax,1),%ebx
 8048757:	89 d8                	mov    %ebx,%eax
 8048759:	0f b7 da             	movzwl %dx,%ebx
 804875c:	c1 e0 10             	shl    $0x10,%eax
 804875f:	09 c3                	or     %eax,%ebx
 8048761:	53                   	push   %ebx
 8048762:	e8 39 f4 00 00       	call   8057ba0 <PAL_CheckObstacle>
 8048767:	83 c4 10             	add    $0x10,%esp
 804876a:	85 c0                	test   %eax,%eax
 804876c:	0f 84 e6 02 00 00    	je     8048a58 <PAL_GameUpdate+0x478>
 8048772:	83 c7 01             	add    $0x1,%edi
 8048775:	83 e7 03             	and    $0x3,%edi
 8048778:	83 ee 01             	sub    $0x1,%esi
 804877b:	75 95                	jne    8048712 <PAL_GameUpdate+0x132>
 804877d:	0f b7 7d e4          	movzwl -0x1c(%ebp),%edi
 8048781:	8b 75 08             	mov    0x8(%ebp),%esi
 8048784:	a1 08 72 09 08       	mov    0x8097208,%eax
 8048789:	e9 a4 fe ff ff       	jmp    8048632 <PAL_GameUpdate+0x52>
 804878e:	66 90                	xchg   %ax,%ax
 8048790:	83 80 30 4d 00 00 01 	addl   $0x1,0x4d30(%eax)
 8048797:	8d 65 f4             	lea    -0xc(%ebp),%esp
 804879a:	5b                   	pop    %ebx
 804879b:	5e                   	pop    %esi
 804879c:	5f                   	pop    %edi
 804879d:	5d                   	pop    %ebp
 804879e:	c3                   	ret    
 804879f:	90                   	nop
 80487a0:	8b 88 d0 2a 00 00    	mov    0x2ad0(%eax),%ecx
 80487a6:	85 c9                	test   %ecx,%ecx
 80487a8:	0f 85 37 02 00 00    	jne    80489e5 <PAL_GameUpdate+0x405>
 80487ae:	8b 78 24             	mov    0x24(%eax),%edi
 80487b1:	85 ff                	test   %edi,%edi
 80487b3:	7e 3e                	jle    80487f3 <PAL_GameUpdate+0x213>
 80487b5:	8b 70 20             	mov    0x20(%eax),%esi
 80487b8:	31 d2                	xor    %edx,%edx
 80487ba:	89 45 e4             	mov    %eax,-0x1c(%ebp)
 80487bd:	89 d0                	mov    %edx,%eax
 80487bf:	89 f3                	mov    %esi,%ebx
 80487c1:	31 f6                	xor    %esi,%esi
 80487c3:	90                   	nop
 80487c4:	8d 74 26 00          	lea    0x0(%esi,%eiz,1),%esi
 80487c8:	c1 e0 05             	shl    $0x5,%eax
 80487cb:	01 d8                	add    %ebx,%eax
 80487cd:	0f b7 10             	movzwl (%eax),%edx
 80487d0:	66 85 d2             	test   %dx,%dx
 80487d3:	74 11                	je     80487e6 <PAL_GameUpdate+0x206>
 80487d5:	89 d1                	mov    %edx,%ecx
 80487d7:	66 c1 f9 0f          	sar    $0xf,%cx
 80487db:	83 e1 02             	and    $0x2,%ecx
 80487de:	83 e9 01             	sub    $0x1,%ecx
 80487e1:	01 ca                	add    %ecx,%edx
 80487e3:	66 89 10             	mov    %dx,(%eax)
 80487e6:	83 c6 01             	add    $0x1,%esi
 80487e9:	0f b7 c6             	movzwl %si,%eax
 80487ec:	39 f8                	cmp    %edi,%eax
 80487ee:	7c d8                	jl     80487c8 <PAL_GameUpdate+0x1e8>
 80487f0:	8b 45 e4             	mov    -0x1c(%ebp),%eax
 80487f3:	0f b7 90 4a 44 00 00 	movzwl 0x444a(%eax),%edx
 80487fa:	8d 14 d0             	lea    (%eax,%edx,8),%edx
 80487fd:	0f b7 72 26          	movzwl 0x26(%edx),%esi
 8048801:	8d 7e 01             	lea    0x1(%esi),%edi
 8048804:	66 3b 7a 2e          	cmp    0x2e(%edx),%di
 8048808:	76 2e                	jbe    8048838 <PAL_GameUpdate+0x258>
 804880a:	eb 84                	jmp    8048790 <PAL_GameUpdate+0x1b0>
 804880c:	8d 74 26 00          	lea    0x0(%esi,%eiz,1),%esi
 8048810:	74 0e                	je     8048820 <PAL_GameUpdate+0x240>
 8048812:	0f b7 53 0e          	movzwl 0xe(%ebx),%edx
 8048816:	66 83 fa 03          	cmp    $0x3,%dx
 804881a:	0f 87 90 00 00 00    	ja     80488b0 <PAL_GameUpdate+0x2d0>
 8048820:	0f b7 88 4a 44 00 00 	movzwl 0x444a(%eax),%ecx
 8048827:	83 c7 01             	add    $0x1,%edi
 804882a:	0f b7 54 c8 2e       	movzwl 0x2e(%eax,%ecx,8),%edx
 804882f:	66 39 fa             	cmp    %di,%dx
 8048832:	0f 82 a0 01 00 00    	jb     80489d8 <PAL_GameUpdate+0x3f8>
 8048838:	0f b7 f7             	movzwl %di,%esi
 804883b:	8d 9e ff ff ff 07    	lea    0x7ffffff(%esi),%ebx
 8048841:	c1 e3 05             	shl    $0x5,%ebx
 8048844:	03 58 20             	add    0x20(%eax),%ebx
 8048847:	66 83 3b 00          	cmpw   $0x0,(%ebx)
 804884b:	75 d3                	jne    8048820 <PAL_GameUpdate+0x240>
 804884d:	0f bf 53 0c          	movswl 0xc(%ebx),%edx
 8048851:	66 85 d2             	test   %dx,%dx
 8048854:	79 ba                	jns    8048810 <PAL_GameUpdate+0x230>
 8048856:	8b 88 ec 43 00 00    	mov    0x43ec(%eax),%ecx
 804885c:	0f b7 73 02          	movzwl 0x2(%ebx),%esi
 8048860:	89 4d e4             	mov    %ecx,-0x1c(%ebp)
 8048863:	0f bf c9             	movswl %cx,%ecx
 8048866:	39 ce                	cmp    %ecx,%esi
 8048868:	7c 26                	jl     8048890 <PAL_GameUpdate+0x2b0>
 804886a:	81 c1 40 01 00 00    	add    $0x140,%ecx
 8048870:	39 ce                	cmp    %ecx,%esi
 8048872:	7f 1c                	jg     8048890 <PAL_GameUpdate+0x2b0>
 8048874:	0f b7 4b 04          	movzwl 0x4(%ebx),%ecx
 8048878:	8b 75 e4             	mov    -0x1c(%ebp),%esi
 804887b:	c1 fe 10             	sar    $0x10,%esi
 804887e:	39 f1                	cmp    %esi,%ecx
 8048880:	7c 0e                	jl     8048890 <PAL_GameUpdate+0x2b0>
 8048882:	81 c6 40 01 00 00    	add    $0x140,%esi
 8048888:	39 f1                	cmp    %esi,%ecx
 804888a:	7e 94                	jle    8048820 <PAL_GameUpdate+0x240>
 804888c:	8d 74 26 00          	lea    0x0(%esi,%eiz,1),%esi
 8048890:	83 ec 0c             	sub    $0xc,%esp
 8048893:	52                   	push   %edx
 8048894:	e8 37 e4 01 00       	call   8066cd0 <abs>
 8048899:	66 89 43 0c          	mov    %ax,0xc(%ebx)
 804889d:	31 c0                	xor    %eax,%eax
 804889f:	83 c4 10             	add    $0x10,%esp
 80488a2:	66 89 43 16          	mov    %ax,0x16(%ebx)
 80488a6:	a1 08 72 09 08       	mov    0x8097208,%eax
 80488ab:	e9 70 ff ff ff       	jmp    8048820 <PAL_GameUpdate+0x240>
 80488b0:	0f bf 88 ec 43 00 00 	movswl 0x43ec(%eax),%ecx
 80488b7:	0f bf 80 f0 43 00 00 	movswl 0x43f0(%eax),%eax
 80488be:	83 ec 0c             	sub    $0xc,%esp
 80488c1:	89 55 e0             	mov    %edx,-0x20(%ebp)
 80488c4:	01 c8                	add    %ecx,%eax
 80488c6:	0f b7 4b 02          	movzwl 0x2(%ebx),%ecx
 80488ca:	29 c8                	sub    %ecx,%eax
 80488cc:	50                   	push   %eax
 80488cd:	e8 fe e3 01 00       	call   8066cd0 <abs>
 80488d2:	89 45 e4             	mov    %eax,-0x1c(%ebp)
 80488d5:	a1 08 72 09 08       	mov    0x8097208,%eax
 80488da:	0f bf 88 ee 43 00 00 	movswl 0x43ee(%eax),%ecx
 80488e1:	0f bf 80 f2 43 00 00 	movswl 0x43f2(%eax),%eax
 80488e8:	01 c8                	add    %ecx,%eax
 80488ea:	0f b7 4b 04          	movzwl 0x4(%ebx),%ecx
 80488ee:	29 c8                	sub    %ecx,%eax
 80488f0:	89 04 24             	mov    %eax,(%esp)
 80488f3:	e8 d8 e3 01 00       	call   8066cd0 <abs>
 80488f8:	8b 55 e0             	mov    -0x20(%ebp),%edx
 80488fb:	8b 4d e4             	mov    -0x1c(%ebp),%ecx
 80488fe:	83 c4 10             	add    $0x10,%esp
 8048901:	0f b7 d2             	movzwl %dx,%edx
 8048904:	8d 04 41             	lea    (%ecx,%eax,2),%eax
 8048907:	c1 e2 05             	shl    $0x5,%edx
 804890a:	83 ea 71             	sub    $0x71,%edx
 804890d:	39 c2                	cmp    %eax,%edx
 804890f:	7d 0f                	jge    8048920 <PAL_GameUpdate+0x340>
 8048911:	a1 08 72 09 08       	mov    0x8097208,%eax
 8048916:	e9 05 ff ff ff       	jmp    8048820 <PAL_GameUpdate+0x240>
 804891b:	90                   	nop
 804891c:	8d 74 26 00          	lea    0x0(%esi,%eiz,1),%esi
 8048920:	66 83 7b 12 00       	cmpw   $0x0,0x12(%ebx)
 8048925:	74 6e                	je     8048995 <PAL_GameUpdate+0x3b5>
 8048927:	31 c0                	xor    %eax,%eax
 8048929:	66 89 43 16          	mov    %ax,0x16(%ebx)
 804892d:	a1 08 72 09 08       	mov    0x8097208,%eax
 8048932:	8b 90 ec 43 00 00    	mov    0x43ec(%eax),%edx
 8048938:	8b 80 f0 43 00 00    	mov    0x43f0(%eax),%eax
 804893e:	89 d1                	mov    %edx,%ecx
 8048940:	89 45 e4             	mov    %eax,-0x1c(%ebp)
 8048943:	c1 f8 10             	sar    $0x10,%eax
 8048946:	c1 f9 10             	sar    $0x10,%ecx
 8048949:	0f bf d2             	movswl %dx,%edx
 804894c:	01 c8                	add    %ecx,%eax
 804894e:	0f b7 4b 04          	movzwl 0x4(%ebx),%ecx
 8048952:	29 c8                	sub    %ecx,%eax
 8048954:	0f bf 4d e4          	movswl -0x1c(%ebp),%ecx
 8048958:	01 ca                	add    %ecx,%edx
 804895a:	0f b7 4b 02          	movzwl 0x2(%ebx),%ecx
 804895e:	29 ca                	sub    %ecx,%edx
 8048960:	85 d2                	test   %edx,%edx
 8048962:	0f 8e df 00 00 00    	jle    8048a47 <PAL_GameUpdate+0x467>
 8048968:	85 c0                	test   %eax,%eax
 804896a:	0f 9f c0             	setg   %al
 804896d:	0f b6 c0             	movzbl %al,%eax
 8048970:	83 c0 02             	add    $0x2,%eax
 8048973:	66 89 43 14          	mov    %ax,0x14(%ebx)
 8048977:	83 ec 0c             	sub    $0xc,%esp
 804897a:	6a 00                	push   $0x0
 804897c:	e8 4f f2 00 00       	call   8057bd0 <PAL_UpdatePartyGestures>
 8048981:	e8 ba ed 00 00       	call   8057740 <PAL_MakeScene>
 8048986:	c7 04 24 00 00 00 00 	movl   $0x0,(%esp)
 804898d:	e8 8e d5 01 00       	call   8065f20 <VIDEO_UpdateScreen>
 8048992:	83 c4 10             	add    $0x10,%esp
 8048995:	0f b7 43 08          	movzwl 0x8(%ebx),%eax
 8048999:	83 ec 08             	sub    $0x8,%esp
 804899c:	56                   	push   %esi
 804899d:	50                   	push   %eax
 804899e:	e8 ad 0b 00 00       	call   8049550 <PAL_RunTriggerScript>
 80489a3:	66 89 43 08          	mov    %ax,0x8(%ebx)
 80489a7:	e8 a4 c7 01 00       	call   8065150 <PAL_ClearKeyState>
 80489ac:	a1 08 72 09 08       	mov    0x8097208,%eax
 80489b1:	83 c4 10             	add    $0x10,%esp
 80489b4:	8b b0 d0 2a 00 00    	mov    0x2ad0(%eax),%esi
 80489ba:	85 f6                	test   %esi,%esi
 80489bc:	0f 85 d4 fc ff ff    	jne    8048696 <PAL_GameUpdate+0xb6>
 80489c2:	8b 98 cc 2a 00 00    	mov    0x2acc(%eax),%ebx
 80489c8:	85 db                	test   %ebx,%ebx
 80489ca:	0f 84 50 fe ff ff    	je     8048820 <PAL_GameUpdate+0x240>
 80489d0:	e9 c1 fc ff ff       	jmp    8048696 <PAL_GameUpdate+0xb6>
 80489d5:	8d 76 00             	lea    0x0(%esi),%esi
 80489d8:	0f b7 4c c8 26       	movzwl 0x26(%eax,%ecx,8),%ecx
 80489dd:	8d 79 01             	lea    0x1(%ecx),%edi
 80489e0:	e9 29 fc ff ff       	jmp    804860e <PAL_GameUpdate+0x2e>
 80489e5:	0f b7 90 4a 44 00 00 	movzwl 0x444a(%eax),%edx
 80489ec:	83 ec 08             	sub    $0x8,%esp
 80489ef:	c7 80 d0 2a 00 00 00 	movl   $0x0,0x2ad0(%eax)
 80489f6:	00 00 00 
 80489f9:	68 ff ff 00 00       	push   $0xffff
 80489fe:	8d 1c d0             	lea    (%eax,%edx,8),%ebx
 8048a01:	0f b7 43 22          	movzwl 0x22(%ebx),%eax
 8048a05:	50                   	push   %eax
 8048a06:	e8 45 0b 00 00       	call   8049550 <PAL_RunTriggerScript>
 8048a0b:	66 89 43 22          	mov    %ax,0x22(%ebx)
 8048a0f:	a1 08 72 09 08       	mov    0x8097208,%eax
 8048a14:	83 c4 10             	add    $0x10,%esp
 8048a17:	8b 90 d0 2a 00 00    	mov    0x2ad0(%eax),%edx
 8048a1d:	85 d2                	test   %edx,%edx
 8048a1f:	0f 85 71 fc ff ff    	jne    8048696 <PAL_GameUpdate+0xb6>
 8048a25:	8b 80 cc 2a 00 00    	mov    0x2acc(%eax),%eax
 8048a2b:	85 c0                	test   %eax,%eax
 8048a2d:	0f 85 63 fc ff ff    	jne    8048696 <PAL_GameUpdate+0xb6>
 8048a33:	e8 18 c7 01 00       	call   8065150 <PAL_ClearKeyState>
 8048a38:	e8 03 ed 00 00       	call   8057740 <PAL_MakeScene>
 8048a3d:	a1 08 72 09 08       	mov    0x8097208,%eax
 8048a42:	e9 67 fd ff ff       	jmp    80487ae <PAL_GameUpdate+0x1ce>
 8048a47:	85 c0                	test   %eax,%eax
 8048a49:	0f 9e c0             	setle  %al
 8048a4c:	0f b6 c0             	movzbl %al,%eax
 8048a4f:	66 89 43 14          	mov    %ax,0x14(%ebx)
 8048a53:	e9 1f ff ff ff       	jmp    8048977 <PAL_GameUpdate+0x397>
 8048a58:	a1 08 72 09 08       	mov    0x8097208,%eax
 8048a5d:	89 da                	mov    %ebx,%edx
 8048a5f:	0f b7 7d e4          	movzwl -0x1c(%ebp),%edi
 8048a63:	c1 ea 10             	shr    $0x10,%edx
 8048a66:	8b 75 08             	mov    0x8(%ebp),%esi
 8048a69:	8b 88 f0 43 00 00    	mov    0x43f0(%eax),%ecx
 8048a6f:	66 2b 98 f0 43 00 00 	sub    0x43f0(%eax),%bx
 8048a76:	c1 e9 10             	shr    $0x10,%ecx
 8048a79:	29 ca                	sub    %ecx,%edx
 8048a7b:	0f b7 cb             	movzwl %bx,%ecx
 8048a7e:	c1 e2 10             	shl    $0x10,%edx
 8048a81:	09 ca                	or     %ecx,%edx
 8048a83:	89 90 ec 43 00 00    	mov    %edx,0x43ec(%eax)
 8048a89:	e9 a4 fb ff ff       	jmp    8048632 <PAL_GameUpdate+0x52>
 8048a8e:	66 90                	xchg   %ax,%ax

08048a90 <PAL_GameUseItem>:
 8048a90:	55                   	push   %ebp
 8048a91:	89 e5                	mov    %esp,%ebp
 8048a93:	57                   	push   %edi
 8048a94:	56                   	push   %esi
 8048a95:	53                   	push   %ebx
 8048a96:	83 ec 1c             	sub    $0x1c,%esp
 8048a99:	8d b4 26 00 00 00 00 	lea    0x0(%esi,%eiz,1),%esi
 8048aa0:	83 ec 08             	sub    $0x8,%esp
 8048aa3:	6a 01                	push   $0x1
 8048aa5:	6a 00                	push   $0x0
 8048aa7:	e8 b4 57 01 00       	call   805e260 <PAL_ItemSelectMenu>
 8048aac:	83 c4 10             	add    $0x10,%esp
 8048aaf:	66 85 c0             	test   %ax,%ax
 8048ab2:	0f 84 cc 00 00 00    	je     8048b84 <PAL_GameUseItem+0xf4>
 8048ab8:	0f b7 d8             	movzwl %ax,%ebx
 8048abb:	8b 15 08 72 09 08    	mov    0x8097208,%edx
 8048ac1:	8d 34 5b             	lea    (%ebx,%ebx,2),%esi
 8048ac4:	8d 3c b5 80 09 00 00 	lea    0x980(,%esi,4),%edi
 8048acb:	01 fa                	add    %edi,%edx
 8048acd:	f6 42 12 10          	testb  $0x10,0x12(%edx)
 8048ad1:	75 6f                	jne    8048b42 <PAL_GameUseItem+0xb2>
 8048ad3:	89 75 e4             	mov    %esi,-0x1c(%ebp)
 8048ad6:	8d 76 00             	lea    0x0(%esi),%esi
 8048ad9:	8d bc 27 00 00 00 00 	lea    0x0(%edi,%eiz,1),%edi
 8048ae0:	83 ec 0c             	sub    $0xc,%esp
 8048ae3:	53                   	push   %ebx
 8048ae4:	e8 d7 7f 01 00       	call   8060ac0 <PAL_ItemUseMenu>
 8048ae9:	83 c4 10             	add    $0x10,%esp
 8048aec:	66 83 f8 ff          	cmp    $0xffff,%ax
 8048af0:	74 ae                	je     8048aa0 <PAL_GameUseItem+0x10>
 8048af2:	83 ec 08             	sub    $0x8,%esp
 8048af5:	0f b7 c0             	movzwl %ax,%eax
 8048af8:	8b 35 08 72 09 08    	mov    0x8097208,%esi
 8048afe:	50                   	push   %eax
 8048aff:	8b 45 e4             	mov    -0x1c(%ebp),%eax
 8048b02:	8d 3c 85 80 09 00 00 	lea    0x980(,%eax,4),%edi
 8048b09:	01 fe                	add    %edi,%esi
 8048b0b:	0f b7 46 0c          	movzwl 0xc(%esi),%eax
 8048b0f:	50                   	push   %eax
 8048b10:	e8 3b 0a 00 00       	call   8049550 <PAL_RunTriggerScript>
 8048b15:	03 3d 08 72 09 08    	add    0x8097208,%edi
 8048b1b:	83 c4 10             	add    $0x10,%esp
 8048b1e:	66 89 46 0c          	mov    %ax,0xc(%esi)
 8048b22:	f6 47 12 08          	testb  $0x8,0x12(%edi)
 8048b26:	74 b8                	je     8048ae0 <PAL_GameUseItem+0x50>
 8048b28:	8b 15 08 04 08 08    	mov    0x8080408,%edx
 8048b2e:	85 d2                	test   %edx,%edx
 8048b30:	74 ae                	je     8048ae0 <PAL_GameUseItem+0x50>
 8048b32:	83 ec 08             	sub    $0x8,%esp
 8048b35:	6a ff                	push   $0xffffffff
 8048b37:	53                   	push   %ebx
 8048b38:	e8 53 2e 01 00       	call   805b990 <PAL_AddItemToInventory>
 8048b3d:	83 c4 10             	add    $0x10,%esp
 8048b40:	eb 9e                	jmp    8048ae0 <PAL_GameUseItem+0x50>
 8048b42:	83 ec 08             	sub    $0x8,%esp
 8048b45:	89 55 e4             	mov    %edx,-0x1c(%ebp)
 8048b48:	68 ff ff 00 00       	push   $0xffff
 8048b4d:	0f b7 42 0c          	movzwl 0xc(%edx),%eax
 8048b51:	50                   	push   %eax
 8048b52:	e8 f9 09 00 00       	call   8049550 <PAL_RunTriggerScript>
 8048b57:	03 3d 08 72 09 08    	add    0x8097208,%edi
 8048b5d:	83 c4 10             	add    $0x10,%esp
 8048b60:	8b 55 e4             	mov    -0x1c(%ebp),%edx
 8048b63:	66 89 42 0c          	mov    %ax,0xc(%edx)
 8048b67:	f6 47 12 08          	testb  $0x8,0x12(%edi)
 8048b6b:	74 17                	je     8048b84 <PAL_GameUseItem+0xf4>
 8048b6d:	a1 08 04 08 08       	mov    0x8080408,%eax
 8048b72:	85 c0                	test   %eax,%eax
 8048b74:	74 0e                	je     8048b84 <PAL_GameUseItem+0xf4>
 8048b76:	83 ec 08             	sub    $0x8,%esp
 8048b79:	6a ff                	push   $0xffffffff
 8048b7b:	53                   	push   %ebx
 8048b7c:	e8 0f 2e 01 00       	call   805b990 <PAL_AddItemToInventory>
 8048b81:	83 c4 10             	add    $0x10,%esp
 8048b84:	8d 65 f4             	lea    -0xc(%ebp),%esp
 8048b87:	5b                   	pop    %ebx
 8048b88:	5e                   	pop    %esi
 8048b89:	5f                   	pop    %edi
 8048b8a:	5d                   	pop    %ebp
 8048b8b:	c3                   	ret    
 8048b8c:	8d 74 26 00          	lea    0x0(%esi,%eiz,1),%esi

08048b90 <PAL_GameEquipItem>:
 8048b90:	55                   	push   %ebp
 8048b91:	89 e5                	mov    %esp,%ebp
 8048b93:	83 ec 08             	sub    $0x8,%esp
 8048b96:	eb 17                	jmp    8048baf <PAL_GameEquipItem+0x1f>
 8048b98:	90                   	nop
 8048b99:	8d b4 26 00 00 00 00 	lea    0x0(%esi,%eiz,1),%esi
 8048ba0:	83 ec 0c             	sub    $0xc,%esp
 8048ba3:	0f b7 c0             	movzwl %ax,%eax
 8048ba6:	50                   	push   %eax
 8048ba7:	e8 04 88 01 00       	call   80613b0 <PAL_EquipItemMenu>
 8048bac:	83 c4 10             	add    $0x10,%esp
 8048baf:	83 ec 08             	sub    $0x8,%esp
 8048bb2:	6a 02                	push   $0x2
 8048bb4:	6a 00                	push   $0x0
 8048bb6:	e8 a5 56 01 00       	call   805e260 <PAL_ItemSelectMenu>
 8048bbb:	83 c4 10             	add    $0x10,%esp
 8048bbe:	66 85 c0             	test   %ax,%ax
 8048bc1:	75 dd                	jne    8048ba0 <PAL_GameEquipItem+0x10>
 8048bc3:	c9                   	leave  
 8048bc4:	c3                   	ret    
 8048bc5:	8d 74 26 00          	lea    0x0(%esi,%eiz,1),%esi
 8048bc9:	8d bc 27 00 00 00 00 	lea    0x0(%edi,%eiz,1),%edi

08048bd0 <PAL_Search>:
 8048bd0:	55                   	push   %ebp
 8048bd1:	89 e5                	mov    %esp,%ebp
 8048bd3:	57                   	push   %edi
 8048bd4:	56                   	push   %esi
 8048bd5:	53                   	push   %ebx
 8048bd6:	83 ec 6c             	sub    $0x6c,%esp
 8048bd9:	a1 08 72 09 08       	mov    0x8097208,%eax
 8048bde:	89 c3                	mov    %eax,%ebx
 8048be0:	8b b8 ec 43 00 00    	mov    0x43ec(%eax),%edi
 8048be6:	89 45 8c             	mov    %eax,-0x74(%ebp)
 8048be9:	8b 80 f0 43 00 00    	mov    0x43f0(%eax),%eax
 8048bef:	0f bf cf             	movswl %di,%ecx
 8048bf2:	c1 ff 10             	sar    $0x10,%edi
 8048bf5:	0f bf d0             	movswl %ax,%edx
 8048bf8:	c1 f8 10             	sar    $0x10,%eax
 8048bfb:	01 c7                	add    %eax,%edi
 8048bfd:	0f b7 83 48 44 00 00 	movzwl 0x4448(%ebx),%eax
 8048c04:	01 d1                	add    %edx,%ecx
 8048c06:	89 ce                	mov    %ecx,%esi
 8048c08:	66 89 45 8a          	mov    %ax,-0x76(%ebp)
 8048c0c:	89 c1                	mov    %eax,%ecx
 8048c0e:	83 e8 02             	sub    $0x2,%eax
 8048c11:	66 83 f8 02          	cmp    $0x2,%ax
 8048c15:	19 db                	sbb    %ebx,%ebx
 8048c17:	83 e3 20             	and    $0x20,%ebx
 8048c1a:	83 eb 10             	sub    $0x10,%ebx
 8048c1d:	66 83 f8 02          	cmp    $0x2,%ax
 8048c21:	19 c0                	sbb    %eax,%eax
 8048c23:	66 89 5d 9c          	mov    %bx,-0x64(%ebp)
 8048c27:	83 e0 20             	and    $0x20,%eax
 8048c2a:	83 e8 10             	sub    $0x10,%eax
 8048c2d:	66 85 c9             	test   %cx,%cx
 8048c30:	89 45 a0             	mov    %eax,-0x60(%ebp)
 8048c33:	0f 84 27 02 00 00    	je     8048e60 <PAL_Search+0x290>
 8048c39:	66 83 f9 03          	cmp    $0x3,%cx
 8048c3d:	0f 84 1d 02 00 00    	je     8048e60 <PAL_Search+0x290>
 8048c43:	ba f0 ff ff ff       	mov    $0xfffffff0,%edx
 8048c48:	b9 f8 ff ff ff       	mov    $0xfffffff8,%ecx
 8048c4d:	c7 45 98 f8 ff ff ff 	movl   $0xfffffff8,-0x68(%ebp)
 8048c54:	66 89 55 90          	mov    %dx,-0x70(%ebp)
 8048c58:	66 89 4d 94          	mov    %cx,-0x6c(%ebp)
 8048c5c:	0f b7 d7             	movzwl %di,%edx
 8048c5f:	0f b7 ce             	movzwl %si,%ecx
 8048c62:	8d 5d b4             	lea    -0x4c(%ebp),%ebx
 8048c65:	89 d0                	mov    %edx,%eax
 8048c67:	89 4d a4             	mov    %ecx,-0x5c(%ebp)
 8048c6a:	c1 e0 10             	shl    $0x10,%eax
 8048c6d:	09 c8                	or     %ecx,%eax
 8048c6f:	89 f1                	mov    %esi,%ecx
 8048c71:	89 45 b4             	mov    %eax,-0x4c(%ebp)
 8048c74:	0f b7 45 9c          	movzwl -0x64(%ebp),%eax
 8048c78:	c1 e2 10             	shl    $0x10,%edx
 8048c7b:	83 c3 0c             	add    $0xc,%ebx
 8048c7e:	8d 34 08             	lea    (%eax,%ecx,1),%esi
 8048c81:	0f b7 45 94          	movzwl -0x6c(%ebp),%eax
 8048c85:	03 4d a0             	add    -0x60(%ebp),%ecx
 8048c88:	0f b7 f6             	movzwl %si,%esi
 8048c8b:	09 f2                	or     %esi,%edx
 8048c8d:	01 f8                	add    %edi,%eax
 8048c8f:	89 13                	mov    %edx,(%ebx)
 8048c91:	c1 e0 10             	shl    $0x10,%eax
 8048c94:	09 f0                	or     %esi,%eax
 8048c96:	89 43 f8             	mov    %eax,-0x8(%ebx)
 8048c99:	0f b7 45 90          	movzwl -0x70(%ebp),%eax
 8048c9d:	01 f8                	add    %edi,%eax
 8048c9f:	03 7d 98             	add    -0x68(%ebp),%edi
 8048ca2:	c1 e0 10             	shl    $0x10,%eax
 8048ca5:	0b 45 a4             	or     -0x5c(%ebp),%eax
 8048ca8:	89 43 fc             	mov    %eax,-0x4(%ebx)
 8048cab:	8d 45 e4             	lea    -0x1c(%ebp),%eax
 8048cae:	39 c3                	cmp    %eax,%ebx
 8048cb0:	74 0e                	je     8048cc0 <PAL_Search+0xf0>
 8048cb2:	0f b7 c1             	movzwl %cx,%eax
 8048cb5:	0f b7 d7             	movzwl %di,%edx
 8048cb8:	89 45 a4             	mov    %eax,-0x5c(%ebp)
 8048cbb:	eb b7                	jmp    8048c74 <PAL_Search+0xa4>
 8048cbd:	8d 76 00             	lea    0x0(%esi),%esi
 8048cc0:	8b 4d 8c             	mov    -0x74(%ebp),%ecx
 8048cc3:	c7 45 a4 00 00 00 00 	movl   $0x0,-0x5c(%ebp)
 8048cca:	0f b7 81 4a 44 00 00 	movzwl 0x444a(%ecx),%eax
 8048cd1:	8d 04 c1             	lea    (%ecx,%eax,8),%eax
 8048cd4:	0f b7 48 26          	movzwl 0x26(%eax),%ecx
 8048cd8:	89 ce                	mov    %ecx,%esi
 8048cda:	89 4d 94             	mov    %ecx,-0x6c(%ebp)
 8048cdd:	0f b7 48 2e          	movzwl 0x2e(%eax),%ecx
 8048ce1:	89 f0                	mov    %esi,%eax
 8048ce3:	c1 e0 05             	shl    $0x5,%eax
 8048ce6:	89 45 90             	mov    %eax,-0x70(%ebp)
 8048ce9:	8b 45 a4             	mov    -0x5c(%ebp),%eax
 8048cec:	8b 44 85 b4          	mov    -0x4c(%ebp,%eax,4),%eax
 8048cf0:	a8 1f                	test   $0x1f,%al
 8048cf2:	89 c2                	mov    %eax,%edx
 8048cf4:	0f 95 45 98          	setne  -0x68(%ebp)
 8048cf8:	66 c1 fa 0f          	sar    $0xf,%dx
 8048cfc:	66 c1 ea 0b          	shr    $0xb,%dx
 8048d00:	01 c2                	add    %eax,%edx
 8048d02:	c1 e8 10             	shr    $0x10,%eax
 8048d05:	66 c1 fa 05          	sar    $0x5,%dx
 8048d09:	0f bf da             	movswl %dx,%ebx
 8048d0c:	89 c2                	mov    %eax,%edx
 8048d0e:	66 c1 fa 0f          	sar    $0xf,%dx
 8048d12:	89 5d a0             	mov    %ebx,-0x60(%ebp)
 8048d15:	66 c1 ea 0c          	shr    $0xc,%dx
 8048d19:	01 d0                	add    %edx,%eax
 8048d1b:	66 c1 f8 04          	sar    $0x4,%ax
 8048d1f:	98                   	cwtl   
 8048d20:	89 45 9c             	mov    %eax,-0x64(%ebp)
 8048d23:	8b 45 94             	mov    -0x6c(%ebp),%eax
 8048d26:	39 c8                	cmp    %ecx,%eax
 8048d28:	0f 8d 12 01 00 00    	jge    8048e40 <PAL_Search+0x270>
 8048d2e:	8b 5d 8c             	mov    -0x74(%ebp),%ebx
 8048d31:	8b 7d 90             	mov    -0x70(%ebp),%edi
 8048d34:	89 c6                	mov    %eax,%esi
 8048d36:	03 7b 20             	add    0x20(%ebx),%edi
 8048d39:	eb 13                	jmp    8048d4e <PAL_Search+0x17e>
 8048d3b:	90                   	nop
 8048d3c:	8d 74 26 00          	lea    0x0(%esi,%eiz,1),%esi
 8048d40:	83 c6 01             	add    $0x1,%esi
 8048d43:	83 c7 20             	add    $0x20,%edi
 8048d46:	39 ce                	cmp    %ecx,%esi
 8048d48:	0f 8d f2 00 00 00    	jge    8048e40 <PAL_Search+0x270>
 8048d4e:	66 83 7f 0c 00       	cmpw   $0x0,0xc(%edi)
 8048d53:	0f b7 5f 02          	movzwl 0x2(%edi),%ebx
 8048d57:	0f b7 57 04          	movzwl 0x4(%edi),%edx
 8048d5b:	7e e3                	jle    8048d40 <PAL_Search+0x170>
 8048d5d:	0f b7 47 0e          	movzwl 0xe(%edi),%eax
 8048d61:	66 83 f8 03          	cmp    $0x3,%ax
 8048d65:	77 d9                	ja     8048d40 <PAL_Search+0x170>
 8048d67:	8d 04 40             	lea    (%eax,%eax,2),%eax
 8048d6a:	8d 44 00 fd          	lea    -0x3(%eax,%eax,1),%eax
 8048d6e:	3b 45 a4             	cmp    -0x5c(%ebp),%eax
 8048d71:	7e cd                	jle    8048d40 <PAL_Search+0x170>
 8048d73:	89 d8                	mov    %ebx,%eax
 8048d75:	66 c1 e8 05          	shr    $0x5,%ax
 8048d79:	0f b7 c0             	movzwl %ax,%eax
 8048d7c:	39 45 a0             	cmp    %eax,-0x60(%ebp)
 8048d7f:	0f 95 c0             	setne  %al
 8048d82:	66 c1 ea 04          	shr    $0x4,%dx
 8048d86:	0f b7 d2             	movzwl %dx,%edx
 8048d89:	39 55 9c             	cmp    %edx,-0x64(%ebp)
 8048d8c:	0f 95 c2             	setne  %dl
 8048d8f:	08 d0                	or     %dl,%al
 8048d91:	75 ad                	jne    8048d40 <PAL_Search+0x170>
 8048d93:	83 e3 1f             	and    $0x1f,%ebx
 8048d96:	0f 95 c0             	setne  %al
 8048d99:	38 45 98             	cmp    %al,-0x68(%ebp)
 8048d9c:	75 a2                	jne    8048d40 <PAL_Search+0x170>
 8048d9e:	0f b7 47 12          	movzwl 0x12(%edi),%eax
 8048da2:	0f b7 57 16          	movzwl 0x16(%edi),%edx
 8048da6:	c1 e0 02             	shl    $0x2,%eax
 8048da9:	39 d0                	cmp    %edx,%eax
 8048dab:	7e 57                	jle    8048e04 <PAL_Search+0x234>
 8048dad:	8b 5d 8c             	mov    -0x74(%ebp),%ebx
 8048db0:	0f b7 4d 8a          	movzwl -0x76(%ebp),%ecx
 8048db4:	31 c0                	xor    %eax,%eax
 8048db6:	66 89 47 16          	mov    %ax,0x16(%edi)
 8048dba:	0f b7 93 f6 43 00 00 	movzwl 0x43f6(%ebx),%edx
 8048dc1:	89 c8                	mov    %ecx,%eax
 8048dc3:	83 c0 02             	add    $0x2,%eax
 8048dc6:	83 e0 03             	and    $0x3,%eax
 8048dc9:	8d 14 92             	lea    (%edx,%edx,4),%edx
 8048dcc:	66 89 47 14          	mov    %ax,0x14(%edi)
 8048dd0:	89 c8                	mov    %ecx,%eax
 8048dd2:	8d 0c 40             	lea    (%eax,%eax,2),%ecx
 8048dd5:	89 d8                	mov    %ebx,%eax
 8048dd7:	8d 94 12 08 44 00 00 	lea    0x4408(%edx,%edx,1),%edx
 8048dde:	05 fe 43 00 00       	add    $0x43fe,%eax
 8048de3:	01 da                	add    %ebx,%edx
 8048de5:	8d 76 00             	lea    0x0(%esi),%esi
 8048de8:	66 89 08             	mov    %cx,(%eax)
 8048deb:	83 c0 0a             	add    $0xa,%eax
 8048dee:	39 d0                	cmp    %edx,%eax
 8048df0:	75 f6                	jne    8048de8 <PAL_Search+0x218>
 8048df2:	e8 49 e9 00 00       	call   8057740 <PAL_MakeScene>
 8048df7:	83 ec 0c             	sub    $0xc,%esp
 8048dfa:	6a 00                	push   $0x0
 8048dfc:	e8 1f d1 01 00       	call   8065f20 <VIDEO_UpdateScreen>
 8048e01:	83 c4 10             	add    $0x10,%esp
 8048e04:	8d 46 01             	lea    0x1(%esi),%eax
 8048e07:	83 ec 08             	sub    $0x8,%esp
 8048e0a:	0f b7 c0             	movzwl %ax,%eax
 8048e0d:	50                   	push   %eax
 8048e0e:	0f b7 47 08          	movzwl 0x8(%edi),%eax
 8048e12:	50                   	push   %eax
 8048e13:	e8 38 07 00 00       	call   8049550 <PAL_RunTriggerScript>
 8048e18:	66 89 47 08          	mov    %ax,0x8(%edi)
 8048e1c:	c7 04 24 32 00 00 00 	movl   $0x32,(%esp)
 8048e23:	e8 88 0a 01 00       	call   80598b0 <UTIL_Delay>
 8048e28:	83 c4 10             	add    $0x10,%esp
 8048e2b:	8d 65 f4             	lea    -0xc(%ebp),%esp
 8048e2e:	5b                   	pop    %ebx
 8048e2f:	5e                   	pop    %esi
 8048e30:	5f                   	pop    %edi
 8048e31:	5d                   	pop    %ebp
 8048e32:	e9 19 c3 01 00       	jmp    8065150 <PAL_ClearKeyState>
 8048e37:	89 f6                	mov    %esi,%esi
 8048e39:	8d bc 27 00 00 00 00 	lea    0x0(%edi,%eiz,1),%edi
 8048e40:	83 45 a4 01          	addl   $0x1,-0x5c(%ebp)
 8048e44:	8b 45 a4             	mov    -0x5c(%ebp),%eax
 8048e47:	83 f8 0d             	cmp    $0xd,%eax
 8048e4a:	0f 85 99 fe ff ff    	jne    8048ce9 <PAL_Search+0x119>
 8048e50:	8d 65 f4             	lea    -0xc(%ebp),%esp
 8048e53:	5b                   	pop    %ebx
 8048e54:	5e                   	pop    %esi
 8048e55:	5f                   	pop    %edi
 8048e56:	5d                   	pop    %ebp
 8048e57:	c3                   	ret    
 8048e58:	90                   	nop
 8048e59:	8d b4 26 00 00 00 00 	lea    0x0(%esi,%eiz,1),%esi
 8048e60:	bb 10 00 00 00       	mov    $0x10,%ebx
 8048e65:	b8 08 00 00 00       	mov    $0x8,%eax
 8048e6a:	c7 45 98 08 00 00 00 	movl   $0x8,-0x68(%ebp)
 8048e71:	66 89 5d 90          	mov    %bx,-0x70(%ebp)
 8048e75:	66 89 45 94          	mov    %ax,-0x6c(%ebp)
 8048e79:	e9 de fd ff ff       	jmp    8048c5c <PAL_Search+0x8c>
 8048e7e:	66 90                	xchg   %ax,%ax

08048e80 <PAL_StartFrame>:
 8048e80:	55                   	push   %ebp
 8048e81:	89 e5                	mov    %esp,%ebp
 8048e83:	83 ec 14             	sub    $0x14,%esp
 8048e86:	6a 01                	push   $0x1
 8048e88:	e8 53 f7 ff ff       	call   80485e0 <PAL_GameUpdate>
 8048e8d:	a1 08 72 09 08       	mov    0x8097208,%eax
 8048e92:	83 c4 10             	add    $0x10,%esp
 8048e95:	8b 88 d0 2a 00 00    	mov    0x2ad0(%eax),%ecx
 8048e9b:	85 c9                	test   %ecx,%ecx
 8048e9d:	74 09                	je     8048ea8 <PAL_StartFrame+0x28>
 8048e9f:	c9                   	leave  
 8048ea0:	c3                   	ret    
 8048ea1:	8d b4 26 00 00 00 00 	lea    0x0(%esi,%eiz,1),%esi
 8048ea8:	e8 f3 ed 00 00       	call   8057ca0 <PAL_UpdateParty>
 8048ead:	e8 8e e8 00 00       	call   8057740 <PAL_MakeScene>
 8048eb2:	83 ec 0c             	sub    $0xc,%esp
 8048eb5:	6a 00                	push   $0x0
 8048eb7:	e8 64 d0 01 00       	call   8065f20 <VIDEO_UpdateScreen>
 8048ebc:	a1 60 8b 09 08       	mov    0x8098b60,%eax
 8048ec1:	83 c4 10             	add    $0x10,%esp
 8048ec4:	a8 01                	test   $0x1,%al
 8048ec6:	0f 85 b4 00 00 00    	jne    8048f80 <PAL_StartFrame+0x100>
 8048ecc:	a1 60 8b 09 08       	mov    0x8098b60,%eax
 8048ed1:	f6 c4 08             	test   $0x8,%ah
 8048ed4:	75 7a                	jne    8048f50 <PAL_StartFrame+0xd0>
 8048ed6:	a1 60 8b 09 08       	mov    0x8098b60,%eax
 8048edb:	f6 c4 10             	test   $0x10,%ah
 8048ede:	0f 85 ac 00 00 00    	jne    8048f90 <PAL_StartFrame+0x110>
 8048ee4:	a1 60 8b 09 08       	mov    0x8098b60,%eax
 8048ee9:	f6 c4 80             	test   $0x80,%ah
 8048eec:	0f 85 be 00 00 00    	jne    8048fb0 <PAL_StartFrame+0x130>
 8048ef2:	a1 60 8b 09 08       	mov    0x8098b60,%eax
 8048ef7:	f6 c4 40             	test   $0x40,%ah
 8048efa:	0f 85 c0 00 00 00    	jne    8048fc0 <PAL_StartFrame+0x140>
 8048f00:	a1 60 8b 09 08       	mov    0x8098b60,%eax
 8048f05:	a8 02                	test   $0x2,%al
 8048f07:	0f 85 93 00 00 00    	jne    8048fa0 <PAL_StartFrame+0x120>
 8048f0d:	a1 60 8b 09 08       	mov    0x8098b60,%eax
 8048f12:	f6 c4 20             	test   $0x20,%ah
 8048f15:	74 3e                	je     8048f55 <PAL_StartFrame+0xd5>
 8048f17:	e8 44 67 01 00       	call   805f660 <PAL_ConfirmMenu>
 8048f1c:	85 c0                	test   %eax,%eax
 8048f1e:	74 35                	je     8048f55 <PAL_StartFrame+0xd5>
 8048f20:	52                   	push   %edx
 8048f21:	6a 02                	push   $0x2
 8048f23:	6a 00                	push   $0x0
 8048f25:	6a 00                	push   $0x0
 8048f27:	e8 44 de 00 00       	call   8056d70 <PAL_PlayMUS>
 8048f2c:	c7 04 24 02 00 00 00 	movl   $0x2,(%esp)
 8048f33:	e8 e8 c3 01 00       	call   8065320 <PAL_FadeOut>
 8048f38:	e8 e3 f3 00 00       	call   8058320 <PAL_Shutdown>
 8048f3d:	c7 04 24 00 00 00 00 	movl   $0x0,(%esp)
 8048f44:	e8 e7 de 01 00       	call   8066e30 <exit>
 8048f49:	8d b4 26 00 00 00 00 	lea    0x0(%esi,%eiz,1),%esi
 8048f50:	e8 3b fb ff ff       	call   8048a90 <PAL_GameUseItem>
 8048f55:	8b 15 08 72 09 08    	mov    0x8097208,%edx
 8048f5b:	66 83 aa 62 44 00 00 	subw   $0x1,0x4462(%edx)
 8048f62:	01 
 8048f63:	0f 85 36 ff ff ff    	jne    8048e9f <PAL_StartFrame+0x1f>
 8048f69:	b8 01 00 00 00       	mov    $0x1,%eax
 8048f6e:	66 89 82 60 44 00 00 	mov    %ax,0x4460(%edx)
 8048f75:	c9                   	leave  
 8048f76:	c3                   	ret    
 8048f77:	89 f6                	mov    %esi,%esi
 8048f79:	8d bc 27 00 00 00 00 	lea    0x0(%edi,%eiz,1),%edi
 8048f80:	e8 4b 74 01 00       	call   80603d0 <PAL_InGameMenu>
 8048f85:	eb ce                	jmp    8048f55 <PAL_StartFrame+0xd5>
 8048f87:	89 f6                	mov    %esi,%esi
 8048f89:	8d bc 27 00 00 00 00 	lea    0x0(%edi,%eiz,1),%edi
 8048f90:	e8 fb fb ff ff       	call   8048b90 <PAL_GameEquipItem>
 8048f95:	eb be                	jmp    8048f55 <PAL_StartFrame+0xd5>
 8048f97:	89 f6                	mov    %esi,%esi
 8048f99:	8d bc 27 00 00 00 00 	lea    0x0(%edi,%eiz,1),%edi
 8048fa0:	e8 2b fc ff ff       	call   8048bd0 <PAL_Search>
 8048fa5:	eb ae                	jmp    8048f55 <PAL_StartFrame+0xd5>
 8048fa7:	89 f6                	mov    %esi,%esi
 8048fa9:	8d bc 27 00 00 00 00 	lea    0x0(%edi,%eiz,1),%edi
 8048fb0:	e8 fb 68 01 00       	call   805f8b0 <PAL_InGameMagicMenu>
 8048fb5:	eb 9e                	jmp    8048f55 <PAL_StartFrame+0xd5>
 8048fb7:	89 f6                	mov    %esi,%esi
 8048fb9:	8d bc 27 00 00 00 00 	lea    0x0(%edi,%eiz,1),%edi
 8048fc0:	e8 ab 6d 01 00       	call   805fd70 <PAL_PlayerStatus>
 8048fc5:	eb 8e                	jmp    8048f55 <PAL_StartFrame+0xd5>
 8048fc7:	89 f6                	mov    %esi,%esi
 8048fc9:	8d bc 27 00 00 00 00 	lea    0x0(%edi,%eiz,1),%edi

08048fd0 <PAL_WaitForKey>:
 8048fd0:	55                   	push   %ebp
 8048fd1:	89 e5                	mov    %esp,%ebp
 8048fd3:	57                   	push   %edi
 8048fd4:	56                   	push   %esi
 8048fd5:	53                   	push   %ebx
 8048fd6:	83 ec 0c             	sub    $0xc,%esp
 8048fd9:	8b 7d 08             	mov    0x8(%ebp),%edi
 8048fdc:	e8 6f d2 00 00       	call   8056250 <SDL_GetTicks>
 8048fe1:	89 fb                	mov    %edi,%ebx
 8048fe3:	0f b7 ff             	movzwl %di,%edi
 8048fe6:	8d 34 38             	lea    (%eax,%edi,1),%esi
 8048fe9:	e8 62 c1 01 00       	call   8065150 <PAL_ClearKeyState>
 8048fee:	66 90                	xchg   %ax,%ax
 8048ff0:	66 85 db             	test   %bx,%bx
 8048ff3:	74 09                	je     8048ffe <PAL_WaitForKey+0x2e>
 8048ff5:	e8 56 d2 00 00       	call   8056250 <SDL_GetTicks>
 8048ffa:	39 c6                	cmp    %eax,%esi
 8048ffc:	76 18                	jbe    8049016 <PAL_WaitForKey+0x46>
 8048ffe:	83 ec 0c             	sub    $0xc,%esp
 8049001:	6a 05                	push   $0x5
 8049003:	e8 a8 08 01 00       	call   80598b0 <UTIL_Delay>
 8049008:	8b 15 60 8b 09 08    	mov    0x8098b60,%edx
 804900e:	83 c4 10             	add    $0x10,%esp
 8049011:	83 e2 03             	and    $0x3,%edx
 8049014:	74 da                	je     8048ff0 <PAL_WaitForKey+0x20>
 8049016:	8d 65 f4             	lea    -0xc(%ebp),%esp
 8049019:	5b                   	pop    %ebx
 804901a:	5e                   	pop    %esi
 804901b:	5f                   	pop    %edi
 804901c:	5d                   	pop    %ebp
 804901d:	c3                   	ret    
 804901e:	66 90                	xchg   %ax,%ax

08049020 <PAL_PartyWalkTo>:
 8049020:	55                   	push   %ebp
 8049021:	8d 04 41             	lea    (%ecx,%eax,2),%eax
 8049024:	8d 14 51             	lea    (%ecx,%edx,2),%edx
 8049027:	89 e5                	mov    %esp,%ebp
 8049029:	57                   	push   %edi
 804902a:	56                   	push   %esi
 804902b:	53                   	push   %ebx
 804902c:	c1 e0 04             	shl    $0x4,%eax
 804902f:	83 ec 2c             	sub    $0x2c,%esp
 8049032:	8b 7d 08             	mov    0x8(%ebp),%edi
 8049035:	89 45 d4             	mov    %eax,-0x2c(%ebp)
 8049038:	89 7d dc             	mov    %edi,-0x24(%ebp)
 804903b:	89 c7                	mov    %eax,%edi
 804903d:	a1 08 72 09 08       	mov    0x8097208,%eax
 8049042:	8b 98 ec 43 00 00    	mov    0x43ec(%eax),%ebx
 8049048:	8b 80 f0 43 00 00    	mov    0x43f0(%eax),%eax
 804904e:	0f bf f3             	movswl %bx,%esi
 8049051:	c1 fb 10             	sar    $0x10,%ebx
 8049054:	29 f7                	sub    %esi,%edi
 8049056:	89 fe                	mov    %edi,%esi
 8049058:	0f bf f8             	movswl %ax,%edi
 804905b:	c1 f8 10             	sar    $0x10,%eax
 804905e:	29 fe                	sub    %edi,%esi
 8049060:	8d 3c d5 00 00 00 00 	lea    0x0(,%edx,8),%edi
 8049067:	89 75 e4             	mov    %esi,-0x1c(%ebp)
 804906a:	89 7d d0             	mov    %edi,-0x30(%ebp)
 804906d:	29 df                	sub    %ebx,%edi
 804906f:	89 fb                	mov    %edi,%ebx
 8049071:	29 c3                	sub    %eax,%ebx
 8049073:	09 de                	or     %ebx,%esi
 8049075:	0f 84 72 01 00 00    	je     80491ed <PAL_PartyWalkTo+0x1cd>
 804907b:	8b 45 dc             	mov    -0x24(%ebp),%eax
 804907e:	8d 3c 00             	lea    (%eax,%eax,1),%edi
 8049081:	f7 d8                	neg    %eax
 8049083:	01 c0                	add    %eax,%eax
 8049085:	89 7d d8             	mov    %edi,-0x28(%ebp)
 8049088:	89 45 cc             	mov    %eax,-0x34(%ebp)
 804908b:	31 ff                	xor    %edi,%edi
 804908d:	8d 76 00             	lea    0x0(%esi),%esi
 8049090:	e8 0b c1 01 00       	call   80651a0 <PAL_ProcessEvent>
 8049095:	eb 1b                	jmp    80490b2 <PAL_PartyWalkTo+0x92>
 8049097:	89 f6                	mov    %esi,%esi
 8049099:	8d bc 27 00 00 00 00 	lea    0x0(%edi,%eiz,1),%edi
 80490a0:	e8 fb c0 01 00       	call   80651a0 <PAL_ProcessEvent>
 80490a5:	83 ec 0c             	sub    $0xc,%esp
 80490a8:	6a 01                	push   $0x1
 80490aa:	e8 c1 d1 00 00       	call   8056270 <SDL_Delay>
 80490af:	83 c4 10             	add    $0x10,%esp
 80490b2:	e8 99 d1 00 00       	call   8056250 <SDL_GetTicks>
 80490b7:	39 f8                	cmp    %edi,%eax
 80490b9:	76 e5                	jbe    80490a0 <PAL_PartyWalkTo+0x80>
 80490bb:	e8 90 d1 00 00       	call   8056250 <SDL_GetTicks>
 80490c0:	8d 78 64             	lea    0x64(%eax),%edi
 80490c3:	a1 08 72 09 08       	mov    0x8097208,%eax
 80490c8:	8d 90 3c 44 00 00    	lea    0x443c(%eax),%edx
 80490ce:	8d 88 24 44 00 00    	lea    0x4424(%eax),%ecx
 80490d4:	8b 32                	mov    (%edx),%esi
 80490d6:	83 ea 06             	sub    $0x6,%edx
 80490d9:	89 72 0c             	mov    %esi,0xc(%edx)
 80490dc:	0f b7 72 0a          	movzwl 0xa(%edx),%esi
 80490e0:	66 89 72 10          	mov    %si,0x10(%edx)
 80490e4:	39 ca                	cmp    %ecx,%edx
 80490e6:	75 ec                	jne    80490d4 <PAL_PartyWalkTo+0xb4>
 80490e8:	0f b7 90 48 44 00 00 	movzwl 0x4448(%eax),%edx
 80490ef:	8b b0 ec 43 00 00    	mov    0x43ec(%eax),%esi
 80490f5:	66 89 90 2e 44 00 00 	mov    %dx,0x442e(%eax)
 80490fc:	8b 90 f0 43 00 00    	mov    0x43f0(%eax),%edx
 8049102:	8d 0c 32             	lea    (%edx,%esi,1),%ecx
 8049105:	c1 ea 10             	shr    $0x10,%edx
 8049108:	66 89 88 2a 44 00 00 	mov    %cx,0x442a(%eax)
 804910f:	89 f1                	mov    %esi,%ecx
 8049111:	c1 e9 10             	shr    $0x10,%ecx
 8049114:	01 ca                	add    %ecx,%edx
 8049116:	66 89 90 2c 44 00 00 	mov    %dx,0x442c(%eax)
 804911d:	8b 55 e4             	mov    -0x1c(%ebp),%edx
 8049120:	c1 fa 1f             	sar    $0x1f,%edx
 8049123:	85 db                	test   %ebx,%ebx
 8049125:	0f 88 ed 00 00 00    	js     8049218 <PAL_PartyWalkTo+0x1f8>
 804912b:	f7 d2                	not    %edx
 804912d:	83 e2 03             	and    $0x3,%edx
 8049130:	66 89 90 48 44 00 00 	mov    %dx,0x4448(%eax)
 8049137:	83 ec 0c             	sub    $0xc,%esp
 804913a:	ff 75 e4             	pushl  -0x1c(%ebp)
 804913d:	0f bf c1             	movswl %cx,%eax
 8049140:	89 45 e0             	mov    %eax,-0x20(%ebp)
 8049143:	0f bf f6             	movswl %si,%esi
 8049146:	e8 85 db 01 00       	call   8066cd0 <abs>
 804914b:	83 c4 10             	add    $0x10,%esp
 804914e:	3b 45 d8             	cmp    -0x28(%ebp),%eax
 8049151:	0f 8f a9 00 00 00    	jg     8049200 <PAL_PartyWalkTo+0x1e0>
 8049157:	03 75 e4             	add    -0x1c(%ebp),%esi
 804915a:	83 ec 0c             	sub    $0xc,%esp
 804915d:	53                   	push   %ebx
 804915e:	e8 6d db 01 00       	call   8066cd0 <abs>
 8049163:	83 c4 10             	add    $0x10,%esp
 8049166:	39 45 dc             	cmp    %eax,-0x24(%ebp)
 8049169:	7d 0a                	jge    8049175 <PAL_PartyWalkTo+0x155>
 804916b:	c1 fb 1f             	sar    $0x1f,%ebx
 804916e:	83 cb 01             	or     $0x1,%ebx
 8049171:	0f af 5d dc          	imul   -0x24(%ebp),%ebx
 8049175:	8b 4d e0             	mov    -0x20(%ebp),%ecx
 8049178:	a1 08 72 09 08       	mov    0x8097208,%eax
 804917d:	0f b7 f6             	movzwl %si,%esi
 8049180:	83 ec 0c             	sub    $0xc,%esp
 8049183:	01 d9                	add    %ebx,%ecx
 8049185:	c1 e1 10             	shl    $0x10,%ecx
 8049188:	09 ce                	or     %ecx,%esi
 804918a:	89 b0 ec 43 00 00    	mov    %esi,0x43ec(%eax)
 8049190:	6a 01                	push   $0x1
 8049192:	e8 39 ea 00 00       	call   8057bd0 <PAL_UpdatePartyGestures>
 8049197:	c7 04 24 00 00 00 00 	movl   $0x0,(%esp)
 804919e:	e8 3d f4 ff ff       	call   80485e0 <PAL_GameUpdate>
 80491a3:	e8 98 e5 00 00       	call   8057740 <PAL_MakeScene>
 80491a8:	c7 04 24 00 00 00 00 	movl   $0x0,(%esp)
 80491af:	e8 6c cd 01 00       	call   8065f20 <VIDEO_UpdateScreen>
 80491b4:	a1 08 72 09 08       	mov    0x8097208,%eax
 80491b9:	8b 75 d4             	mov    -0x2c(%ebp),%esi
 80491bc:	83 c4 10             	add    $0x10,%esp
 80491bf:	8b 5d d0             	mov    -0x30(%ebp),%ebx
 80491c2:	8b 90 ec 43 00 00    	mov    0x43ec(%eax),%edx
 80491c8:	8b 80 f0 43 00 00    	mov    0x43f0(%eax),%eax
 80491ce:	0f bf ca             	movswl %dx,%ecx
 80491d1:	c1 fa 10             	sar    $0x10,%edx
 80491d4:	29 ce                	sub    %ecx,%esi
 80491d6:	29 d3                	sub    %edx,%ebx
 80491d8:	0f bf c8             	movswl %ax,%ecx
 80491db:	c1 f8 10             	sar    $0x10,%eax
 80491de:	29 ce                	sub    %ecx,%esi
 80491e0:	29 c3                	sub    %eax,%ebx
 80491e2:	89 75 e4             	mov    %esi,-0x1c(%ebp)
 80491e5:	09 de                	or     %ebx,%esi
 80491e7:	0f 85 a3 fe ff ff    	jne    8049090 <PAL_PartyWalkTo+0x70>
 80491ed:	c7 45 08 00 00 00 00 	movl   $0x0,0x8(%ebp)
 80491f4:	8d 65 f4             	lea    -0xc(%ebp),%esp
 80491f7:	5b                   	pop    %ebx
 80491f8:	5e                   	pop    %esi
 80491f9:	5f                   	pop    %edi
 80491fa:	5d                   	pop    %ebp
 80491fb:	e9 d0 e9 00 00       	jmp    8057bd0 <PAL_UpdatePartyGestures>
 8049200:	8b 55 e4             	mov    -0x1c(%ebp),%edx
 8049203:	8b 45 cc             	mov    -0x34(%ebp),%eax
 8049206:	85 d2                	test   %edx,%edx
 8049208:	78 03                	js     804920d <PAL_PartyWalkTo+0x1ed>
 804920a:	8b 45 d8             	mov    -0x28(%ebp),%eax
 804920d:	01 c6                	add    %eax,%esi
 804920f:	e9 46 ff ff ff       	jmp    804915a <PAL_PartyWalkTo+0x13a>
 8049214:	8d 74 26 00          	lea    0x0(%esi,%eiz,1),%esi
 8049218:	83 c2 02             	add    $0x2,%edx
 804921b:	66 89 90 48 44 00 00 	mov    %dx,0x4448(%eax)
 8049222:	e9 10 ff ff ff       	jmp    8049137 <PAL_PartyWalkTo+0x117>
 8049227:	89 f6                	mov    %esi,%esi
 8049229:	8d bc 27 00 00 00 00 	lea    0x0(%edi,%eiz,1),%edi

08049230 <PAL_NPCWalkTo>:
 8049230:	55                   	push   %ebp
 8049231:	89 e5                	mov    %esp,%ebp
 8049233:	57                   	push   %edi
 8049234:	56                   	push   %esi
 8049235:	53                   	push   %ebx
 8049236:	89 c3                	mov    %eax,%ebx
 8049238:	89 c8                	mov    %ecx,%eax
 804923a:	0f b7 f3             	movzwl %bx,%esi
 804923d:	83 ec 2c             	sub    $0x2c,%esp
 8049240:	8b 7d 08             	mov    0x8(%ebp),%edi
 8049243:	8b 0d 08 72 09 08    	mov    0x8097208,%ecx
 8049249:	8d 9e ff ff ff 07    	lea    0x7ffffff(%esi),%ebx
 804924f:	89 75 d8             	mov    %esi,-0x28(%ebp)
 8049252:	c1 e3 05             	shl    $0x5,%ebx
 8049255:	8d 34 57             	lea    (%edi,%edx,2),%esi
 8049258:	03 59 20             	add    0x20(%ecx),%ebx
 804925b:	8d 3c 47             	lea    (%edi,%eax,2),%edi
 804925e:	89 f2                	mov    %esi,%edx
 8049260:	c1 e2 04             	shl    $0x4,%edx
 8049263:	8d 04 fd 00 00 00 00 	lea    0x0(,%edi,8),%eax
 804926a:	89 d1                	mov    %edx,%ecx
 804926c:	89 55 e4             	mov    %edx,-0x1c(%ebp)
 804926f:	0f b7 53 02          	movzwl 0x2(%ebx),%edx
 8049273:	89 45 e0             	mov    %eax,-0x20(%ebp)
 8049276:	29 d1                	sub    %edx,%ecx
 8049278:	89 c2                	mov    %eax,%edx
 804927a:	0f b7 43 04          	movzwl 0x4(%ebx),%eax
 804927e:	29 c2                	sub    %eax,%edx
 8049280:	89 c8                	mov    %ecx,%eax
 8049282:	89 55 dc             	mov    %edx,-0x24(%ebp)
 8049285:	0f 88 95 00 00 00    	js     8049320 <PAL_NPCWalkTo+0xf0>
 804928b:	c1 f8 1f             	sar    $0x1f,%eax
 804928e:	f7 d0                	not    %eax
 8049290:	83 e0 03             	and    $0x3,%eax
 8049293:	66 89 43 14          	mov    %ax,0x14(%ebx)
 8049297:	83 ec 0c             	sub    $0xc,%esp
 804929a:	51                   	push   %ecx
 804929b:	e8 30 da 01 00       	call   8066cd0 <abs>
 80492a0:	8b 4d 0c             	mov    0xc(%ebp),%ecx
 80492a3:	83 c4 10             	add    $0x10,%esp
 80492a6:	01 c9                	add    %ecx,%ecx
 80492a8:	39 c8                	cmp    %ecx,%eax
 80492aa:	7d 44                	jge    80492f0 <PAL_NPCWalkTo+0xc0>
 80492ac:	8d 14 fd 00 00 00 00 	lea    0x0(,%edi,8),%edx
 80492b3:	c1 e6 04             	shl    $0x4,%esi
 80492b6:	66 89 73 02          	mov    %si,0x2(%ebx)
 80492ba:	66 89 53 04          	mov    %dx,0x4(%ebx)
 80492be:	0f b7 f6             	movzwl %si,%esi
 80492c1:	31 c0                	xor    %eax,%eax
 80492c3:	39 75 e4             	cmp    %esi,-0x1c(%ebp)
 80492c6:	74 08                	je     80492d0 <PAL_NPCWalkTo+0xa0>
 80492c8:	8d 65 f4             	lea    -0xc(%ebp),%esp
 80492cb:	5b                   	pop    %ebx
 80492cc:	5e                   	pop    %esi
 80492cd:	5f                   	pop    %edi
 80492ce:	5d                   	pop    %ebp
 80492cf:	c3                   	ret    
 80492d0:	0f b7 53 04          	movzwl 0x4(%ebx),%edx
 80492d4:	39 55 e0             	cmp    %edx,-0x20(%ebp)
 80492d7:	75 ef                	jne    80492c8 <PAL_NPCWalkTo+0x98>
 80492d9:	31 d2                	xor    %edx,%edx
 80492db:	b0 01                	mov    $0x1,%al
 80492dd:	66 89 53 16          	mov    %dx,0x16(%ebx)
 80492e1:	8d 65 f4             	lea    -0xc(%ebp),%esp
 80492e4:	5b                   	pop    %ebx
 80492e5:	5e                   	pop    %esi
 80492e6:	5f                   	pop    %edi
 80492e7:	5d                   	pop    %ebp
 80492e8:	c3                   	ret    
 80492e9:	8d b4 26 00 00 00 00 	lea    0x0(%esi,%eiz,1),%esi
 80492f0:	83 ec 0c             	sub    $0xc,%esp
 80492f3:	ff 75 dc             	pushl  -0x24(%ebp)
 80492f6:	89 4d d4             	mov    %ecx,-0x2c(%ebp)
 80492f9:	e8 d2 d9 01 00       	call   8066cd0 <abs>
 80492fe:	8b 4d d4             	mov    -0x2c(%ebp),%ecx
 8049301:	83 c4 10             	add    $0x10,%esp
 8049304:	39 c1                	cmp    %eax,%ecx
 8049306:	7f a4                	jg     80492ac <PAL_NPCWalkTo+0x7c>
 8049308:	83 ec 08             	sub    $0x8,%esp
 804930b:	ff 75 0c             	pushl  0xc(%ebp)
 804930e:	ff 75 d8             	pushl  -0x28(%ebp)
 8049311:	e8 da ea 00 00       	call   8057df0 <PAL_NPCWalkOneStep>
 8049316:	0f b7 73 02          	movzwl 0x2(%ebx),%esi
 804931a:	83 c4 10             	add    $0x10,%esp
 804931d:	eb 9f                	jmp    80492be <PAL_NPCWalkTo+0x8e>
 804931f:	90                   	nop
 8049320:	c1 f8 1f             	sar    $0x1f,%eax
 8049323:	83 c0 02             	add    $0x2,%eax
 8049326:	66 89 43 14          	mov    %ax,0x14(%ebx)
 804932a:	e9 68 ff ff ff       	jmp    8049297 <PAL_NPCWalkTo+0x67>
 804932f:	90                   	nop

08049330 <PAL_PartyRideEventObject>:
 8049330:	55                   	push   %ebp
 8049331:	0f b7 c0             	movzwl %ax,%eax
 8049334:	05 ff ff ff 07       	add    $0x7ffffff,%eax
 8049339:	89 e5                	mov    %esp,%ebp
 804933b:	57                   	push   %edi
 804933c:	56                   	push   %esi
 804933d:	53                   	push   %ebx
 804933e:	c1 e0 05             	shl    $0x5,%eax
 8049341:	83 ec 3c             	sub    $0x3c,%esp
 8049344:	8b 1d 08 72 09 08    	mov    0x8097208,%ebx
 804934a:	8b 7d 08             	mov    0x8(%ebp),%edi
 804934d:	03 43 20             	add    0x20(%ebx),%eax
 8049350:	8d 0c 4f             	lea    (%edi,%ecx,2),%ecx
 8049353:	89 45 d0             	mov    %eax,-0x30(%ebp)
 8049356:	8d 04 57             	lea    (%edi,%edx,2),%eax
 8049359:	8b 93 ec 43 00 00    	mov    0x43ec(%ebx),%edx
 804935f:	8d 3c cd 00 00 00 00 	lea    0x0(,%ecx,8),%edi
 8049366:	c1 e0 04             	shl    $0x4,%eax
 8049369:	89 c6                	mov    %eax,%esi
 804936b:	89 45 cc             	mov    %eax,-0x34(%ebp)
 804936e:	8b 83 f0 43 00 00    	mov    0x43f0(%ebx),%eax
 8049374:	0f bf da             	movswl %dx,%ebx
 8049377:	c1 fa 10             	sar    $0x10,%edx
 804937a:	89 7d c8             	mov    %edi,-0x38(%ebp)
 804937d:	29 de                	sub    %ebx,%esi
 804937f:	29 d7                	sub    %edx,%edi
 8049381:	0f bf d8             	movswl %ax,%ebx
 8049384:	c1 f8 10             	sar    $0x10,%eax
 8049387:	29 de                	sub    %ebx,%esi
 8049389:	29 c7                	sub    %eax,%edi
 804938b:	89 f0                	mov    %esi,%eax
 804938d:	09 f8                	or     %edi,%eax
 804938f:	0f 84 90 01 00 00    	je     8049525 <PAL_PartyRideEventObject+0x1f5>
 8049395:	8b 45 0c             	mov    0xc(%ebp),%eax
 8049398:	31 db                	xor    %ebx,%ebx
 804939a:	01 c0                	add    %eax,%eax
 804939c:	89 45 d4             	mov    %eax,-0x2c(%ebp)
 804939f:	8b 45 0c             	mov    0xc(%ebp),%eax
 80493a2:	f7 d8                	neg    %eax
 80493a4:	01 c0                	add    %eax,%eax
 80493a6:	89 45 c4             	mov    %eax,-0x3c(%ebp)
 80493a9:	89 f8                	mov    %edi,%eax
 80493ab:	89 f7                	mov    %esi,%edi
 80493ad:	89 c6                	mov    %eax,%esi
 80493af:	90                   	nop
 80493b0:	e8 eb bd 01 00       	call   80651a0 <PAL_ProcessEvent>
 80493b5:	eb 1b                	jmp    80493d2 <PAL_PartyRideEventObject+0xa2>
 80493b7:	89 f6                	mov    %esi,%esi
 80493b9:	8d bc 27 00 00 00 00 	lea    0x0(%edi,%eiz,1),%edi
 80493c0:	e8 db bd 01 00       	call   80651a0 <PAL_ProcessEvent>
 80493c5:	83 ec 0c             	sub    $0xc,%esp
 80493c8:	6a 01                	push   $0x1
 80493ca:	e8 a1 ce 00 00       	call   8056270 <SDL_Delay>
 80493cf:	83 c4 10             	add    $0x10,%esp
 80493d2:	e8 79 ce 00 00       	call   8056250 <SDL_GetTicks>
 80493d7:	39 d8                	cmp    %ebx,%eax
 80493d9:	76 e5                	jbe    80493c0 <PAL_PartyRideEventObject+0x90>
 80493db:	e8 70 ce 00 00       	call   8056250 <SDL_GetTicks>
 80493e0:	8d 58 64             	lea    0x64(%eax),%ebx
 80493e3:	89 f8                	mov    %edi,%eax
 80493e5:	c1 f8 1f             	sar    $0x1f,%eax
 80493e8:	85 f6                	test   %esi,%esi
 80493ea:	0f 88 40 01 00 00    	js     8049530 <PAL_PartyRideEventObject+0x200>
 80493f0:	8b 15 08 72 09 08    	mov    0x8097208,%edx
 80493f6:	f7 d0                	not    %eax
 80493f8:	83 e0 03             	and    $0x3,%eax
 80493fb:	66 89 82 48 44 00 00 	mov    %ax,0x4448(%edx)
 8049402:	83 ec 0c             	sub    $0xc,%esp
 8049405:	57                   	push   %edi
 8049406:	e8 c5 d8 01 00       	call   8066cd0 <abs>
 804940b:	83 c4 10             	add    $0x10,%esp
 804940e:	3b 45 d4             	cmp    -0x2c(%ebp),%eax
 8049411:	7e 0b                	jle    804941e <PAL_PartyRideEventObject+0xee>
 8049413:	85 ff                	test   %edi,%edi
 8049415:	0f 88 2d 01 00 00    	js     8049548 <PAL_PartyRideEventObject+0x218>
 804941b:	8b 7d d4             	mov    -0x2c(%ebp),%edi
 804941e:	83 ec 0c             	sub    $0xc,%esp
 8049421:	56                   	push   %esi
 8049422:	e8 a9 d8 01 00       	call   8066cd0 <abs>
 8049427:	83 c4 10             	add    $0x10,%esp
 804942a:	39 45 0c             	cmp    %eax,0xc(%ebp)
 804942d:	7d 0e                	jge    804943d <PAL_PartyRideEventObject+0x10d>
 804942f:	89 f0                	mov    %esi,%eax
 8049431:	c1 f8 1f             	sar    $0x1f,%eax
 8049434:	83 c8 01             	or     $0x1,%eax
 8049437:	0f af 45 0c          	imul   0xc(%ebp),%eax
 804943b:	89 c6                	mov    %eax,%esi
 804943d:	a1 08 72 09 08       	mov    0x8097208,%eax
 8049442:	8d 90 3c 44 00 00    	lea    0x443c(%eax),%edx
 8049448:	8d 88 24 44 00 00    	lea    0x4424(%eax),%ecx
 804944e:	89 45 d8             	mov    %eax,-0x28(%ebp)
 8049451:	8b 02                	mov    (%edx),%eax
 8049453:	83 ea 06             	sub    $0x6,%edx
 8049456:	89 42 0c             	mov    %eax,0xc(%edx)
 8049459:	0f b7 42 0a          	movzwl 0xa(%edx),%eax
 804945d:	66 89 42 10          	mov    %ax,0x10(%edx)
 8049461:	39 ca                	cmp    %ecx,%edx
 8049463:	75 ec                	jne    8049451 <PAL_PartyRideEventObject+0x121>
 8049465:	8b 45 d8             	mov    -0x28(%ebp),%eax
 8049468:	89 f9                	mov    %edi,%ecx
 804946a:	83 ec 0c             	sub    $0xc,%esp
 804946d:	66 03 88 ec 43 00 00 	add    0x43ec(%eax),%cx
 8049474:	0f b7 90 48 44 00 00 	movzwl 0x4448(%eax),%edx
 804947b:	66 89 90 2e 44 00 00 	mov    %dx,0x442e(%eax)
 8049482:	89 ca                	mov    %ecx,%edx
 8049484:	66 03 90 f0 43 00 00 	add    0x43f0(%eax),%dx
 804948b:	0f b7 c9             	movzwl %cx,%ecx
 804948e:	66 89 90 2a 44 00 00 	mov    %dx,0x442a(%eax)
 8049495:	8b 90 ec 43 00 00    	mov    0x43ec(%eax),%edx
 804949b:	c1 ea 10             	shr    $0x10,%edx
 804949e:	01 f2                	add    %esi,%edx
 80494a0:	66 89 55 d8          	mov    %dx,-0x28(%ebp)
 80494a4:	8b 90 f0 43 00 00    	mov    0x43f0(%eax),%edx
 80494aa:	c1 ea 10             	shr    $0x10,%edx
 80494ad:	66 03 55 d8          	add    -0x28(%ebp),%dx
 80494b1:	66 89 90 2c 44 00 00 	mov    %dx,0x442c(%eax)
 80494b8:	8b 55 d8             	mov    -0x28(%ebp),%edx
 80494bb:	c1 e2 10             	shl    $0x10,%edx
 80494be:	09 ca                	or     %ecx,%edx
 80494c0:	89 90 ec 43 00 00    	mov    %edx,0x43ec(%eax)
 80494c6:	8b 45 d0             	mov    -0x30(%ebp),%eax
 80494c9:	66 01 78 02          	add    %di,0x2(%eax)
 80494cd:	66 01 70 04          	add    %si,0x4(%eax)
 80494d1:	6a 00                	push   $0x0
 80494d3:	e8 08 f1 ff ff       	call   80485e0 <PAL_GameUpdate>
 80494d8:	e8 63 e2 00 00       	call   8057740 <PAL_MakeScene>
 80494dd:	c7 04 24 00 00 00 00 	movl   $0x0,(%esp)
 80494e4:	e8 37 ca 01 00       	call   8065f20 <VIDEO_UpdateScreen>
 80494e9:	a1 08 72 09 08       	mov    0x8097208,%eax
 80494ee:	8b 75 cc             	mov    -0x34(%ebp),%esi
 80494f1:	83 c4 10             	add    $0x10,%esp
 80494f4:	8b 90 ec 43 00 00    	mov    0x43ec(%eax),%edx
 80494fa:	8b 80 f0 43 00 00    	mov    0x43f0(%eax),%eax
 8049500:	0f bf ca             	movswl %dx,%ecx
 8049503:	c1 fa 10             	sar    $0x10,%edx
 8049506:	29 ce                	sub    %ecx,%esi
 8049508:	0f bf c8             	movswl %ax,%ecx
 804950b:	c1 f8 10             	sar    $0x10,%eax
 804950e:	89 f7                	mov    %esi,%edi
 8049510:	29 cf                	sub    %ecx,%edi
 8049512:	8b 4d c8             	mov    -0x38(%ebp),%ecx
 8049515:	29 d1                	sub    %edx,%ecx
 8049517:	89 ce                	mov    %ecx,%esi
 8049519:	29 c6                	sub    %eax,%esi
 804951b:	89 f8                	mov    %edi,%eax
 804951d:	09 f0                	or     %esi,%eax
 804951f:	0f 85 8b fe ff ff    	jne    80493b0 <PAL_PartyRideEventObject+0x80>
 8049525:	8d 65 f4             	lea    -0xc(%ebp),%esp
 8049528:	5b                   	pop    %ebx
 8049529:	5e                   	pop    %esi
 804952a:	5f                   	pop    %edi
 804952b:	5d                   	pop    %ebp
 804952c:	c3                   	ret    
 804952d:	8d 76 00             	lea    0x0(%esi),%esi
 8049530:	8b 15 08 72 09 08    	mov    0x8097208,%edx
 8049536:	83 c0 02             	add    $0x2,%eax
 8049539:	66 89 82 48 44 00 00 	mov    %ax,0x4448(%edx)
 8049540:	e9 bd fe ff ff       	jmp    8049402 <PAL_PartyRideEventObject+0xd2>
 8049545:	8d 76 00             	lea    0x0(%esi),%esi
 8049548:	8b 7d c4             	mov    -0x3c(%ebp),%edi
 804954b:	e9 ce fe ff ff       	jmp    804941e <PAL_PartyRideEventObject+0xee>

08049550 <PAL_RunTriggerScript>:
 8049550:	55                   	push   %ebp
 8049551:	89 e5                	mov    %esp,%ebp
 8049553:	57                   	push   %edi
 8049554:	56                   	push   %esi
 8049555:	53                   	push   %ebx
 8049556:	83 ec 1c             	sub    $0x1c,%esp
 8049559:	8b 45 0c             	mov    0xc(%ebp),%eax
 804955c:	8b 75 08             	mov    0x8(%ebp),%esi
 804955f:	c7 05 c0 7b 09 08 00 	movl   $0x0,0x8097bc0
 8049566:	00 00 00 
 8049569:	66 83 f8 ff          	cmp    $0xffff,%ax
 804956d:	66 89 75 e6          	mov    %si,-0x1a(%ebp)
 8049571:	89 c3                	mov    %eax,%ebx
 8049573:	0f 84 39 05 00 00    	je     8049ab2 <PAL_RunTriggerScript+0x562>
 8049579:	66 85 db             	test   %bx,%bx
 804957c:	66 89 1d 00 10 09 08 	mov    %bx,0x8091000
 8049583:	c7 45 e0 00 00 00 00 	movl   $0x0,-0x20(%ebp)
 804958a:	74 17                	je     80495a3 <PAL_RunTriggerScript+0x53>
 804958c:	8b 15 08 72 09 08    	mov    0x8097208,%edx
 8049592:	0f b7 c3             	movzwl %bx,%eax
 8049595:	05 ff ff ff 07       	add    $0x7ffffff,%eax
 804959a:	c1 e0 05             	shl    $0x5,%eax
 804959d:	03 42 20             	add    0x20(%edx),%eax
 80495a0:	89 45 e0             	mov    %eax,-0x20(%ebp)
 80495a3:	83 ec 0c             	sub    $0xc,%esp
 80495a6:	c7 05 08 04 08 08 01 	movl   $0x1,0x8080408
 80495ad:	00 00 00 
 80495b0:	89 f7                	mov    %esi,%edi
 80495b2:	6a 03                	push   $0x3
 80495b4:	e8 f7 91 01 00       	call   80627b0 <PAL_DialogSetDelayTime>
 80495b9:	0f b7 cb             	movzwl %bx,%ecx
 80495bc:	83 c4 10             	add    $0x10,%esp
 80495bf:	31 c0                	xor    %eax,%eax
 80495c1:	89 4d dc             	mov    %ecx,-0x24(%ebp)
 80495c4:	8d 74 26 00          	lea    0x0(%esi,%eiz,1),%esi
 80495c8:	85 c0                	test   %eax,%eax
 80495ca:	0f 85 14 01 00 00    	jne    80496e4 <PAL_RunTriggerScript+0x194>
 80495d0:	66 85 ff             	test   %di,%di
 80495d3:	0f 84 0b 01 00 00    	je     80496e4 <PAL_RunTriggerScript+0x194>
 80495d9:	a1 08 72 09 08       	mov    0x8097208,%eax
 80495de:	0f b7 df             	movzwl %di,%ebx
 80495e1:	8b 80 a8 25 00 00    	mov    0x25a8(%eax),%eax
 80495e7:	8d 34 d8             	lea    (%eax,%ebx,8),%esi
 80495ea:	0f b7 16             	movzwl (%esi),%edx
 80495ed:	66 83 fa 08          	cmp    $0x8,%dx
 80495f1:	0f 84 60 01 00 00    	je     8049757 <PAL_RunTriggerScript+0x207>
 80495f7:	0f 87 83 00 00 00    	ja     8049680 <PAL_RunTriggerScript+0x130>
 80495fd:	66 83 fa 03          	cmp    $0x3,%dx
 8049601:	0f 84 d3 03 00 00    	je     80499da <PAL_RunTriggerScript+0x48a>
 8049607:	0f 86 cb 00 00 00    	jbe    80496d8 <PAL_RunTriggerScript+0x188>
 804960d:	66 83 fa 05          	cmp    $0x5,%dx
 8049611:	0f 84 57 03 00 00    	je     804996e <PAL_RunTriggerScript+0x41e>
 8049617:	0f 82 27 03 00 00    	jb     8049944 <PAL_RunTriggerScript+0x3f4>
 804961d:	66 83 fa 06          	cmp    $0x6,%dx
 8049621:	0f 84 35 02 00 00    	je     804985c <PAL_RunTriggerScript+0x30c>
 8049627:	66 83 fa 07          	cmp    $0x7,%dx
 804962b:	0f 85 0b 02 00 00    	jne    804983c <PAL_RunTriggerScript+0x2ec>
 8049631:	83 ec 08             	sub    $0x8,%esp
 8049634:	31 c0                	xor    %eax,%eax
 8049636:	66 83 7e 06 00       	cmpw   $0x0,0x6(%esi)
 804963b:	0f 94 c0             	sete   %al
 804963e:	50                   	push   %eax
 804963f:	0f b7 46 02          	movzwl 0x2(%esi),%eax
 8049643:	50                   	push   %eax
 8049644:	e8 57 5b 00 00       	call   804f1a0 <PAL_StartBattle>
 8049649:	83 c4 10             	add    $0x10,%esp
 804964c:	83 f8 01             	cmp    $0x1,%eax
 804964f:	0f 84 f5 03 00 00    	je     8049a4a <PAL_RunTriggerScript+0x4fa>
 8049655:	3d ff ff 00 00       	cmp    $0xffff,%eax
 804965a:	0f 84 fe 03 00 00    	je     8049a5e <PAL_RunTriggerScript+0x50e>
 8049660:	83 c7 01             	add    $0x1,%edi
 8049663:	a1 08 72 09 08       	mov    0x8097208,%eax
 8049668:	c7 80 dc 2a 00 00 00 	movl   $0x0,0x2adc(%eax)
 804966f:	00 00 00 
 8049672:	31 c0                	xor    %eax,%eax
 8049674:	85 c0                	test   %eax,%eax
 8049676:	0f 84 54 ff ff ff    	je     80495d0 <PAL_RunTriggerScript+0x80>
 804967c:	eb 66                	jmp    80496e4 <PAL_RunTriggerScript+0x194>
 804967e:	66 90                	xchg   %ax,%ax
 8049680:	66 83 fa 3c          	cmp    $0x3c,%dx
 8049684:	0f 84 2d 02 00 00    	je     80498b7 <PAL_RunTriggerScript+0x367>
 804968a:	76 74                	jbe    8049700 <PAL_RunTriggerScript+0x1b0>
 804968c:	66 83 fa 3e          	cmp    $0x3e,%dx
 8049690:	0f 84 87 02 00 00    	je     804991d <PAL_RunTriggerScript+0x3cd>
 8049696:	0f 82 4e 02 00 00    	jb     80498ea <PAL_RunTriggerScript+0x39a>
 804969c:	66 81 fa 8e 00       	cmp    $0x8e,%dx
 80496a1:	0f 84 61 03 00 00    	je     8049a08 <PAL_RunTriggerScript+0x4b8>
 80496a7:	66 83 fa ff          	cmp    $0xffff,%dx
 80496ab:	0f 85 8b 01 00 00    	jne    804983c <PAL_RunTriggerScript+0x2ec>
 80496b1:	0f b7 46 02          	movzwl 0x2(%esi),%eax
 80496b5:	83 ec 0c             	sub    $0xc,%esp
 80496b8:	83 c7 01             	add    $0x1,%edi
 80496bb:	50                   	push   %eax
 80496bc:	e8 cf 8e 01 00       	call   8062590 <PAL_GetMsg>
 80496c1:	89 04 24             	mov    %eax,(%esp)
 80496c4:	e8 b7 94 01 00       	call   8062b80 <PAL_ShowDialogText>
 80496c9:	83 c4 10             	add    $0x10,%esp
 80496cc:	31 c0                	xor    %eax,%eax
 80496ce:	e9 f5 fe ff ff       	jmp    80495c8 <PAL_RunTriggerScript+0x78>
 80496d3:	90                   	nop
 80496d4:	8d 74 26 00          	lea    0x0(%esi,%eiz,1),%esi
 80496d8:	66 83 fa 01          	cmp    $0x1,%dx
 80496dc:	74 68                	je     8049746 <PAL_RunTriggerScript+0x1f6>
 80496de:	0f 87 9a 01 00 00    	ja     804987e <PAL_RunTriggerScript+0x32e>
 80496e4:	e8 47 94 01 00       	call   8062b30 <PAL_EndDialog>
 80496e9:	0f b7 45 e6          	movzwl -0x1a(%ebp),%eax
 80496ed:	c7 05 04 04 08 08 ff 	movl   $0xffffffff,0x8080404
 80496f4:	ff ff ff 
 80496f7:	8d 65 f4             	lea    -0xc(%ebp),%esp
 80496fa:	5b                   	pop    %ebx
 80496fb:	5e                   	pop    %esi
 80496fc:	5f                   	pop    %edi
 80496fd:	5d                   	pop    %ebp
 80496fe:	c3                   	ret    
 80496ff:	90                   	nop
 8049700:	66 83 fa 0a          	cmp    $0xa,%dx
 8049704:	0f 84 13 01 00 00    	je     804981d <PAL_RunTriggerScript+0x2cd>
 804970a:	72 59                	jb     8049765 <PAL_RunTriggerScript+0x215>
 804970c:	66 83 fa 3b          	cmp    $0x3b,%dx
 8049710:	0f 85 26 01 00 00    	jne    804983c <PAL_RunTriggerScript+0x2ec>
 8049716:	83 ec 0c             	sub    $0xc,%esp
 8049719:	6a 01                	push   $0x1
 804971b:	e8 b0 93 01 00       	call   8062ad0 <PAL_ClearDialog>
 8049720:	31 c0                	xor    %eax,%eax
 8049722:	66 83 7e 06 00       	cmpw   $0x0,0x6(%esi)
 8049727:	0f 95 c0             	setne  %al
 804972a:	83 c7 01             	add    $0x1,%edi
 804972d:	50                   	push   %eax
 804972e:	0f b6 46 02          	movzbl 0x2(%esi),%eax
 8049732:	6a 00                	push   $0x0
 8049734:	50                   	push   %eax
 8049735:	6a 01                	push   $0x1
 8049737:	e8 84 90 01 00       	call   80627c0 <PAL_StartDialog>
 804973c:	83 c4 20             	add    $0x20,%esp
 804973f:	31 c0                	xor    %eax,%eax
 8049741:	e9 82 fe ff ff       	jmp    80495c8 <PAL_RunTriggerScript+0x78>
 8049746:	8d 47 01             	lea    0x1(%edi),%eax
 8049749:	66 89 45 e6          	mov    %ax,-0x1a(%ebp)
 804974d:	b8 01 00 00 00       	mov    $0x1,%eax
 8049752:	e9 71 fe ff ff       	jmp    80495c8 <PAL_RunTriggerScript+0x78>
 8049757:	83 c7 01             	add    $0x1,%edi
 804975a:	31 c0                	xor    %eax,%eax
 804975c:	66 89 7d e6          	mov    %di,-0x1a(%ebp)
 8049760:	e9 63 fe ff ff       	jmp    80495c8 <PAL_RunTriggerScript+0x78>
 8049765:	83 ec 0c             	sub    $0xc,%esp
 8049768:	6a 01                	push   $0x1
 804976a:	e8 61 93 01 00       	call   8062ad0 <PAL_ClearDialog>
 804976f:	e8 dc ca 00 00       	call   8056250 <SDL_GetTicks>
 8049774:	8d 58 64             	lea    0x64(%eax),%ebx
 8049777:	31 c0                	xor    %eax,%eax
 8049779:	66 89 7d e4          	mov    %di,-0x1c(%ebp)
 804977d:	83 c4 10             	add    $0x10,%esp
 8049780:	89 c7                	mov    %eax,%edi
 8049782:	8d b6 00 00 00 00    	lea    0x0(%esi),%esi
 8049788:	0f b7 56 02          	movzwl 0x2(%esi),%edx
 804978c:	b8 01 00 00 00       	mov    $0x1,%eax
 8049791:	66 85 d2             	test   %dx,%dx
 8049794:	74 03                	je     8049799 <PAL_RunTriggerScript+0x249>
 8049796:	0f b7 c2             	movzwl %dx,%eax
 8049799:	39 c7                	cmp    %eax,%edi
 804979b:	7d 72                	jge    804980f <PAL_RunTriggerScript+0x2bf>
 804979d:	e8 fe b9 01 00       	call   80651a0 <PAL_ProcessEvent>
 80497a2:	eb 16                	jmp    80497ba <PAL_RunTriggerScript+0x26a>
 80497a4:	8d 74 26 00          	lea    0x0(%esi,%eiz,1),%esi
 80497a8:	e8 f3 b9 01 00       	call   80651a0 <PAL_ProcessEvent>
 80497ad:	83 ec 0c             	sub    $0xc,%esp
 80497b0:	6a 01                	push   $0x1
 80497b2:	e8 b9 ca 00 00       	call   8056270 <SDL_Delay>
 80497b7:	83 c4 10             	add    $0x10,%esp
 80497ba:	e8 91 ca 00 00       	call   8056250 <SDL_GetTicks>
 80497bf:	39 c3                	cmp    %eax,%ebx
 80497c1:	77 e5                	ja     80497a8 <PAL_RunTriggerScript+0x258>
 80497c3:	e8 88 ca 00 00       	call   8056250 <SDL_GetTicks>
 80497c8:	66 83 7e 06 00       	cmpw   $0x0,0x6(%esi)
 80497cd:	8d 58 64             	lea    0x64(%eax),%ebx
 80497d0:	75 2e                	jne    8049800 <PAL_RunTriggerScript+0x2b0>
 80497d2:	83 ec 0c             	sub    $0xc,%esp
 80497d5:	31 c0                	xor    %eax,%eax
 80497d7:	66 83 7e 04 00       	cmpw   $0x0,0x4(%esi)
 80497dc:	0f 95 c0             	setne  %al
 80497df:	83 c7 01             	add    $0x1,%edi
 80497e2:	50                   	push   %eax
 80497e3:	e8 f8 ed ff ff       	call   80485e0 <PAL_GameUpdate>
 80497e8:	e8 53 df 00 00       	call   8057740 <PAL_MakeScene>
 80497ed:	c7 04 24 00 00 00 00 	movl   $0x0,(%esp)
 80497f4:	e8 27 c7 01 00       	call   8065f20 <VIDEO_UpdateScreen>
 80497f9:	83 c4 10             	add    $0x10,%esp
 80497fc:	eb 8a                	jmp    8049788 <PAL_RunTriggerScript+0x238>
 80497fe:	66 90                	xchg   %ax,%ax
 8049800:	83 ec 0c             	sub    $0xc,%esp
 8049803:	6a 00                	push   $0x0
 8049805:	e8 c6 e3 00 00       	call   8057bd0 <PAL_UpdatePartyGestures>
 804980a:	83 c4 10             	add    $0x10,%esp
 804980d:	eb c3                	jmp    80497d2 <PAL_RunTriggerScript+0x282>
 804980f:	0f b7 7d e4          	movzwl -0x1c(%ebp),%edi
 8049813:	83 c7 01             	add    $0x1,%edi
 8049816:	31 c0                	xor    %eax,%eax
 8049818:	e9 ab fd ff ff       	jmp    80495c8 <PAL_RunTriggerScript+0x78>
 804981d:	83 ec 0c             	sub    $0xc,%esp
 8049820:	6a 00                	push   $0x0
 8049822:	e8 a9 92 01 00       	call   8062ad0 <PAL_ClearDialog>
 8049827:	e8 34 5e 01 00       	call   805f660 <PAL_ConfirmMenu>
 804982c:	83 c4 10             	add    $0x10,%esp
 804982f:	85 c0                	test   %eax,%eax
 8049831:	75 e0                	jne    8049813 <PAL_RunTriggerScript+0x2c3>
 8049833:	0f b7 7e 02          	movzwl 0x2(%esi),%edi
 8049837:	e9 8c fd ff ff       	jmp    80495c8 <PAL_RunTriggerScript+0x78>
 804983c:	83 ec 0c             	sub    $0xc,%esp
 804983f:	6a 01                	push   $0x1
 8049841:	e8 8a 92 01 00       	call   8062ad0 <PAL_ClearDialog>
 8049846:	8b 55 dc             	mov    -0x24(%ebp),%edx
 8049849:	89 d8                	mov    %ebx,%eax
 804984b:	e8 70 02 00 00       	call   8049ac0 <PAL_InterpretInstruction>
 8049850:	83 c4 10             	add    $0x10,%esp
 8049853:	89 c7                	mov    %eax,%edi
 8049855:	31 c0                	xor    %eax,%eax
 8049857:	e9 6c fd ff ff       	jmp    80495c8 <PAL_RunTriggerScript+0x78>
 804985c:	83 ec 08             	sub    $0x8,%esp
 804985f:	6a 64                	push   $0x64
 8049861:	6a 01                	push   $0x1
 8049863:	e8 d8 ff 00 00       	call   8059840 <RandomLong>
 8049868:	0f b7 56 02          	movzwl 0x2(%esi),%edx
 804986c:	83 c4 10             	add    $0x10,%esp
 804986f:	39 d0                	cmp    %edx,%eax
 8049871:	7c a0                	jl     8049813 <PAL_RunTriggerScript+0x2c3>
 8049873:	0f b7 7e 04          	movzwl 0x4(%esi),%edi
 8049877:	31 c0                	xor    %eax,%eax
 8049879:	e9 4a fd ff ff       	jmp    80495c8 <PAL_RunTriggerScript+0x78>
 804987e:	0f b7 46 04          	movzwl 0x4(%esi),%eax
 8049882:	66 85 c0             	test   %ax,%ax
 8049885:	74 1e                	je     80498a5 <PAL_RunTriggerScript+0x355>
 8049887:	8b 4d e0             	mov    -0x20(%ebp),%ecx
 804988a:	0f b7 49 18          	movzwl 0x18(%ecx),%ecx
 804988e:	8d 51 01             	lea    0x1(%ecx),%edx
 8049891:	66 89 4d e4          	mov    %cx,-0x1c(%ebp)
 8049895:	66 39 d0             	cmp    %dx,%ax
 8049898:	8b 45 e0             	mov    -0x20(%ebp),%eax
 804989b:	0f 86 8f 01 00 00    	jbe    8049a30 <PAL_RunTriggerScript+0x4e0>
 80498a1:	66 89 50 18          	mov    %dx,0x18(%eax)
 80498a5:	0f b7 46 02          	movzwl 0x2(%esi),%eax
 80498a9:	66 89 45 e6          	mov    %ax,-0x1a(%ebp)
 80498ad:	b8 01 00 00 00       	mov    $0x1,%eax
 80498b2:	e9 11 fd ff ff       	jmp    80495c8 <PAL_RunTriggerScript+0x78>
 80498b7:	83 ec 0c             	sub    $0xc,%esp
 80498ba:	6a 01                	push   $0x1
 80498bc:	e8 0f 92 01 00       	call   8062ad0 <PAL_ClearDialog>
 80498c1:	31 c0                	xor    %eax,%eax
 80498c3:	66 83 7e 06 00       	cmpw   $0x0,0x6(%esi)
 80498c8:	0f 95 c0             	setne  %al
 80498cb:	83 c7 01             	add    $0x1,%edi
 80498ce:	50                   	push   %eax
 80498cf:	0f b7 46 02          	movzwl 0x2(%esi),%eax
 80498d3:	50                   	push   %eax
 80498d4:	0f b6 46 04          	movzbl 0x4(%esi),%eax
 80498d8:	50                   	push   %eax
 80498d9:	6a 00                	push   $0x0
 80498db:	e8 e0 8e 01 00       	call   80627c0 <PAL_StartDialog>
 80498e0:	83 c4 20             	add    $0x20,%esp
 80498e3:	31 c0                	xor    %eax,%eax
 80498e5:	e9 de fc ff ff       	jmp    80495c8 <PAL_RunTriggerScript+0x78>
 80498ea:	83 ec 0c             	sub    $0xc,%esp
 80498ed:	6a 01                	push   $0x1
 80498ef:	e8 dc 91 01 00       	call   8062ad0 <PAL_ClearDialog>
 80498f4:	31 c0                	xor    %eax,%eax
 80498f6:	66 83 7e 06 00       	cmpw   $0x0,0x6(%esi)
 80498fb:	0f 95 c0             	setne  %al
 80498fe:	83 c7 01             	add    $0x1,%edi
 8049901:	50                   	push   %eax
 8049902:	0f b7 46 02          	movzwl 0x2(%esi),%eax
 8049906:	50                   	push   %eax
 8049907:	0f b6 46 04          	movzbl 0x4(%esi),%eax
 804990b:	50                   	push   %eax
 804990c:	6a 02                	push   $0x2
 804990e:	e8 ad 8e 01 00       	call   80627c0 <PAL_StartDialog>
 8049913:	83 c4 20             	add    $0x20,%esp
 8049916:	31 c0                	xor    %eax,%eax
 8049918:	e9 ab fc ff ff       	jmp    80495c8 <PAL_RunTriggerScript+0x78>
 804991d:	83 ec 0c             	sub    $0xc,%esp
 8049920:	83 c7 01             	add    $0x1,%edi
 8049923:	6a 01                	push   $0x1
 8049925:	e8 a6 91 01 00       	call   8062ad0 <PAL_ClearDialog>
 804992a:	0f b6 46 02          	movzbl 0x2(%esi),%eax
 804992e:	6a 00                	push   $0x0
 8049930:	6a 00                	push   $0x0
 8049932:	50                   	push   %eax
 8049933:	6a 03                	push   $0x3
 8049935:	e8 86 8e 01 00       	call   80627c0 <PAL_StartDialog>
 804993a:	83 c4 20             	add    $0x20,%esp
 804993d:	31 c0                	xor    %eax,%eax
 804993f:	e9 84 fc ff ff       	jmp    80495c8 <PAL_RunTriggerScript+0x78>
 8049944:	0f b7 56 04          	movzwl 0x4(%esi),%edx
 8049948:	8b 45 dc             	mov    -0x24(%ebp),%eax
 804994b:	66 85 d2             	test   %dx,%dx
 804994e:	74 03                	je     8049953 <PAL_RunTriggerScript+0x403>
 8049950:	0f b7 c2             	movzwl %dx,%eax
 8049953:	83 ec 08             	sub    $0x8,%esp
 8049956:	83 c7 01             	add    $0x1,%edi
 8049959:	50                   	push   %eax
 804995a:	0f b7 46 02          	movzwl 0x2(%esi),%eax
 804995e:	50                   	push   %eax
 804995f:	e8 ec fb ff ff       	call   8049550 <PAL_RunTriggerScript>
 8049964:	83 c4 10             	add    $0x10,%esp
 8049967:	31 c0                	xor    %eax,%eax
 8049969:	e9 5a fc ff ff       	jmp    80495c8 <PAL_RunTriggerScript+0x78>
 804996e:	83 ec 0c             	sub    $0xc,%esp
 8049971:	6a 01                	push   $0x1
 8049973:	e8 58 91 01 00       	call   8062ad0 <PAL_ClearDialog>
 8049978:	e8 e3 96 01 00       	call   8063060 <PAL_DialogIsPlayingRNG>
 804997d:	83 c4 10             	add    $0x10,%esp
 8049980:	85 c0                	test   %eax,%eax
 8049982:	0f 85 b8 00 00 00    	jne    8049a40 <PAL_RunTriggerScript+0x4f0>
 8049988:	a1 08 72 09 08       	mov    0x8097208,%eax
 804998d:	8b 80 d8 2a 00 00    	mov    0x2ad8(%eax),%eax
 8049993:	85 c0                	test   %eax,%eax
 8049995:	0f 85 d7 00 00 00    	jne    8049a72 <PAL_RunTriggerScript+0x522>
 804999b:	66 83 7e 06 00       	cmpw   $0x0,0x6(%esi)
 80499a0:	0f 85 fa 00 00 00    	jne    8049aa0 <PAL_RunTriggerScript+0x550>
 80499a6:	e8 95 dd 00 00       	call   8057740 <PAL_MakeScene>
 80499ab:	83 ec 0c             	sub    $0xc,%esp
 80499ae:	6a 00                	push   $0x0
 80499b0:	e8 6b c5 01 00       	call   8065f20 <VIDEO_UpdateScreen>
 80499b5:	0f b7 46 04          	movzwl 0x4(%esi),%eax
 80499b9:	83 c4 10             	add    $0x10,%esp
 80499bc:	ba 3c 00 00 00       	mov    $0x3c,%edx
 80499c1:	66 85 c0             	test   %ax,%ax
 80499c4:	74 03                	je     80499c9 <PAL_RunTriggerScript+0x479>
 80499c6:	6b d0 3c             	imul   $0x3c,%eax,%edx
 80499c9:	83 ec 0c             	sub    $0xc,%esp
 80499cc:	52                   	push   %edx
 80499cd:	e8 de fe 00 00       	call   80598b0 <UTIL_Delay>
 80499d2:	83 c4 10             	add    $0x10,%esp
 80499d5:	e9 39 fe ff ff       	jmp    8049813 <PAL_RunTriggerScript+0x2c3>
 80499da:	0f b7 46 04          	movzwl 0x4(%esi),%eax
 80499de:	66 85 c0             	test   %ax,%ax
 80499e1:	74 1a                	je     80499fd <PAL_RunTriggerScript+0x4ad>
 80499e3:	8b 4d e0             	mov    -0x20(%ebp),%ecx
 80499e6:	0f b7 49 18          	movzwl 0x18(%ecx),%ecx
 80499ea:	8d 51 01             	lea    0x1(%ecx),%edx
 80499ed:	66 89 4d e4          	mov    %cx,-0x1c(%ebp)
 80499f1:	66 39 d0             	cmp    %dx,%ax
 80499f4:	8b 45 e0             	mov    -0x20(%ebp),%eax
 80499f7:	76 37                	jbe    8049a30 <PAL_RunTriggerScript+0x4e0>
 80499f9:	66 89 50 18          	mov    %dx,0x18(%eax)
 80499fd:	0f b7 7e 02          	movzwl 0x2(%esi),%edi
 8049a01:	31 c0                	xor    %eax,%eax
 8049a03:	e9 c0 fb ff ff       	jmp    80495c8 <PAL_RunTriggerScript+0x78>
 8049a08:	83 ec 0c             	sub    $0xc,%esp
 8049a0b:	83 c7 01             	add    $0x1,%edi
 8049a0e:	6a 01                	push   $0x1
 8049a10:	e8 bb 90 01 00       	call   8062ad0 <PAL_ClearDialog>
 8049a15:	e8 16 ca 01 00       	call   8066430 <VIDEO_RestoreScreen>
 8049a1a:	c7 04 24 00 00 00 00 	movl   $0x0,(%esp)
 8049a21:	e8 fa c4 01 00       	call   8065f20 <VIDEO_UpdateScreen>
 8049a26:	83 c4 10             	add    $0x10,%esp
 8049a29:	31 c0                	xor    %eax,%eax
 8049a2b:	e9 98 fb ff ff       	jmp    80495c8 <PAL_RunTriggerScript+0x78>
 8049a30:	31 d2                	xor    %edx,%edx
 8049a32:	83 c7 01             	add    $0x1,%edi
 8049a35:	66 89 50 18          	mov    %dx,0x18(%eax)
 8049a39:	31 c0                	xor    %eax,%eax
 8049a3b:	e9 88 fb ff ff       	jmp    80495c8 <PAL_RunTriggerScript+0x78>
 8049a40:	e8 eb c9 01 00       	call   8066430 <VIDEO_RestoreScreen>
 8049a45:	e9 c9 fd ff ff       	jmp    8049813 <PAL_RunTriggerScript+0x2c3>
 8049a4a:	0f b7 46 04          	movzwl 0x4(%esi),%eax
 8049a4e:	66 85 c0             	test   %ax,%ax
 8049a51:	0f 84 09 fc ff ff    	je     8049660 <PAL_RunTriggerScript+0x110>
 8049a57:	89 c7                	mov    %eax,%edi
 8049a59:	e9 05 fc ff ff       	jmp    8049663 <PAL_RunTriggerScript+0x113>
 8049a5e:	0f b7 46 06          	movzwl 0x6(%esi),%eax
 8049a62:	66 85 c0             	test   %ax,%ax
 8049a65:	0f 84 f5 fb ff ff    	je     8049660 <PAL_RunTriggerScript+0x110>
 8049a6b:	89 c7                	mov    %eax,%edi
 8049a6d:	e9 f1 fb ff ff       	jmp    8049663 <PAL_RunTriggerScript+0x113>
 8049a72:	e8 49 4c 00 00       	call   804e6c0 <PAL_BattleMakeScene>
 8049a77:	6a 00                	push   $0x0
 8049a79:	ff 35 c8 82 09 08    	pushl  0x80982c8
 8049a7f:	6a 00                	push   $0x0
 8049a81:	ff 35 f4 87 09 08    	pushl  0x80987f4
 8049a87:	e8 24 c9 00 00       	call   80563b0 <SDL_BlitSurface>
 8049a8c:	c7 04 24 00 00 00 00 	movl   $0x0,(%esp)
 8049a93:	e8 88 c4 01 00       	call   8065f20 <VIDEO_UpdateScreen>
 8049a98:	83 c4 10             	add    $0x10,%esp
 8049a9b:	e9 73 fd ff ff       	jmp    8049813 <PAL_RunTriggerScript+0x2c3>
 8049aa0:	83 ec 0c             	sub    $0xc,%esp
 8049aa3:	6a 00                	push   $0x0
 8049aa5:	e8 26 e1 00 00       	call   8057bd0 <PAL_UpdatePartyGestures>
 8049aaa:	83 c4 10             	add    $0x10,%esp
 8049aad:	e9 f4 fe ff ff       	jmp    80499a6 <PAL_RunTriggerScript+0x456>
 8049ab2:	0f b7 1d 00 10 09 08 	movzwl 0x8091000,%ebx
 8049ab9:	e9 bb fa ff ff       	jmp    8049579 <PAL_RunTriggerScript+0x29>
 8049abe:	66 90                	xchg   %ax,%ax

08049ac0 <PAL_InterpretInstruction>:
 8049ac0:	55                   	push   %ebp
 8049ac1:	89 e5                	mov    %esp,%ebp
 8049ac3:	57                   	push   %edi
 8049ac4:	56                   	push   %esi
 8049ac5:	53                   	push   %ebx
 8049ac6:	81 ec 4c 01 00 00    	sub    $0x14c,%esp
 8049acc:	8b 35 08 72 09 08    	mov    0x8097208,%esi
 8049ad2:	89 85 c8 fe ff ff    	mov    %eax,-0x138(%ebp)
 8049ad8:	66 89 85 de fe ff ff 	mov    %ax,-0x122(%ebp)
 8049adf:	0f b7 c0             	movzwl %ax,%eax
 8049ae2:	66 85 d2             	test   %dx,%dx
 8049ae5:	89 c7                	mov    %eax,%edi
 8049ae7:	89 85 ac fe ff ff    	mov    %eax,-0x154(%ebp)
 8049aed:	66 89 95 b0 fe ff ff 	mov    %dx,-0x150(%ebp)
 8049af4:	8b 86 a8 25 00 00    	mov    0x25a8(%esi),%eax
 8049afa:	89 b5 cc fe ff ff    	mov    %esi,-0x134(%ebp)
 8049b00:	c7 85 d8 fe ff ff 00 	movl   $0x0,-0x128(%ebp)
 8049b07:	00 00 00 
 8049b0a:	8d 3c f8             	lea    (%eax,%edi,8),%edi
 8049b0d:	74 15                	je     8049b24 <PAL_InterpretInstruction+0x64>
 8049b0f:	0f b7 da             	movzwl %dx,%ebx
 8049b12:	8d 83 ff ff ff 07    	lea    0x7ffffff(%ebx),%eax
 8049b18:	c1 e0 05             	shl    $0x5,%eax
 8049b1b:	03 46 20             	add    0x20(%esi),%eax
 8049b1e:	89 85 d8 fe ff ff    	mov    %eax,-0x128(%ebp)
 8049b24:	0f b7 5f 02          	movzwl 0x2(%edi),%ebx
 8049b28:	8d 43 ff             	lea    -0x1(%ebx),%eax
 8049b2b:	66 83 f8 fd          	cmp    $0xfffd,%ax
 8049b2f:	66 89 85 d0 fe ff ff 	mov    %ax,-0x130(%ebp)
 8049b36:	0f 87 34 02 00 00    	ja     8049d70 <PAL_InterpretInstruction+0x2b0>
 8049b3c:	0f b7 cb             	movzwl %bx,%ecx
 8049b3f:	8d 41 ff             	lea    -0x1(%ecx),%eax
 8049b42:	3d 00 90 00 00       	cmp    $0x9000,%eax
 8049b47:	0f 8f 43 02 00 00    	jg     8049d90 <PAL_InterpretInstruction+0x2d0>
 8049b4d:	c1 e0 05             	shl    $0x5,%eax
 8049b50:	03 46 20             	add    0x20(%esi),%eax
 8049b53:	66 89 9d b8 fe ff ff 	mov    %bx,-0x148(%ebp)
 8049b5a:	89 85 d4 fe ff ff    	mov    %eax,-0x12c(%ebp)
 8049b60:	66 83 fb 04          	cmp    $0x4,%bx
 8049b64:	0f 87 ee 01 00 00    	ja     8049d58 <PAL_InterpretInstruction+0x298>
 8049b6a:	0f b7 c3             	movzwl %bx,%eax
 8049b6d:	8d 04 80             	lea    (%eax,%eax,4),%eax
 8049b70:	0f b7 84 46 f8 43 00 	movzwl 0x43f8(%esi,%eax,2),%eax
 8049b77:	00 
 8049b78:	89 85 b4 fe ff ff    	mov    %eax,-0x14c(%ebp)
 8049b7e:	0f b7 07             	movzwl (%edi),%eax
 8049b81:	8d 48 f5             	lea    -0xb(%eax),%ecx
 8049b84:	66 81 f9 9b 00       	cmp    $0x9b,%cx
 8049b89:	0f 87 8e 22 00 00    	ja     804be1d <PAL_InterpretInstruction+0x235d>
 8049b8f:	0f b7 c9             	movzwl %cx,%ecx
 8049b92:	ff 24 8d bc 84 07 08 	jmp    *0x80784bc(,%ecx,4)
 8049b99:	0f b7 4f 04          	movzwl 0x4(%edi),%ecx
 8049b9d:	0f b7 c3             	movzwl %bx,%eax
 8049ba0:	89 c3                	mov    %eax,%ebx
 8049ba2:	89 85 d4 fe ff ff    	mov    %eax,-0x12c(%ebp)
 8049ba8:	85 db                	test   %ebx,%ebx
 8049baa:	89 c8                	mov    %ecx,%eax
 8049bac:	75 0a                	jne    8049bb8 <PAL_InterpretInstruction+0xf8>
 8049bae:	c7 85 d4 fe ff ff 08 	movl   $0x8,-0x12c(%ebp)
 8049bb5:	00 00 00 
 8049bb8:	bb 04 00 00 00       	mov    $0x4,%ebx
 8049bbd:	85 c9                	test   %ecx,%ecx
 8049bbf:	66 89 9d d0 fe ff ff 	mov    %bx,-0x130(%ebp)
 8049bc6:	74 07                	je     8049bcf <PAL_InterpretInstruction+0x10f>
 8049bc8:	66 89 85 d0 fe ff ff 	mov    %ax,-0x130(%ebp)
 8049bcf:	0f b7 47 06          	movzwl 0x6(%edi),%eax
 8049bd3:	66 83 be 60 44 00 00 	cmpw   $0x0,0x4460(%esi)
 8049bda:	00 
 8049bdb:	0f b7 da             	movzwl %dx,%ebx
 8049bde:	66 89 85 cc fe ff ff 	mov    %ax,-0x134(%ebp)
 8049be5:	8b 46 20             	mov    0x20(%esi),%eax
 8049be8:	0f 84 2d 25 00 00    	je     804c11b <PAL_InterpretInstruction+0x265b>
 8049bee:	8d bb ff ff ff 07    	lea    0x7ffffff(%ebx),%edi
 8049bf4:	8b 8e ec 43 00 00    	mov    0x43ec(%esi),%ecx
 8049bfa:	c1 e7 05             	shl    $0x5,%edi
 8049bfd:	01 c7                	add    %eax,%edi
 8049bff:	8b 86 f0 43 00 00    	mov    0x43f0(%esi),%eax
 8049c05:	0f bf f1             	movswl %cx,%esi
 8049c08:	c1 f9 10             	sar    $0x10,%ecx
 8049c0b:	0f bf d0             	movswl %ax,%edx
 8049c0e:	c1 f8 10             	sar    $0x10,%eax
 8049c11:	01 c8                	add    %ecx,%eax
 8049c13:	0f b7 4f 04          	movzwl 0x4(%edi),%ecx
 8049c17:	01 d6                	add    %edx,%esi
 8049c19:	0f b7 57 02          	movzwl 0x2(%edi),%edx
 8049c1d:	89 b5 d8 fe ff ff    	mov    %esi,-0x128(%ebp)
 8049c23:	29 c8                	sub    %ecx,%eax
 8049c25:	89 c6                	mov    %eax,%esi
 8049c27:	8b 85 d8 fe ff ff    	mov    -0x128(%ebp),%eax
 8049c2d:	29 d0                	sub    %edx,%eax
 8049c2f:	89 85 d8 fe ff ff    	mov    %eax,-0x128(%ebp)
 8049c35:	0f 84 3f 2b 00 00    	je     804c77a <PAL_InterpretInstruction+0x2cba>
 8049c3b:	85 f6                	test   %esi,%esi
 8049c3d:	0f 84 5c 2b 00 00    	je     804c79f <PAL_InterpretInstruction+0x2cdf>
 8049c43:	0f b7 4f 02          	movzwl 0x2(%edi),%ecx
 8049c47:	0f b7 47 04          	movzwl 0x4(%edi),%eax
 8049c4b:	c7 85 b0 fe ff ff 00 	movl   $0x0,-0x150(%ebp)
 8049c52:	00 00 00 
 8049c55:	89 ca                	mov    %ecx,%edx
 8049c57:	66 c1 e9 05          	shr    $0x5,%cx
 8049c5b:	66 89 8d b8 fe ff ff 	mov    %cx,-0x148(%ebp)
 8049c62:	89 c1                	mov    %eax,%ecx
 8049c64:	83 e0 0f             	and    $0xf,%eax
 8049c67:	66 c1 e9 04          	shr    $0x4,%cx
 8049c6b:	83 e2 1f             	and    $0x1f,%edx
 8049c6e:	01 c0                	add    %eax,%eax
 8049c70:	66 89 8d b4 fe ff ff 	mov    %cx,-0x14c(%ebp)
 8049c77:	8d 0c 02             	lea    (%edx,%eax,1),%ecx
 8049c7a:	83 f9 0f             	cmp    $0xf,%ecx
 8049c7d:	7e 19                	jle    8049c98 <PAL_InterpretInstruction+0x1d8>
 8049c7f:	83 f9 2f             	cmp    $0x2f,%ecx
 8049c82:	0f 8e 36 2b 00 00    	jle    804c7be <PAL_InterpretInstruction+0x2cfe>
 8049c88:	66 83 85 b8 fe ff ff 	addw   $0x1,-0x148(%ebp)
 8049c8f:	01 
 8049c90:	66 83 85 b4 fe ff ff 	addw   $0x1,-0x14c(%ebp)
 8049c97:	01 
 8049c98:	83 ec 0c             	sub    $0xc,%esp
 8049c9b:	ff b5 d8 fe ff ff    	pushl  -0x128(%ebp)
 8049ca1:	e8 2a d0 01 00       	call   8066cd0 <abs>
 8049ca6:	89 34 24             	mov    %esi,(%esp)
 8049ca9:	89 85 c8 fe ff ff    	mov    %eax,-0x138(%ebp)
 8049caf:	e8 1c d0 01 00       	call   8066cd0 <abs>
 8049cb4:	8b 95 c8 fe ff ff    	mov    -0x138(%ebp),%edx
 8049cba:	8b 8d d4 fe ff ff    	mov    -0x12c(%ebp),%ecx
 8049cc0:	83 c4 10             	add    $0x10,%esp
 8049cc3:	8d 14 42             	lea    (%edx,%eax,2),%edx
 8049cc6:	a1 08 72 09 08       	mov    0x8097208,%eax
 8049ccb:	c1 e1 05             	shl    $0x5,%ecx
 8049cce:	0f b7 80 60 44 00 00 	movzwl 0x4460(%eax),%eax
 8049cd5:	0f af c1             	imul   %ecx,%eax
 8049cd8:	39 c2                	cmp    %eax,%edx
 8049cda:	0f 8d 3b 24 00 00    	jge    804c11b <PAL_InterpretInstruction+0x265b>
 8049ce0:	8b 95 d8 fe ff ff    	mov    -0x128(%ebp),%edx
 8049ce6:	89 f0                	mov    %esi,%eax
 8049ce8:	85 d2                	test   %edx,%edx
 8049cea:	0f 88 10 2f 00 00    	js     804cc00 <PAL_InterpretInstruction+0x3140>
 8049cf0:	c1 f8 1f             	sar    $0x1f,%eax
 8049cf3:	83 c0 03             	add    $0x3,%eax
 8049cf6:	66 89 47 14          	mov    %ax,0x14(%edi)
 8049cfa:	8b 85 d8 fe ff ff    	mov    -0x128(%ebp),%eax
 8049d00:	85 c0                	test   %eax,%eax
 8049d02:	0f 85 ff 2e 00 00    	jne    804cc07 <PAL_InterpretInstruction+0x3147>
 8049d08:	0f b7 47 02          	movzwl 0x2(%edi),%eax
 8049d0c:	89 85 c8 fe ff ff    	mov    %eax,-0x138(%ebp)
 8049d12:	85 f6                	test   %esi,%esi
 8049d14:	0f b7 47 04          	movzwl 0x4(%edi),%eax
 8049d18:	0f 85 bb 2e 00 00    	jne    804cbd9 <PAL_InterpretInstruction+0x3119>
 8049d1e:	66 83 bd cc fe ff ff 	cmpw   $0x0,-0x134(%ebp)
 8049d25:	00 
 8049d26:	0f 84 dd 2b 00 00    	je     804c909 <PAL_InterpretInstruction+0x2e49>
 8049d2c:	0f b7 85 d0 fe ff ff 	movzwl -0x130(%ebp),%eax
 8049d33:	83 ec 08             	sub    $0x8,%esp
 8049d36:	50                   	push   %eax
 8049d37:	53                   	push   %ebx
 8049d38:	e8 b3 e0 00 00       	call   8057df0 <PAL_NPCWalkOneStep>
 8049d3d:	83 c4 10             	add    $0x10,%esp
 8049d40:	0f b7 85 de fe ff ff 	movzwl -0x122(%ebp),%eax
 8049d47:	83 c0 01             	add    $0x1,%eax
 8049d4a:	8d 65 f4             	lea    -0xc(%ebp),%esp
 8049d4d:	5b                   	pop    %ebx
 8049d4e:	5e                   	pop    %esi
 8049d4f:	5f                   	pop    %edi
 8049d50:	5d                   	pop    %ebp
 8049d51:	c3                   	ret    
 8049d52:	8d b6 00 00 00 00    	lea    0x0(%esi),%esi
 8049d58:	0f b7 86 f8 43 00 00 	movzwl 0x43f8(%esi),%eax
 8049d5f:	89 85 b4 fe ff ff    	mov    %eax,-0x14c(%ebp)
 8049d65:	e9 14 fe ff ff       	jmp    8049b7e <PAL_InterpretInstruction+0xbe>
 8049d6a:	8d b6 00 00 00 00    	lea    0x0(%esi),%esi
 8049d70:	8b 85 d8 fe ff ff    	mov    -0x128(%ebp),%eax
 8049d76:	66 89 95 b8 fe ff ff 	mov    %dx,-0x148(%ebp)
 8049d7d:	89 85 d4 fe ff ff    	mov    %eax,-0x12c(%ebp)
 8049d83:	e9 d8 fd ff ff       	jmp    8049b60 <PAL_InterpretInstruction+0xa0>
 8049d88:	90                   	nop
 8049d89:	8d b4 26 00 00 00 00 	lea    0x0(%esi,%eiz,1),%esi
 8049d90:	8d 81 ff 6f ff ff    	lea    -0x9001(%ecx),%eax
 8049d96:	e9 b2 fd ff ff       	jmp    8049b4d <PAL_InterpretInstruction+0x8d>
 8049d9b:	e8 70 c6 01 00       	call   8066410 <VIDEO_BackupScreen>
 8049da0:	eb 9e                	jmp    8049d40 <PAL_InterpretInstruction+0x280>
 8049da2:	0f b7 57 04          	movzwl 0x4(%edi),%edx
 8049da6:	0f b7 c3             	movzwl %bx,%eax
 8049da9:	66 83 fa ff          	cmp    $0xffff,%dx
 8049dad:	74 10                	je     8049dbf <PAL_InterpretInstruction+0x2ff>
 8049daf:	83 ec 0c             	sub    $0xc,%esp
 8049db2:	52                   	push   %edx
 8049db3:	e8 e8 01 01 00       	call   8059fa0 <PAL_EndingSetEffectSprite>
 8049db8:	0f b7 47 02          	movzwl 0x2(%edi),%eax
 8049dbc:	83 c4 10             	add    $0x10,%esp
 8049dbf:	0f b7 57 06          	movzwl 0x6(%edi),%edx
 8049dc3:	83 ec 08             	sub    $0x8,%esp
 8049dc6:	52                   	push   %edx
 8049dc7:	50                   	push   %eax
 8049dc8:	e8 e3 01 01 00       	call   8059fb0 <PAL_ShowFBP>
 8049dcd:	83 c4 10             	add    $0x10,%esp
 8049dd0:	e9 6b ff ff ff       	jmp    8049d40 <PAL_InterpretInstruction+0x280>
 8049dd5:	66 83 fb 44          	cmp    $0x44,%bx
 8049dd9:	0f 84 1b 29 00 00    	je     804c6fa <PAL_InterpretInstruction+0x2c3a>
 8049ddf:	0f b7 47 04          	movzwl 0x4(%edi),%eax
 8049de3:	83 ec 04             	sub    $0x4,%esp
 8049de6:	50                   	push   %eax
 8049de7:	0f b7 47 06          	movzwl 0x6(%edi),%eax
 8049deb:	50                   	push   %eax
 8049dec:	0f b7 c3             	movzwl %bx,%eax
 8049def:	50                   	push   %eax
 8049df0:	e8 ab 04 01 00       	call   805a2a0 <PAL_ScrollFBP>
 8049df5:	83 c4 10             	add    $0x10,%esp
 8049df8:	e9 43 ff ff ff       	jmp    8049d40 <PAL_InterpretInstruction+0x280>
 8049dfd:	83 ec 0c             	sub    $0xc,%esp
 8049e00:	0f b7 c3             	movzwl %bx,%eax
 8049e03:	50                   	push   %eax
 8049e04:	e8 77 cf 00 00       	call   8056d80 <SOUND_PlayCDA>
 8049e09:	83 c4 10             	add    $0x10,%esp
 8049e0c:	85 c0                	test   %eax,%eax
 8049e0e:	0f 85 2c ff ff ff    	jne    8049d40 <PAL_InterpretInstruction+0x280>
 8049e14:	0f b7 47 04          	movzwl 0x4(%edi),%eax
 8049e18:	83 ec 04             	sub    $0x4,%esp
 8049e1b:	6a 00                	push   $0x0
 8049e1d:	6a 01                	push   $0x1
 8049e1f:	50                   	push   %eax
 8049e20:	e8 4b cf 00 00       	call   8056d70 <PAL_PlayMUS>
 8049e25:	83 c4 10             	add    $0x10,%esp
 8049e28:	e9 13 ff ff ff       	jmp    8049d40 <PAL_InterpretInstruction+0x280>
 8049e2d:	0f b7 8e fa 43 00 00 	movzwl 0x43fa(%esi),%ecx
 8049e34:	8b 96 ec 43 00 00    	mov    0x43ec(%esi),%edx
 8049e3a:	8d 86 2e 44 00 00    	lea    0x442e(%esi),%eax
 8049e40:	0f b7 be 48 44 00 00 	movzwl 0x4448(%esi),%edi
 8049e47:	89 85 d8 fe ff ff    	mov    %eax,-0x128(%ebp)
 8049e4d:	8d 86 4c 44 00 00    	lea    0x444c(%esi),%eax
 8049e53:	8d 1c 11             	lea    (%ecx,%edx,1),%ebx
 8049e56:	c1 ea 10             	shr    $0x10,%edx
 8049e59:	66 03 96 fc 43 00 00 	add    0x43fc(%esi),%dx
 8049e60:	89 85 d4 fe ff ff    	mov    %eax,-0x12c(%ebp)
 8049e66:	8b 85 d8 fe ff ff    	mov    -0x128(%ebp),%eax
 8049e6c:	66 89 8d d8 fe ff ff 	mov    %cx,-0x128(%ebp)
 8049e73:	8b 8d d4 fe ff ff    	mov    -0x12c(%ebp),%ecx
 8049e79:	66 89 38             	mov    %di,(%eax)
 8049e7c:	66 89 58 fc          	mov    %bx,-0x4(%eax)
 8049e80:	83 c0 06             	add    $0x6,%eax
 8049e83:	66 89 50 f8          	mov    %dx,-0x8(%eax)
 8049e87:	39 c8                	cmp    %ecx,%eax
 8049e89:	75 ee                	jne    8049e79 <PAL_InterpretInstruction+0x3b9>
 8049e8b:	0f b7 96 f6 43 00 00 	movzwl 0x43f6(%esi),%edx
 8049e92:	0f b7 8d d8 fe ff ff 	movzwl -0x128(%ebp),%ecx
 8049e99:	66 85 d2             	test   %dx,%dx
 8049e9c:	74 39                	je     8049ed7 <PAL_InterpretInstruction+0x417>
 8049e9e:	8d 14 92             	lea    (%edx,%edx,4),%edx
 8049ea1:	8d 86 04 44 00 00    	lea    0x4404(%esi),%eax
 8049ea7:	8d 9c 12 04 44 00 00 	lea    0x4404(%edx,%edx,1),%ebx
 8049eae:	01 f3                	add    %esi,%ebx
 8049eb0:	eb 0d                	jmp    8049ebf <PAL_InterpretInstruction+0x3ff>
 8049eb2:	8d b6 00 00 00 00    	lea    0x0(%esi),%esi
 8049eb8:	0f b7 8e fa 43 00 00 	movzwl 0x43fa(%esi),%ecx
 8049ebf:	66 89 08             	mov    %cx,(%eax)
 8049ec2:	0f b7 8e fc 43 00 00 	movzwl 0x43fc(%esi),%ecx
 8049ec9:	83 c0 0a             	add    $0xa,%eax
 8049ecc:	8d 51 ff             	lea    -0x1(%ecx),%edx
 8049ecf:	66 89 50 f8          	mov    %dx,-0x8(%eax)
 8049ed3:	39 d8                	cmp    %ebx,%eax
 8049ed5:	75 e1                	jne    8049eb8 <PAL_InterpretInstruction+0x3f8>
 8049ed7:	83 ec 0c             	sub    $0xc,%esp
 8049eda:	6a 00                	push   $0x0
 8049edc:	e8 ef dc 00 00       	call   8057bd0 <PAL_UpdatePartyGestures>
 8049ee1:	83 c4 10             	add    $0x10,%esp
 8049ee4:	e9 57 fe ff ff       	jmp    8049d40 <PAL_InterpretInstruction+0x280>
 8049ee9:	c7 85 e8 fe ff ff b0 	movl   $0x80783b0,-0x118(%ebp)
 8049ef0:	83 07 08 
 8049ef3:	c7 85 ec fe ff ff 8c 	movl   $0x807838c,-0x114(%ebp)
 8049efa:	83 07 08 
 8049efd:	be 8c 83 07 08       	mov    $0x807838c,%esi
 8049f02:	c7 85 f0 fe ff ff 7e 	movl   $0x807847e,-0x110(%ebp)
 8049f09:	84 07 08 
 8049f0c:	c7 85 f4 fe ff ff 80 	movl   $0x8078480,-0x10c(%ebp)
 8049f13:	84 07 08 
 8049f16:	31 db                	xor    %ebx,%ebx
 8049f18:	c7 85 f8 fe ff ff d8 	movl   $0x80783d8,-0x108(%ebp)
 8049f1f:	83 07 08 
 8049f22:	c7 85 fc fe ff ff 7e 	movl   $0x807847e,-0x104(%ebp)
 8049f29:	84 07 08 
 8049f2c:	c7 85 00 ff ff ff fc 	movl   $0x80783fc,-0x100(%ebp)
 8049f33:	83 07 08 
 8049f36:	c7 85 04 ff ff ff 9d 	movl   $0x807849d,-0xfc(%ebp)
 8049f3d:	84 07 08 
 8049f40:	c7 85 08 ff ff ff 7e 	movl   $0x807847e,-0xf8(%ebp)
 8049f47:	84 07 08 
 8049f4a:	c7 85 0c ff ff ff 20 	movl   $0x8078420,-0xf4(%ebp)
 8049f51:	84 07 08 
 8049f54:	c7 85 10 ff ff ff 84 	movl   $0x8079184,-0xf0(%ebp)
 8049f5b:	91 07 08 
 8049f5e:	e8 4d 54 01 00       	call   805f3b0 <PAL_DrawOpeningMenuBackground>
 8049f63:	ba b0 83 07 08       	mov    $0x80783b0,%edx
 8049f68:	eb 0f                	jmp    8049f79 <PAL_InterpretInstruction+0x4b9>
 8049f6a:	8d b6 00 00 00 00    	lea    0x0(%esi),%esi
 8049f70:	89 f2                	mov    %esi,%edx
 8049f72:	8b b4 9d ec fe ff ff 	mov    -0x114(%ebp,%ebx,4),%esi
 8049f79:	89 d8                	mov    %ebx,%eax
 8049f7b:	83 ec 0c             	sub    $0xc,%esp
 8049f7e:	83 c3 01             	add    $0x1,%ebx
 8049f81:	c1 e0 14             	shl    $0x14,%eax
 8049f84:	6a 00                	push   $0x0
 8049f86:	6a 01                	push   $0x1
 8049f88:	05 00 00 14 00       	add    $0x140000,%eax
 8049f8d:	6a 2e                	push   $0x2e
 8049f8f:	83 c8 19             	or     $0x19,%eax
 8049f92:	50                   	push   %eax
 8049f93:	52                   	push   %edx
 8049f94:	e8 97 86 01 00       	call   8062630 <PAL_DrawText>
 8049f99:	83 c4 20             	add    $0x20,%esp
 8049f9c:	80 3e 00             	cmpb   $0x0,(%esi)
 8049f9f:	75 cf                	jne    8049f70 <PAL_InterpretInstruction+0x4b0>
 8049fa1:	83 ec 08             	sub    $0x8,%esp
 8049fa4:	6a 00                	push   $0x0
 8049fa6:	6a 00                	push   $0x0
 8049fa8:	e8 43 b3 01 00       	call   80652f0 <PAL_SetPalette>
 8049fad:	c7 04 24 00 00 00 00 	movl   $0x0,(%esp)
 8049fb4:	e8 67 bf 01 00       	call   8065f20 <VIDEO_UpdateScreen>
 8049fb9:	c7 04 24 00 00 00 00 	movl   $0x0,(%esp)
 8049fc0:	e8 0b f0 ff ff       	call   8048fd0 <PAL_WaitForKey>
 8049fc5:	e8 56 e3 00 00       	call   8058320 <PAL_Shutdown>
 8049fca:	c7 04 24 00 00 00 00 	movl   $0x0,(%esp)
 8049fd1:	e8 5a ce 01 00       	call   8066e30 <exit>
 8049fd6:	0f b7 c3             	movzwl %bx,%eax
 8049fd9:	83 ec 08             	sub    $0x8,%esp
 8049fdc:	83 e8 01             	sub    $0x1,%eax
 8049fdf:	50                   	push   %eax
 8049fe0:	6a 00                	push   $0x0
 8049fe2:	e8 59 f8 00 00       	call   8059840 <RandomLong>
 8049fe7:	66 03 85 c8 fe ff ff 	add    -0x138(%ebp),%ax
 8049fee:	83 c4 10             	add    $0x10,%esp
 8049ff1:	66 89 85 de fe ff ff 	mov    %ax,-0x122(%ebp)
 8049ff8:	e9 43 fd ff ff       	jmp    8049d40 <PAL_InterpretInstruction+0x280>
 8049ffd:	a1 4c 8b 09 08       	mov    0x8098b4c,%eax
 804a002:	85 c0                	test   %eax,%eax
 804a004:	0f 8f 36 fd ff ff    	jg     8049d40 <PAL_InterpretInstruction+0x280>
 804a00a:	0f b7 c2             	movzwl %dx,%eax
 804a00d:	69 c0 cc 00 00 00    	imul   $0xcc,%eax,%eax
 804a013:	66 83 b8 40 84 09 08 	cmpw   $0x0,0x8098440(%eax)
 804a01a:	00 
 804a01b:	0f 85 1f fd ff ff    	jne    8049d40 <PAL_InterpretInstruction+0x280>
 804a021:	66 83 b8 3c 84 09 08 	cmpw   $0x0,0x809843c(%eax)
 804a028:	00 
 804a029:	0f 85 11 fd ff ff    	jne    8049d40 <PAL_InterpretInstruction+0x280>
 804a02f:	0f b7 88 0c 84 09 08 	movzwl 0x809840c(%eax),%ecx
 804a036:	8d b8 f6 83 09 08    	lea    0x80983f6(%eax),%edi
 804a03c:	66 89 98 f4 83 09 08 	mov    %bx,0x80983f4(%eax)
 804a043:	66 89 8d d8 fe ff ff 	mov    %cx,-0x128(%ebp)
 804a04a:	0f b7 cb             	movzwl %bx,%ecx
 804a04d:	31 db                	xor    %ebx,%ebx
 804a04f:	6b c9 0c             	imul   $0xc,%ecx,%ecx
 804a052:	0f b7 8c 0e 88 09 00 	movzwl 0x988(%esi,%ecx,1),%ecx
 804a059:	00 
 804a05a:	6b c9 46             	imul   $0x46,%ecx,%ecx
 804a05d:	03 8e b8 25 00 00    	add    0x25b8(%esi),%ecx
 804a063:	89 ce                	mov    %ecx,%esi
 804a065:	b9 46 00 00 00       	mov    $0x46,%ecx
 804a06a:	f3 a4                	rep movsb %ds:(%esi),%es:(%edi)
 804a06c:	0f b7 8d d8 fe ff ff 	movzwl -0x128(%ebp),%ecx
 804a073:	8d b0 70 01 00 00    	lea    0x170(%eax),%esi
 804a079:	66 c7 80 a0 84 09 08 	movw   $0x0,0x80984a0(%eax)
 804a080:	00 00 
 804a082:	66 89 88 0c 84 09 08 	mov    %cx,0x809840c(%eax)
 804a089:	83 ec 04             	sub    $0x4,%esp
 804a08c:	89 9e 4c 83 09 08    	mov    %ebx,0x809834c(%esi)
 804a092:	83 c3 01             	add    $0x1,%ebx
 804a095:	6a 00                	push   $0x0
 804a097:	6a 00                	push   $0x0
 804a099:	6a 01                	push   $0x1
 804a09b:	e8 20 60 00 00       	call   80500c0 <PAL_BattleDelay>
 804a0a0:	83 c4 10             	add    $0x10,%esp
 804a0a3:	83 fb 06             	cmp    $0x6,%ebx
 804a0a6:	75 e1                	jne    804a089 <PAL_InterpretInstruction+0x5c9>
 804a0a8:	c7 86 4c 83 09 08 00 	movl   $0x0,0x809834c(%esi)
 804a0af:	00 00 00 
 804a0b2:	e8 99 4a 00 00       	call   804eb50 <PAL_BattleBackupScene>
 804a0b7:	e8 34 4c 00 00       	call   804ecf0 <PAL_LoadBattleSprites>
 804a0bc:	e8 ff 45 00 00       	call   804e6c0 <PAL_BattleMakeScene>
 804a0c1:	e8 aa 4a 00 00       	call   804eb70 <PAL_BattleFadeScene>
 804a0c6:	e9 75 fc ff ff       	jmp    8049d40 <PAL_InterpretInstruction+0x280>
 804a0cb:	90                   	nop
 804a0cc:	8d 74 26 00          	lea    0x0(%esi,%eiz,1),%esi
 804a0d0:	0f bf 47 04          	movswl 0x4(%edi),%eax
 804a0d4:	66 85 c0             	test   %ax,%ax
 804a0d7:	0f 8e 60 26 00 00    	jle    804c73d <PAL_InterpretInstruction+0x2c7d>
 804a0dd:	66 83 bd d0 fe ff ff 	cmpw   $0xfffd,-0x130(%ebp)
 804a0e4:	fd 
 804a0e5:	89 85 d8 fe ff ff    	mov    %eax,-0x128(%ebp)
 804a0eb:	76 10                	jbe    804a0fd <PAL_InterpretInstruction+0x63d>
 804a0ed:	0f b7 c2             	movzwl %dx,%eax
 804a0f0:	69 c0 cc 00 00 00    	imul   $0xcc,%eax,%eax
 804a0f6:	0f b7 98 f4 83 09 08 	movzwl 0x80983f4(%eax),%ebx
 804a0fd:	0f b7 35 f0 87 09 08 	movzwl 0x80987f0,%esi
 804a104:	89 95 d0 fe ff ff    	mov    %edx,-0x130(%ebp)
 804a10a:	31 c9                	xor    %ecx,%ecx
 804a10c:	c7 85 cc fe ff ff 40 	movl   $0x8098340,-0x134(%ebp)
 804a113:	83 09 08 
 804a116:	8d 46 01             	lea    0x1(%esi),%eax
 804a119:	69 c0 cc 00 00 00    	imul   $0xcc,%eax,%eax
 804a11f:	05 40 83 09 08       	add    $0x8098340,%eax
 804a124:	89 85 d4 fe ff ff    	mov    %eax,-0x12c(%ebp)
 804a12a:	8b 95 d4 fe ff ff    	mov    -0x12c(%ebp),%edx
 804a130:	b8 40 83 09 08       	mov    $0x8098340,%eax
 804a135:	8d 76 00             	lea    0x0(%esi),%esi
 804a138:	66 83 b8 b4 00 00 00 	cmpw   $0x1,0xb4(%eax)
 804a13f:	01 
 804a140:	83 d1 00             	adc    $0x0,%ecx
 804a143:	05 cc 00 00 00       	add    $0xcc,%eax
 804a148:	39 d0                	cmp    %edx,%eax
 804a14a:	75 ec                	jne    804a138 <PAL_InterpretInstruction+0x678>
 804a14c:	39 8d d8 fe ff ff    	cmp    %ecx,-0x128(%ebp)
 804a152:	8b 95 d0 fe ff ff    	mov    -0x130(%ebp),%edx
 804a158:	7f 0d                	jg     804a167 <PAL_InterpretInstruction+0x6a7>
 804a15a:	a1 4c 8b 09 08       	mov    0x8098b4c,%eax
 804a15f:	85 c0                	test   %eax,%eax
 804a161:	0f 8e be 28 00 00    	jle    804ca25 <PAL_InterpretInstruction+0x2f65>
 804a167:	0f b7 47 06          	movzwl 0x6(%edi),%eax
 804a16b:	66 85 c0             	test   %ax,%ax
 804a16e:	0f 84 cc fb ff ff    	je     8049d40 <PAL_InterpretInstruction+0x280>
 804a174:	83 e8 01             	sub    $0x1,%eax
 804a177:	66 89 85 de fe ff ff 	mov    %ax,-0x122(%ebp)
 804a17e:	e9 bd fb ff ff       	jmp    8049d40 <PAL_InterpretInstruction+0x280>
 804a183:	0f b7 35 f0 87 09 08 	movzwl 0x80987f0,%esi
 804a18a:	b8 40 83 09 08       	mov    $0x8098340,%eax
 804a18f:	31 d2                	xor    %edx,%edx
 804a191:	8d 4e 01             	lea    0x1(%esi),%ecx
 804a194:	69 c9 cc 00 00 00    	imul   $0xcc,%ecx,%ecx
 804a19a:	81 c1 40 83 09 08    	add    $0x8098340,%ecx
 804a1a0:	66 83 b8 b4 00 00 00 	cmpw   $0x1,0xb4(%eax)
 804a1a7:	01 
 804a1a8:	66 83 da ff          	sbb    $0xffff,%dx
 804a1ac:	05 cc 00 00 00       	add    $0xcc,%eax
 804a1b1:	39 c8                	cmp    %ecx,%eax
 804a1b3:	75 eb                	jne    804a1a0 <PAL_InterpretInstruction+0x6e0>
 804a1b5:	66 83 fa 01          	cmp    $0x1,%dx
 804a1b9:	0f 84 45 23 00 00    	je     804c504 <PAL_InterpretInstruction+0x2a44>
 804a1bf:	0f b7 47 04          	movzwl 0x4(%edi),%eax
 804a1c3:	66 85 c0             	test   %ax,%ax
 804a1c6:	0f 84 74 fb ff ff    	je     8049d40 <PAL_InterpretInstruction+0x280>
 804a1cc:	83 e8 01             	sub    $0x1,%eax
 804a1cf:	66 89 85 de fe ff ff 	mov    %ax,-0x122(%ebp)
 804a1d6:	e9 65 fb ff ff       	jmp    8049d40 <PAL_InterpretInstruction+0x280>
 804a1db:	e8 30 c2 01 00       	call   8066410 <VIDEO_BackupScreen>
 804a1e0:	e8 5b d5 00 00       	call   8057740 <PAL_MakeScene>
 804a1e5:	83 ec 0c             	sub    $0xc,%esp
 804a1e8:	6a 02                	push   $0x2
 804a1ea:	e8 71 c3 01 00       	call   8066560 <VIDEO_FadeScreen>
 804a1ef:	83 c4 10             	add    $0x10,%esp
 804a1f2:	e9 49 fb ff ff       	jmp    8049d40 <PAL_InterpretInstruction+0x280>
 804a1f7:	0f b7 57 04          	movzwl 0x4(%edi),%edx
 804a1fb:	0f b7 c3             	movzwl %bx,%eax
 804a1fe:	39 d0                	cmp    %edx,%eax
 804a200:	0f 8f 3a fb ff ff    	jg     8049d40 <PAL_InterpretInstruction+0x280>
 804a206:	8b 4e 20             	mov    0x20(%esi),%ecx
 804a209:	0f b7 5f 06          	movzwl 0x6(%edi),%ebx
 804a20d:	c1 e0 05             	shl    $0x5,%eax
 804a210:	c1 e2 05             	shl    $0x5,%edx
 804a213:	8d 44 01 ec          	lea    -0x14(%ecx,%eax,1),%eax
 804a217:	8d 54 11 0c          	lea    0xc(%ecx,%edx,1),%edx
 804a21b:	90                   	nop
 804a21c:	8d 74 26 00          	lea    0x0(%esi,%eiz,1),%esi
 804a220:	66 89 18             	mov    %bx,(%eax)
 804a223:	83 c0 20             	add    $0x20,%eax
 804a226:	39 d0                	cmp    %edx,%eax
 804a228:	75 f6                	jne    804a220 <PAL_InterpretInstruction+0x760>
 804a22a:	e9 11 fb ff ff       	jmp    8049d40 <PAL_InterpretInstruction+0x280>
 804a22f:	66 83 fb ff          	cmp    $0xffff,%bx
 804a233:	0f 84 31 29 00 00    	je     804cb6a <PAL_InterpretInstruction+0x30aa>
 804a239:	0f b7 57 04          	movzwl 0x4(%edi),%edx
 804a23d:	0f b7 c3             	movzwl %bx,%eax
 804a240:	66 89 54 c6 20       	mov    %dx,0x20(%esi,%eax,8)
 804a245:	e9 f6 fa ff ff       	jmp    8049d40 <PAL_InterpretInstruction+0x280>
 804a24a:	66 85 db             	test   %bx,%bx
 804a24d:	0f 85 f6 20 00 00    	jne    804c349 <PAL_InterpretInstruction+0x2889>
 804a253:	31 c0                	xor    %eax,%eax
 804a255:	66 89 86 64 44 00 00 	mov    %ax,0x4464(%esi)
 804a25c:	e9 df fa ff ff       	jmp    8049d40 <PAL_InterpretInstruction+0x280>
 804a261:	0f b7 c2             	movzwl %dx,%eax
 804a264:	0f b7 57 06          	movzwl 0x6(%edi),%edx
 804a268:	0f b7 4f 04          	movzwl 0x4(%edi),%ecx
 804a26c:	83 ec 08             	sub    $0x8,%esp
 804a26f:	6a 08                	push   $0x8
 804a271:	52                   	push   %edx
 804a272:	89 da                	mov    %ebx,%edx
 804a274:	e8 b7 f0 ff ff       	call   8049330 <PAL_PartyRideEventObject>
 804a279:	83 c4 10             	add    $0x10,%esp
 804a27c:	e9 bf fa ff ff       	jmp    8049d40 <PAL_InterpretInstruction+0x280>
 804a281:	e8 9a 03 01 00       	call   805a620 <PAL_EndingAnimation>
 804a286:	e9 b5 fa ff ff       	jmp    8049d40 <PAL_InterpretInstruction+0x280>
 804a28b:	66 3b 9e 4a 44 00 00 	cmp    0x444a(%esi),%bx
 804a292:	0f 85 a8 fa ff ff    	jne    8049d40 <PAL_InterpretInstruction+0x280>
 804a298:	0f b7 47 04          	movzwl 0x4(%edi),%eax
 804a29c:	83 e8 01             	sub    $0x1,%eax
 804a29f:	66 89 85 de fe ff ff 	mov    %ax,-0x122(%ebp)
 804a2a6:	e9 95 fa ff ff       	jmp    8049d40 <PAL_InterpretInstruction+0x280>
 804a2ab:	8b 85 d4 fe ff ff    	mov    -0x12c(%ebp),%eax
 804a2b1:	0f b7 5f 04          	movzwl 0x4(%edi),%ebx
 804a2b5:	66 39 58 0c          	cmp    %bx,0xc(%eax)
 804a2b9:	0f 85 81 fa ff ff    	jne    8049d40 <PAL_InterpretInstruction+0x280>
 804a2bf:	0f b7 47 06          	movzwl 0x6(%edi),%eax
 804a2c3:	83 e8 01             	sub    $0x1,%eax
 804a2c6:	66 89 85 de fe ff ff 	mov    %ax,-0x122(%ebp)
 804a2cd:	e9 6e fa ff ff       	jmp    8049d40 <PAL_InterpretInstruction+0x280>
 804a2d2:	83 ec 04             	sub    $0x4,%esp
 804a2d5:	0f bf c3             	movswl %bx,%eax
 804a2d8:	50                   	push   %eax
 804a2d9:	0f b7 86 4c 44 00 00 	movzwl 0x444c(%esi),%eax
 804a2e0:	ff b6 50 44 00 00    	pushl  0x4450(%esi)
 804a2e6:	50                   	push   %eax
 804a2e7:	e8 14 b2 01 00       	call   8065500 <PAL_SceneFade>
 804a2ec:	0f bf 47 02          	movswl 0x2(%edi),%eax
 804a2f0:	8b 15 08 72 09 08    	mov    0x8097208,%edx
 804a2f6:	83 c4 10             	add    $0x10,%esp
 804a2f9:	c1 e8 1f             	shr    $0x1f,%eax
 804a2fc:	89 82 d4 2a 00 00    	mov    %eax,0x2ad4(%edx)
 804a302:	e9 39 fa ff ff       	jmp    8049d40 <PAL_InterpretInstruction+0x280>
 804a307:	8b 8e d8 2a 00 00    	mov    0x2ad8(%esi),%ecx
 804a30d:	85 c9                	test   %ecx,%ecx
 804a30f:	0f 84 2b fa ff ff    	je     8049d40 <PAL_InterpretInstruction+0x280>
 804a315:	66 85 db             	test   %bx,%bx
 804a318:	0f 85 48 25 00 00    	jne    804c866 <PAL_InterpretInstruction+0x2da6>
 804a31e:	8b 85 cc fe ff ff    	mov    -0x134(%ebp),%eax
 804a324:	31 db                	xor    %ebx,%ebx
 804a326:	0f b7 80 f6 43 00 00 	movzwl 0x43f6(%eax),%eax
 804a32d:	89 1d 40 83 09 08    	mov    %ebx,0x8098340
 804a333:	85 c0                	test   %eax,%eax
 804a335:	74 11                	je     804a348 <PAL_InterpretInstruction+0x888>
 804a337:	83 f8 01             	cmp    $0x1,%eax
 804a33a:	89 1d 7c 83 09 08    	mov    %ebx,0x809837c
 804a340:	74 06                	je     804a348 <PAL_InterpretInstruction+0x888>
 804a342:	89 1d b8 83 09 08    	mov    %ebx,0x80983b8
 804a348:	83 ec 04             	sub    $0x4,%esp
 804a34b:	83 c3 02             	add    $0x2,%ebx
 804a34e:	6a 01                	push   $0x1
 804a350:	6a 00                	push   $0x0
 804a352:	6a 01                	push   $0x1
 804a354:	e8 67 5d 00 00       	call   80500c0 <PAL_BattleDelay>
 804a359:	83 c4 10             	add    $0x10,%esp
 804a35c:	83 fb 0a             	cmp    $0xa,%ebx
 804a35f:	0f 84 cd 1e 00 00    	je     804c232 <PAL_InterpretInstruction+0x2772>
 804a365:	a1 08 72 09 08       	mov    0x8097208,%eax
 804a36a:	eb ba                	jmp    804a326 <PAL_InterpretInstruction+0x866>
 804a36c:	8b 9e d8 2a 00 00    	mov    0x2ad8(%esi),%ebx
 804a372:	85 db                	test   %ebx,%ebx
 804a374:	0f 84 c6 f9 ff ff    	je     8049d40 <PAL_InterpretInstruction+0x280>
 804a37a:	0f b7 d2             	movzwl %dx,%edx
 804a37d:	0f b7 1d f0 87 09 08 	movzwl 0x80987f0,%ebx
 804a384:	b9 40 83 09 08       	mov    $0x8098340,%ecx
 804a389:	69 f2 cc 00 00 00    	imul   $0xcc,%edx,%esi
 804a38f:	31 c0                	xor    %eax,%eax
 804a391:	81 c6 b0 00 00 00    	add    $0xb0,%esi
 804a397:	89 f6                	mov    %esi,%esi
 804a399:	8d bc 27 00 00 00 00 	lea    0x0(%edi,%eiz,1),%edi
 804a3a0:	39 d0                	cmp    %edx,%eax
 804a3a2:	74 14                	je     804a3b8 <PAL_InterpretInstruction+0x8f8>
 804a3a4:	0f b7 be 44 83 09 08 	movzwl 0x8098344(%esi),%edi
 804a3ab:	66 39 b9 b4 00 00 00 	cmp    %di,0xb4(%ecx)
 804a3b2:	0f 84 af 23 00 00    	je     804c767 <PAL_InterpretInstruction+0x2ca7>
 804a3b8:	83 c0 01             	add    $0x1,%eax
 804a3bb:	81 c1 cc 00 00 00    	add    $0xcc,%ecx
 804a3c1:	39 d8                	cmp    %ebx,%eax
 804a3c3:	7e db                	jle    804a3a0 <PAL_InterpretInstruction+0x8e0>
 804a3c5:	e9 76 f9 ff ff       	jmp    8049d40 <PAL_InterpretInstruction+0x280>
 804a3ca:	0f b7 4f 06          	movzwl 0x6(%edi),%ecx
 804a3ce:	0f b7 c3             	movzwl %bx,%eax
 804a3d1:	0f b7 57 04          	movzwl 0x4(%edi),%edx
 804a3d5:	8d 04 40             	lea    (%eax,%eax,2),%eax
 804a3d8:	8d 84 41 c2 04 00 00 	lea    0x4c2(%ecx,%eax,2),%eax
 804a3df:	66 89 54 46 08       	mov    %dx,0x8(%esi,%eax,2)
 804a3e4:	e9 57 f9 ff ff       	jmp    8049d40 <PAL_InterpretInstruction+0x280>
 804a3e9:	d1 ae 68 44 00 00    	shrl   0x4468(%esi)
 804a3ef:	e9 4c f9 ff ff       	jmp    8049d40 <PAL_InterpretInstruction+0x280>
 804a3f4:	83 ec 08             	sub    $0x8,%esp
 804a3f7:	0f b7 c3             	movzwl %bx,%eax
 804a3fa:	0f b7 d2             	movzwl %dx,%edx
 804a3fd:	50                   	push   %eax
 804a3fe:	52                   	push   %edx
 804a3ff:	e8 fc 2b 01 00       	call   805d000 <PAL_PlayerLevelUp>
 804a404:	83 c4 10             	add    $0x10,%esp
 804a407:	e9 34 f9 ff ff       	jmp    8049d40 <PAL_InterpretInstruction+0x280>
 804a40c:	0f b7 47 06          	movzwl 0x6(%edi),%eax
 804a410:	83 ec 04             	sub    $0x4,%esp
 804a413:	50                   	push   %eax
 804a414:	0f b6 c3             	movzbl %bl,%eax
 804a417:	50                   	push   %eax
 804a418:	0f b7 47 04          	movzwl 0x4(%edi),%eax
 804a41c:	50                   	push   %eax
 804a41d:	e8 4e b5 01 00       	call   8065970 <PAL_ColorFade>
 804a422:	a1 08 72 09 08       	mov    0x8097208,%eax
 804a427:	83 c4 10             	add    $0x10,%esp
 804a42a:	c7 80 d4 2a 00 00 00 	movl   $0x0,0x2ad4(%eax)
 804a431:	00 00 00 
 804a434:	e9 07 f9 ff ff       	jmp    8049d40 <PAL_InterpretInstruction+0x280>
 804a439:	66 89 9e 4c 44 00 00 	mov    %bx,0x444c(%esi)
 804a440:	8b b6 d4 2a 00 00    	mov    0x2ad4(%esi),%esi
 804a446:	85 f6                	test   %esi,%esi
 804a448:	0f 85 f2 f8 ff ff    	jne    8049d40 <PAL_InterpretInstruction+0x280>
 804a44e:	83 ec 08             	sub    $0x8,%esp
 804a451:	0f b7 c3             	movzwl %bx,%eax
 804a454:	6a 00                	push   $0x0
 804a456:	50                   	push   %eax
 804a457:	e8 94 ae 01 00       	call   80652f0 <PAL_SetPalette>
 804a45c:	83 c4 10             	add    $0x10,%esp
 804a45f:	e9 dc f8 ff ff       	jmp    8049d40 <PAL_InterpretInstruction+0x280>
 804a464:	c7 86 dc 2a 00 00 01 	movl   $0x1,0x2adc(%esi)
 804a46b:	00 00 00 
 804a46e:	e9 cd f8 ff ff       	jmp    8049d40 <PAL_InterpretInstruction+0x280>
 804a473:	0f b7 c3             	movzwl %bx,%eax
 804a476:	a3 1c 88 09 08       	mov    %eax,0x809881c
 804a47b:	e9 c0 f8 ff ff       	jmp    8049d40 <PAL_InterpretInstruction+0x280>
 804a480:	8b 86 68 44 00 00    	mov    0x4468(%esi),%eax
 804a486:	3d 88 13 00 00       	cmp    $0x1388,%eax
 804a48b:	89 c1                	mov    %eax,%ecx
 804a48d:	76 05                	jbe    804a494 <PAL_InterpretInstruction+0x9d4>
 804a48f:	b9 88 13 00 00       	mov    $0x1388,%ecx
 804a494:	29 c8                	sub    %ecx,%eax
 804a496:	01 c9                	add    %ecx,%ecx
 804a498:	ba 67 66 66 66       	mov    $0x66666667,%edx
 804a49d:	89 86 68 44 00 00    	mov    %eax,0x4468(%esi)
 804a4a3:	0f b7 c3             	movzwl %bx,%eax
 804a4a6:	8d 04 40             	lea    (%eax,%eax,2),%eax
 804a4a9:	0f b7 9c 86 88 09 00 	movzwl 0x988(%esi,%eax,4),%ebx
 804a4b0:	00 
 804a4b1:	89 c8                	mov    %ecx,%eax
 804a4b3:	c1 f9 1f             	sar    $0x1f,%ecx
 804a4b6:	f7 ea                	imul   %edx
 804a4b8:	c1 e3 05             	shl    $0x5,%ebx
 804a4bb:	03 9e 4c 29 00 00    	add    0x294c(%esi),%ebx
 804a4c1:	d1 fa                	sar    %edx
 804a4c3:	29 ca                	sub    %ecx,%edx
 804a4c5:	66 89 53 1a          	mov    %dx,0x1a(%ebx)
 804a4c9:	e9 72 f8 ff ff       	jmp    8049d40 <PAL_InterpretInstruction+0x280>
 804a4ce:	0f b7 bd b8 fe ff ff 	movzwl -0x148(%ebp),%edi
 804a4d5:	83 ec 08             	sub    $0x8,%esp
 804a4d8:	6a 00                	push   $0x0
 804a4da:	57                   	push   %edi
 804a4db:	e8 10 d9 00 00       	call   8057df0 <PAL_NPCWalkOneStep>
 804a4e0:	83 c4 10             	add    $0x10,%esp
 804a4e3:	e9 58 f8 ff ff       	jmp    8049d40 <PAL_InterpretInstruction+0x280>
 804a4e8:	0f b7 86 f6 43 00 00 	movzwl 0x43f6(%esi),%eax
 804a4ef:	89 bd d4 fe ff ff    	mov    %edi,-0x12c(%ebp)
 804a4f5:	31 c9                	xor    %ecx,%ecx
 804a4f7:	c7 85 d8 fe ff ff 00 	movl   $0x0,-0x128(%ebp)
 804a4fe:	00 00 00 
 804a501:	89 c7                	mov    %eax,%edi
 804a503:	90                   	nop
 804a504:	8d 74 26 00          	lea    0x0(%esi,%eiz,1),%esi
 804a508:	8d 04 89             	lea    (%ecx,%ecx,4),%eax
 804a50b:	0f b7 94 46 f8 43 00 	movzwl 0x43f8(%esi,%eax,2),%edx
 804a512:	00 
 804a513:	01 d2                	add    %edx,%edx
 804a515:	8d 04 16             	lea    (%esi,%edx,1),%eax
 804a518:	8d 54 16 48          	lea    0x48(%esi,%edx,1),%edx
 804a51c:	66 3b 98 4c 26 00 00 	cmp    0x264c(%eax),%bx
 804a523:	0f 84 67 19 00 00    	je     804be90 <PAL_InterpretInstruction+0x23d0>
 804a529:	83 c0 0c             	add    $0xc,%eax
 804a52c:	39 d0                	cmp    %edx,%eax
 804a52e:	75 ec                	jne    804a51c <PAL_InterpretInstruction+0xa5c>
 804a530:	83 c1 01             	add    $0x1,%ecx
 804a533:	39 cf                	cmp    %ecx,%edi
 804a535:	7d d1                	jge    804a508 <PAL_InterpretInstruction+0xa48>
 804a537:	8b 85 d8 fe ff ff    	mov    -0x128(%ebp),%eax
 804a53d:	8b bd d4 fe ff ff    	mov    -0x12c(%ebp),%edi
 804a543:	85 c0                	test   %eax,%eax
 804a545:	0f 85 f5 f7 ff ff    	jne    8049d40 <PAL_InterpretInstruction+0x280>
 804a54b:	0f b7 47 06          	movzwl 0x6(%edi),%eax
 804a54f:	83 e8 01             	sub    $0x1,%eax
 804a552:	66 89 85 de fe ff ff 	mov    %ax,-0x122(%ebp)
 804a559:	e9 e2 f7 ff ff       	jmp    8049d40 <PAL_InterpretInstruction+0x280>
 804a55e:	0f b7 c3             	movzwl %bx,%eax
 804a561:	83 ec 0c             	sub    $0xc,%esp
 804a564:	8d 04 80             	lea    (%eax,%eax,4),%eax
 804a567:	c1 e0 04             	shl    $0x4,%eax
 804a56a:	50                   	push   %eax
 804a56b:	e8 40 f3 00 00       	call   80598b0 <UTIL_Delay>
 804a570:	83 c4 10             	add    $0x10,%esp
 804a573:	e9 c8 f7 ff ff       	jmp    8049d40 <PAL_InterpretInstruction+0x280>
 804a578:	0f b7 86 4a 44 00 00 	movzwl 0x444a(%esi),%eax
 804a57f:	8d 04 c6             	lea    (%esi,%eax,8),%eax
 804a582:	66 3b 58 26          	cmp    0x26(%eax),%bx
 804a586:	0f 86 6e 19 00 00    	jbe    804befa <PAL_InterpretInstruction+0x243a>
 804a58c:	66 3b 58 2e          	cmp    0x2e(%eax),%bx
 804a590:	0f 87 64 19 00 00    	ja     804befa <PAL_InterpretInstruction+0x243a>
 804a596:	8b 8e f0 43 00 00    	mov    0x43f0(%esi),%ecx
 804a59c:	8b 96 ec 43 00 00    	mov    0x43ec(%esi),%edx
 804a5a2:	0f bf c1             	movswl %cx,%eax
 804a5a5:	0f bf da             	movswl %dx,%ebx
 804a5a8:	c1 fa 10             	sar    $0x10,%edx
 804a5ab:	01 c3                	add    %eax,%ebx
 804a5ad:	89 c8                	mov    %ecx,%eax
 804a5af:	c1 f8 10             	sar    $0x10,%eax
 804a5b2:	01 d0                	add    %edx,%eax
 804a5b4:	0f b7 96 48 44 00 00 	movzwl 0x4448(%esi),%edx
 804a5bb:	66 83 fa 02          	cmp    $0x2,%dx
 804a5bf:	19 c9                	sbb    %ecx,%ecx
 804a5c1:	83 ea 01             	sub    $0x1,%edx
 804a5c4:	83 e1 e0             	and    $0xffffffe0,%ecx
 804a5c7:	66 83 fa 02          	cmp    $0x2,%dx
 804a5cb:	19 d2                	sbb    %edx,%edx
 804a5cd:	8d 74 19 10          	lea    0x10(%ecx,%ebx,1),%esi
 804a5d1:	83 ec 04             	sub    $0x4,%esp
 804a5d4:	83 e2 f0             	and    $0xfffffff0,%edx
 804a5d7:	6a 00                	push   $0x0
 804a5d9:	6a 00                	push   $0x0
 804a5db:	8d 5c 02 08          	lea    0x8(%edx,%eax,1),%ebx
 804a5df:	0f b7 c6             	movzwl %si,%eax
 804a5e2:	89 da                	mov    %ebx,%edx
 804a5e4:	c1 e2 10             	shl    $0x10,%edx
 804a5e7:	09 d0                	or     %edx,%eax
 804a5e9:	50                   	push   %eax
 804a5ea:	e8 b1 d5 00 00       	call   8057ba0 <PAL_CheckObstacle>
 804a5ef:	83 c4 10             	add    $0x10,%esp
 804a5f2:	85 c0                	test   %eax,%eax
 804a5f4:	0f 84 53 25 00 00    	je     804cb4d <PAL_InterpretInstruction+0x308d>
 804a5fa:	0f b7 47 06          	movzwl 0x6(%edi),%eax
 804a5fe:	c7 05 08 04 08 08 00 	movl   $0x0,0x8080408
 804a605:	00 00 00 
 804a608:	83 e8 01             	sub    $0x1,%eax
 804a60b:	66 89 85 de fe ff ff 	mov    %ax,-0x122(%ebp)
 804a612:	e9 29 f7 ff ff       	jmp    8049d40 <PAL_InterpretInstruction+0x280>
 804a617:	0f b7 86 4a 44 00 00 	movzwl 0x444a(%esi),%eax
 804a61e:	8d 04 c6             	lea    (%esi,%eax,8),%eax
 804a621:	66 3b 58 26          	cmp    0x26(%eax),%bx
 804a625:	76 0a                	jbe    804a631 <PAL_InterpretInstruction+0xb71>
 804a627:	66 3b 58 2e          	cmp    0x2e(%eax),%bx
 804a62b:	0f 86 a8 21 00 00    	jbe    804c7d9 <PAL_InterpretInstruction+0x2d19>
 804a631:	0f b7 47 06          	movzwl 0x6(%edi),%eax
 804a635:	c7 05 08 04 08 08 00 	movl   $0x0,0x8080408
 804a63c:	00 00 00 
 804a63f:	83 e8 01             	sub    $0x1,%eax
 804a642:	66 89 85 de fe ff ff 	mov    %ax,-0x122(%ebp)
 804a649:	e9 f2 f6 ff ff       	jmp    8049d40 <PAL_InterpretInstruction+0x280>
 804a64e:	83 ec 08             	sub    $0x8,%esp
 804a651:	0f b7 4f 04          	movzwl 0x4(%edi),%ecx
 804a655:	0f b7 f3             	movzwl %bx,%esi
 804a658:	6a 08                	push   $0x8
 804a65a:	0f b7 c2             	movzwl %dx,%eax
 804a65d:	0f b7 57 06          	movzwl 0x6(%edi),%edx
 804a661:	52                   	push   %edx
 804a662:	89 f2                	mov    %esi,%edx
 804a664:	e8 c7 eb ff ff       	call   8049230 <PAL_NPCWalkTo>
 804a669:	83 c4 10             	add    $0x10,%esp
 804a66c:	85 c0                	test   %eax,%eax
 804a66e:	0f 85 cc f6 ff ff    	jne    8049d40 <PAL_InterpretInstruction+0x280>
 804a674:	0f b7 85 c8 fe ff ff 	movzwl -0x138(%ebp),%eax
 804a67b:	83 e8 01             	sub    $0x1,%eax
 804a67e:	66 89 85 de fe ff ff 	mov    %ax,-0x122(%ebp)
 804a685:	e9 b6 f6 ff ff       	jmp    8049d40 <PAL_InterpretInstruction+0x280>
 804a68a:	8b 9d d4 fe ff ff    	mov    -0x12c(%ebp),%ebx
 804a690:	0f b7 47 04          	movzwl 0x4(%edi),%eax
 804a694:	66 01 43 02          	add    %ax,0x2(%ebx)
 804a698:	0f b7 47 06          	movzwl 0x6(%edi),%eax
 804a69c:	66 01 43 04          	add    %ax,0x4(%ebx)
 804a6a0:	e9 9b f6 ff ff       	jmp    8049d40 <PAL_InterpretInstruction+0x280>
 804a6a5:	0f b7 c2             	movzwl %dx,%eax
 804a6a8:	8b 96 30 4d 00 00    	mov    0x4d30(%esi),%edx
 804a6ae:	31 c2                	xor    %eax,%edx
 804a6b0:	83 e2 01             	and    $0x1,%edx
 804a6b3:	74 bf                	je     804a674 <PAL_InterpretInstruction+0xbb4>
 804a6b5:	83 ec 08             	sub    $0x8,%esp
 804a6b8:	0f b7 4f 04          	movzwl 0x4(%edi),%ecx
 804a6bc:	0f b7 d3             	movzwl %bx,%edx
 804a6bf:	6a 04                	push   $0x4
 804a6c1:	0f b7 77 06          	movzwl 0x6(%edi),%esi
 804a6c5:	56                   	push   %esi
 804a6c6:	e8 65 eb ff ff       	call   8049230 <PAL_NPCWalkTo>
 804a6cb:	83 c4 10             	add    $0x10,%esp
 804a6ce:	85 c0                	test   %eax,%eax
 804a6d0:	74 a2                	je     804a674 <PAL_InterpretInstruction+0xbb4>
 804a6d2:	e9 69 f6 ff ff       	jmp    8049d40 <PAL_InterpretInstruction+0x280>
 804a6d7:	0f b7 4f 06          	movzwl 0x6(%edi),%ecx
 804a6db:	0f b7 57 04          	movzwl 0x4(%edi),%edx
 804a6df:	83 ec 0c             	sub    $0xc,%esp
 804a6e2:	6a 08                	push   $0x8
 804a6e4:	0f b7 c3             	movzwl %bx,%eax
 804a6e7:	e8 34 e9 ff ff       	call   8049020 <PAL_PartyWalkTo>
 804a6ec:	83 c4 10             	add    $0x10,%esp
 804a6ef:	e9 4c f6 ff ff       	jmp    8049d40 <PAL_InterpretInstruction+0x280>
 804a6f4:	0f b7 4f 06          	movzwl 0x6(%edi),%ecx
 804a6f8:	0f b7 57 04          	movzwl 0x4(%edi),%edx
 804a6fc:	83 ec 0c             	sub    $0xc,%esp
 804a6ff:	6a 04                	push   $0x4
 804a701:	0f b7 c3             	movzwl %bx,%eax
 804a704:	e8 17 e9 ff ff       	call   8049020 <PAL_PartyWalkTo>
 804a709:	83 c4 10             	add    $0x10,%esp
 804a70c:	e9 2f f6 ff ff       	jmp    8049d40 <PAL_InterpretInstruction+0x280>
 804a711:	0f b7 86 f6 43 00 00 	movzwl 0x43f6(%esi),%eax
 804a718:	89 c1                	mov    %eax,%ecx
 804a71a:	0f b7 86 f8 43 00 00 	movzwl 0x43f8(%esi),%eax
 804a721:	66 3b 9c 46 ec 25 00 	cmp    0x25ec(%esi,%eax,2),%bx
 804a728:	00 
 804a729:	0f 84 f0 1a 00 00    	je     804c21f <PAL_InterpretInstruction+0x275f>
 804a72f:	89 bd d8 fe ff ff    	mov    %edi,-0x128(%ebp)
 804a735:	8d 96 02 44 00 00    	lea    0x4402(%esi),%edx
 804a73b:	31 c0                	xor    %eax,%eax
 804a73d:	89 cf                	mov    %ecx,%edi
 804a73f:	eb 1b                	jmp    804a75c <PAL_InterpretInstruction+0xc9c>
 804a741:	8d b4 26 00 00 00 00 	lea    0x0(%esi,%eiz,1),%esi
 804a748:	0f b7 0a             	movzwl (%edx),%ecx
 804a74b:	83 c2 0a             	add    $0xa,%edx
 804a74e:	66 3b 9c 4e ec 25 00 	cmp    0x25ec(%esi,%ecx,2),%bx
 804a755:	00 
 804a756:	0f 84 bd 1a 00 00    	je     804c219 <PAL_InterpretInstruction+0x2759>
 804a75c:	83 c0 01             	add    $0x1,%eax
 804a75f:	39 c7                	cmp    %eax,%edi
 804a761:	7d e5                	jge    804a748 <PAL_InterpretInstruction+0xc88>
 804a763:	e9 d8 f5 ff ff       	jmp    8049d40 <PAL_InterpretInstruction+0x280>
 804a768:	66 85 db             	test   %bx,%bx
 804a76b:	b8 02 00 00 00       	mov    $0x2,%eax
 804a770:	74 3f                	je     804a7b1 <PAL_InterpretInstruction+0xcf1>
 804a772:	0f b7 c3             	movzwl %bx,%eax
 804a775:	d9 bd e6 fe ff ff    	fnstcw -0x11a(%ebp)
 804a77b:	01 c0                	add    %eax,%eax
 804a77d:	89 85 d8 fe ff ff    	mov    %eax,-0x128(%ebp)
 804a783:	0f b7 85 e6 fe ff ff 	movzwl -0x11a(%ebp),%eax
 804a78a:	db 85 d8 fe ff ff    	fildl  -0x128(%ebp)
 804a790:	b4 0c                	mov    $0xc,%ah
 804a792:	66 89 85 e4 fe ff ff 	mov    %ax,-0x11c(%ebp)
 804a799:	d9 ad e4 fe ff ff    	fldcw  -0x11c(%ebp)
 804a79f:	db 9d e0 fe ff ff    	fistpl -0x120(%ebp)
 804a7a5:	d9 ad e6 fe ff ff    	fldcw  -0x11a(%ebp)
 804a7ab:	8b 85 e0 fe ff ff    	mov    -0x120(%ebp),%eax
 804a7b1:	83 ec 04             	sub    $0x4,%esp
 804a7b4:	50                   	push   %eax
 804a7b5:	6a 00                	push   $0x0
 804a7b7:	6a 00                	push   $0x0
 804a7b9:	e8 b2 c5 00 00       	call   8056d70 <PAL_PlayMUS>
 804a7be:	a1 08 72 09 08       	mov    0x8097208,%eax
 804a7c3:	31 c9                	xor    %ecx,%ecx
 804a7c5:	83 c4 10             	add    $0x10,%esp
 804a7c8:	66 89 88 54 44 00 00 	mov    %cx,0x4454(%eax)
 804a7cf:	e9 6c f5 ff ff       	jmp    8049d40 <PAL_InterpretInstruction+0x280>
 804a7d4:	0f b7 86 4a 44 00 00 	movzwl 0x444a(%esi),%eax
 804a7db:	8d 04 c6             	lea    (%esi,%eax,8),%eax
 804a7de:	66 3b 58 26          	cmp    0x26(%eax),%bx
 804a7e2:	0f 86 42 17 00 00    	jbe    804bf2a <PAL_InterpretInstruction+0x246a>
 804a7e8:	66 3b 58 2e          	cmp    0x2e(%eax),%bx
 804a7ec:	0f 87 38 17 00 00    	ja     804bf2a <PAL_InterpretInstruction+0x246a>
 804a7f2:	0f b7 9e 48 44 00 00 	movzwl 0x4448(%esi),%ebx
 804a7f9:	8b 85 d4 fe ff ff    	mov    -0x12c(%ebp),%eax
 804a7ff:	0f b7 50 02          	movzwl 0x2(%eax),%edx
 804a803:	0f b7 48 04          	movzwl 0x4(%eax),%ecx
 804a807:	66 83 fb 02          	cmp    $0x2,%bx
 804a80b:	19 c0                	sbb    %eax,%eax
 804a80d:	83 e0 20             	and    $0x20,%eax
 804a810:	8d 44 10 f0          	lea    -0x10(%eax,%edx,1),%eax
 804a814:	89 85 d8 fe ff ff    	mov    %eax,-0x128(%ebp)
 804a81a:	8d 43 ff             	lea    -0x1(%ebx),%eax
 804a81d:	8b 9e f0 43 00 00    	mov    0x43f0(%esi),%ebx
 804a823:	66 83 f8 02          	cmp    $0x2,%ax
 804a827:	19 c0                	sbb    %eax,%eax
 804a829:	89 da                	mov    %ebx,%edx
 804a82b:	0f bf db             	movswl %bx,%ebx
 804a82e:	83 e0 10             	and    $0x10,%eax
 804a831:	c1 fa 10             	sar    $0x10,%edx
 804a834:	83 ec 0c             	sub    $0xc,%esp
 804a837:	8d 4c 08 f8          	lea    -0x8(%eax,%ecx,1),%ecx
 804a83b:	8b 86 ec 43 00 00    	mov    0x43ec(%esi),%eax
 804a841:	89 c6                	mov    %eax,%esi
 804a843:	98                   	cwtl   
 804a844:	c1 fe 10             	sar    $0x10,%esi
 804a847:	01 d8                	add    %ebx,%eax
 804a849:	8b 9d d8 fe ff ff    	mov    -0x128(%ebp),%ebx
 804a84f:	01 f2                	add    %esi,%edx
 804a851:	89 ce                	mov    %ecx,%esi
 804a853:	29 d6                	sub    %edx,%esi
 804a855:	0f b7 57 04          	movzwl 0x4(%edi),%edx
 804a859:	29 c3                	sub    %eax,%ebx
 804a85b:	01 f6                	add    %esi,%esi
 804a85d:	53                   	push   %ebx
 804a85e:	c1 e2 05             	shl    $0x5,%edx
 804a861:	8d 4a 0f             	lea    0xf(%edx),%ecx
 804a864:	89 8d d0 fe ff ff    	mov    %ecx,-0x130(%ebp)
 804a86a:	e8 61 c4 01 00       	call   8066cd0 <abs>
 804a86f:	89 c3                	mov    %eax,%ebx
 804a871:	89 34 24             	mov    %esi,(%esp)
 804a874:	e8 57 c4 01 00       	call   8066cd0 <abs>
 804a879:	83 c4 10             	add    $0x10,%esp
 804a87c:	01 c3                	add    %eax,%ebx
 804a87e:	39 9d d0 fe ff ff    	cmp    %ebx,-0x130(%ebp)
 804a884:	0f 8c a6 22 00 00    	jl     804cb30 <PAL_InterpretInstruction+0x3070>
 804a88a:	0f b7 47 04          	movzwl 0x4(%edi),%eax
 804a88e:	66 85 c0             	test   %ax,%ax
 804a891:	0f 84 a9 f4 ff ff    	je     8049d40 <PAL_InterpretInstruction+0x280>
 804a897:	8b 9d d4 fe ff ff    	mov    -0x12c(%ebp),%ebx
 804a89d:	83 c0 05             	add    $0x5,%eax
 804a8a0:	66 89 43 0e          	mov    %ax,0xe(%ebx)
 804a8a4:	e9 97 f4 ff ff       	jmp    8049d40 <PAL_InterpretInstruction+0x280>
 804a8a9:	8d b4 26 00 00 00 00 	lea    0x0(%esi,%eiz,1),%esi
 804a8b0:	8b 96 50 44 00 00    	mov    0x4450(%esi),%edx
 804a8b6:	31 c0                	xor    %eax,%eax
 804a8b8:	85 d2                	test   %edx,%edx
 804a8ba:	0f 94 c0             	sete   %al
 804a8bd:	83 ec 04             	sub    $0x4,%esp
 804a8c0:	31 d2                	xor    %edx,%edx
 804a8c2:	66 85 db             	test   %bx,%bx
 804a8c5:	89 86 50 44 00 00    	mov    %eax,0x4450(%esi)
 804a8cb:	0f 94 c2             	sete   %dl
 804a8ce:	52                   	push   %edx
 804a8cf:	50                   	push   %eax
 804a8d0:	0f b7 86 4c 44 00 00 	movzwl 0x444c(%esi),%eax
 804a8d7:	50                   	push   %eax
 804a8d8:	e8 93 ae 01 00       	call   8065770 <PAL_PaletteFade>
 804a8dd:	83 c4 10             	add    $0x10,%esp
 804a8e0:	e9 5b f4 ff ff       	jmp    8049d40 <PAL_InterpretInstruction+0x280>
 804a8e5:	83 ec 0c             	sub    $0xc,%esp
 804a8e8:	6a 00                	push   $0x0
 804a8ea:	e8 b1 f6 00 00       	call   8059fa0 <PAL_EndingSetEffectSprite>
 804a8ef:	0f b7 47 04          	movzwl 0x4(%edi),%eax
 804a8f3:	5b                   	pop    %ebx
 804a8f4:	5e                   	pop    %esi
 804a8f5:	50                   	push   %eax
 804a8f6:	0f b7 47 02          	movzwl 0x2(%edi),%eax
 804a8fa:	50                   	push   %eax
 804a8fb:	e8 b0 f6 00 00       	call   8059fb0 <PAL_ShowFBP>
 804a900:	83 c4 10             	add    $0x10,%esp
 804a903:	e9 38 f4 ff ff       	jmp    8049d40 <PAL_InterpretInstruction+0x280>
 804a908:	89 da                	mov    %ebx,%edx
 804a90a:	31 c0                	xor    %eax,%eax
 804a90c:	31 db                	xor    %ebx,%ebx
 804a90e:	31 c9                	xor    %ecx,%ecx
 804a910:	66 85 d2             	test   %dx,%dx
 804a913:	66 89 86 f6 43 00 00 	mov    %ax,0x43f6(%esi)
 804a91a:	89 bd d0 fe ff ff    	mov    %edi,-0x130(%ebp)
 804a920:	66 89 9d d8 fe ff ff 	mov    %bx,-0x128(%ebp)
 804a927:	89 b5 d4 fe ff ff    	mov    %esi,-0x12c(%ebp)
 804a92d:	74 49                	je     804a978 <PAL_InterpretInstruction+0xeb8>
 804a92f:	0f b7 85 d8 fe ff ff 	movzwl -0x128(%ebp),%eax
 804a936:	8b 9d d4 fe ff ff    	mov    -0x12c(%ebp),%ebx
 804a93c:	83 ea 01             	sub    $0x1,%edx
 804a93f:	66 83 85 d8 fe ff ff 	addw   $0x1,-0x128(%ebp)
 804a946:	01 
 804a947:	8d 3c 85 00 00 00 00 	lea    0x0(,%eax,4),%edi
 804a94e:	8d 34 07             	lea    (%edi,%eax,1),%esi
 804a951:	c1 e0 06             	shl    $0x6,%eax
 804a954:	29 f8                	sub    %edi,%eax
 804a956:	66 89 94 73 f8 43 00 	mov    %dx,0x43f8(%ebx,%esi,2)
 804a95d:	00 
 804a95e:	c7 80 64 83 09 08 02 	movl   $0x2,0x8098364(%eax)
 804a965:	00 00 00 
 804a968:	89 d8                	mov    %ebx,%eax
 804a96a:	0f b7 9d d8 fe ff ff 	movzwl -0x128(%ebp),%ebx
 804a971:	66 89 98 f6 43 00 00 	mov    %bx,0x43f6(%eax)
 804a978:	83 c1 01             	add    $0x1,%ecx
 804a97b:	83 f9 03             	cmp    $0x3,%ecx
 804a97e:	0f 84 20 15 00 00    	je     804bea4 <PAL_InterpretInstruction+0x23e4>
 804a984:	8b 85 d0 fe ff ff    	mov    -0x130(%ebp),%eax
 804a98a:	0f b7 54 48 02       	movzwl 0x2(%eax,%ecx,2),%edx
 804a98f:	66 85 d2             	test   %dx,%dx
 804a992:	74 e4                	je     804a978 <PAL_InterpretInstruction+0xeb8>
 804a994:	eb 99                	jmp    804a92f <PAL_InterpretInstruction+0xe6f>
 804a996:	66 85 db             	test   %bx,%bx
 804a999:	0f b7 4f 04          	movzwl 0x4(%edi),%ecx
 804a99d:	0f 85 a4 15 00 00    	jne    804bf47 <PAL_InterpretInstruction+0x2487>
 804a9a3:	66 85 c9             	test   %cx,%cx
 804a9a6:	0f 85 9b 15 00 00    	jne    804bf47 <PAL_InterpretInstruction+0x2487>
 804a9ac:	0f bf 86 fc 43 00 00 	movswl 0x43fc(%esi),%eax
 804a9b3:	0f b7 96 fa 43 00 00 	movzwl 0x43fa(%esi),%edx
 804a9ba:	c7 86 f0 43 00 00 a0 	movl   $0x7000a0,0x43f0(%esi)
 804a9c1:	00 70 00 
 804a9c4:	8d 48 90             	lea    -0x70(%eax),%ecx
 804a9c7:	0f bf c2             	movswl %dx,%eax
 804a9ca:	2d a0 00 00 00       	sub    $0xa0,%eax
 804a9cf:	89 85 d4 fe ff ff    	mov    %eax,-0x12c(%ebp)
 804a9d5:	66 89 85 d8 fe ff ff 	mov    %ax,-0x128(%ebp)
 804a9dc:	89 cb                	mov    %ecx,%ebx
 804a9de:	8b 86 ec 43 00 00    	mov    0x43ec(%esi),%eax
 804a9e4:	c1 e8 10             	shr    $0x10,%eax
 804a9e7:	01 c8                	add    %ecx,%eax
 804a9e9:	89 c1                	mov    %eax,%ecx
 804a9eb:	0f b7 85 d4 fe ff ff 	movzwl -0x12c(%ebp),%eax
 804a9f2:	66 03 86 ec 43 00 00 	add    0x43ec(%esi),%ax
 804a9f9:	c1 e1 10             	shl    $0x10,%ecx
 804a9fc:	0f b7 c0             	movzwl %ax,%eax
 804a9ff:	09 c8                	or     %ecx,%eax
 804aa01:	0f b7 8e f6 43 00 00 	movzwl 0x43f6(%esi),%ecx
 804aa08:	89 86 ec 43 00 00    	mov    %eax,0x43ec(%esi)
 804aa0e:	8d 86 fa 43 00 00    	lea    0x43fa(%esi),%eax
 804aa14:	8d 0c 89             	lea    (%ecx,%ecx,4),%ecx
 804aa17:	8d 8c 09 04 44 00 00 	lea    0x4404(%ecx,%ecx,1),%ecx
 804aa1e:	01 f1                	add    %esi,%ecx
 804aa20:	0f b7 b5 d8 fe ff ff 	movzwl -0x128(%ebp),%esi
 804aa27:	eb 0a                	jmp    804aa33 <PAL_InterpretInstruction+0xf73>
 804aa29:	8d b4 26 00 00 00 00 	lea    0x0(%esi,%eiz,1),%esi
 804aa30:	0f b7 10             	movzwl (%eax),%edx
 804aa33:	29 f2                	sub    %esi,%edx
 804aa35:	66 29 58 02          	sub    %bx,0x2(%eax)
 804aa39:	83 c0 0a             	add    $0xa,%eax
 804aa3c:	66 89 50 f6          	mov    %dx,-0xa(%eax)
 804aa40:	39 c8                	cmp    %ecx,%eax
 804aa42:	75 ec                	jne    804aa30 <PAL_InterpretInstruction+0xf70>
 804aa44:	66 83 7f 06 ff       	cmpw   $0xffff,0x6(%edi)
 804aa49:	0f 84 f1 f2 ff ff    	je     8049d40 <PAL_InterpretInstruction+0x280>
 804aa4f:	e8 ec cc 00 00       	call   8057740 <PAL_MakeScene>
 804aa54:	83 ec 0c             	sub    $0xc,%esp
 804aa57:	6a 00                	push   $0x0
 804aa59:	e8 c2 b4 01 00       	call   8065f20 <VIDEO_UpdateScreen>
 804aa5e:	83 c4 10             	add    $0x10,%esp
 804aa61:	e9 da f2 ff ff       	jmp    8049d40 <PAL_InterpretInstruction+0x280>
 804aa66:	0f b7 47 04          	movzwl 0x4(%edi),%eax
 804aa6a:	8b 9d d4 fe ff ff    	mov    -0x12c(%ebp),%ebx
 804aa70:	66 89 43 06          	mov    %ax,0x6(%ebx)
 804aa74:	e9 c7 f2 ff ff       	jmp    8049d40 <PAL_InterpretInstruction+0x280>
 804aa79:	0f b7 86 f8 43 00 00 	movzwl 0x43f8(%esi),%eax
 804aa80:	0f b7 9e f6 43 00 00 	movzwl 0x43f6(%esi),%ebx
 804aa87:	0f b7 8c 46 1c 26 00 	movzwl 0x261c(%esi,%eax,2),%ecx
 804aa8e:	00 
 804aa8f:	66 39 8c 46 34 26 00 	cmp    %cx,0x2634(%esi,%eax,2)
 804aa96:	00 
 804aa97:	0f 82 ce 21 00 00    	jb     804cc6b <PAL_InterpretInstruction+0x31ab>
 804aa9d:	8d 96 02 44 00 00    	lea    0x4402(%esi),%edx
 804aaa3:	31 c0                	xor    %eax,%eax
 804aaa5:	eb 25                	jmp    804aacc <PAL_InterpretInstruction+0x100c>
 804aaa7:	89 f6                	mov    %esi,%esi
 804aaa9:	8d bc 27 00 00 00 00 	lea    0x0(%edi,%eiz,1),%edi
 804aab0:	0f b7 0a             	movzwl (%edx),%ecx
 804aab3:	83 c2 0a             	add    $0xa,%edx
 804aab6:	0f b7 bc 4e 1c 26 00 	movzwl 0x261c(%esi,%ecx,2),%edi
 804aabd:	00 
 804aabe:	66 39 bc 4e 34 26 00 	cmp    %di,0x2634(%esi,%ecx,2)
 804aac5:	00 
 804aac6:	0f 82 aa 17 00 00    	jb     804c276 <PAL_InterpretInstruction+0x27b6>
 804aacc:	83 c0 01             	add    $0x1,%eax
 804aacf:	39 d8                	cmp    %ebx,%eax
 804aad1:	7e dd                	jle    804aab0 <PAL_InterpretInstruction+0xff0>
 804aad3:	e9 68 f2 ff ff       	jmp    8049d40 <PAL_InterpretInstruction+0x280>
 804aad8:	e8 33 b9 01 00       	call   8066410 <VIDEO_BackupScreen>
 804aadd:	e8 5e cc 00 00       	call   8057740 <PAL_MakeScene>
 804aae2:	0f b7 47 02          	movzwl 0x2(%edi),%eax
 804aae6:	83 ec 0c             	sub    $0xc,%esp
 804aae9:	50                   	push   %eax
 804aaea:	e8 71 ba 01 00       	call   8066560 <VIDEO_FadeScreen>
 804aaef:	83 c4 10             	add    $0x10,%esp
 804aaf2:	e9 49 f2 ff ff       	jmp    8049d40 <PAL_InterpretInstruction+0x280>
 804aaf7:	0f b7 47 04          	movzwl 0x4(%edi),%eax
 804aafb:	66 89 9e 5c 44 00 00 	mov    %bx,0x445c(%esi)
 804ab02:	66 89 86 5e 44 00 00 	mov    %ax,0x445e(%esi)
 804ab09:	e9 32 f2 ff ff       	jmp    8049d40 <PAL_InterpretInstruction+0x280>
 804ab0e:	0f b7 4f 06          	movzwl 0x6(%edi),%ecx
 804ab12:	0f b7 57 04          	movzwl 0x4(%edi),%edx
 804ab16:	83 ec 0c             	sub    $0xc,%esp
 804ab19:	6a 02                	push   $0x2
 804ab1b:	0f b7 c3             	movzwl %bx,%eax
 804ab1e:	e8 fd e4 ff ff       	call   8049020 <PAL_PartyWalkTo>
 804ab23:	83 c4 10             	add    $0x10,%esp
 804ab26:	e9 15 f2 ff ff       	jmp    8049d40 <PAL_InterpretInstruction+0x280>
 804ab2b:	8b 85 d4 fe ff ff    	mov    -0x12c(%ebp),%eax
 804ab31:	0f b7 40 0c          	movzwl 0xc(%eax),%eax
 804ab35:	66 3b 47 04          	cmp    0x4(%edi),%ax
 804ab39:	0f 85 01 f2 ff ff    	jne    8049d40 <PAL_InterpretInstruction+0x280>
 804ab3f:	8b 9d d8 fe ff ff    	mov    -0x128(%ebp),%ebx
 804ab45:	66 89 43 0c          	mov    %ax,0xc(%ebx)
 804ab49:	e9 f2 f1 ff ff       	jmp    8049d40 <PAL_InterpretInstruction+0x280>
 804ab4e:	8d 86 3c 44 00 00    	lea    0x443c(%esi),%eax
 804ab54:	8d 96 24 44 00 00    	lea    0x4424(%esi),%edx
 804ab5a:	8b 08                	mov    (%eax),%ecx
 804ab5c:	83 e8 06             	sub    $0x6,%eax
 804ab5f:	89 48 0c             	mov    %ecx,0xc(%eax)
 804ab62:	0f b7 48 0a          	movzwl 0xa(%eax),%ecx
 804ab66:	66 89 48 10          	mov    %cx,0x10(%eax)
 804ab6a:	39 d0                	cmp    %edx,%eax
 804ab6c:	75 ec                	jne    804ab5a <PAL_InterpretInstruction+0x109a>
 804ab6e:	0f b7 86 48 44 00 00 	movzwl 0x4448(%esi),%eax
 804ab75:	8b 96 f0 43 00 00    	mov    0x43f0(%esi),%edx
 804ab7b:	66 89 86 2e 44 00 00 	mov    %ax,0x442e(%esi)
 804ab82:	89 d0                	mov    %edx,%eax
 804ab84:	66 03 86 ec 43 00 00 	add    0x43ec(%esi),%ax
 804ab8b:	c1 ea 10             	shr    $0x10,%edx
 804ab8e:	66 89 86 2a 44 00 00 	mov    %ax,0x442a(%esi)
 804ab95:	8b 86 ec 43 00 00    	mov    0x43ec(%esi),%eax
 804ab9b:	c1 e8 10             	shr    $0x10,%eax
 804ab9e:	01 c2                	add    %eax,%edx
 804aba0:	66 89 96 2c 44 00 00 	mov    %dx,0x442c(%esi)
 804aba7:	0f b7 57 04          	movzwl 0x4(%edi),%edx
 804abab:	8d 0c 02             	lea    (%edx,%eax,1),%ecx
 804abae:	89 d8                	mov    %ebx,%eax
 804abb0:	66 03 86 ec 43 00 00 	add    0x43ec(%esi),%ax
 804abb7:	c1 e1 10             	shl    $0x10,%ecx
 804abba:	0f b7 c0             	movzwl %ax,%eax
 804abbd:	09 c8                	or     %ecx,%eax
 804abbf:	89 86 ec 43 00 00    	mov    %eax,0x43ec(%esi)
 804abc5:	0f b7 47 06          	movzwl 0x6(%edi),%eax
 804abc9:	c1 e0 03             	shl    $0x3,%eax
 804abcc:	66 85 db             	test   %bx,%bx
 804abcf:	66 89 86 f4 43 00 00 	mov    %ax,0x43f4(%esi)
 804abd6:	75 09                	jne    804abe1 <PAL_InterpretInstruction+0x1121>
 804abd8:	66 85 d2             	test   %dx,%dx
 804abdb:	0f 84 5f f1 ff ff    	je     8049d40 <PAL_InterpretInstruction+0x280>
 804abe1:	83 ec 0c             	sub    $0xc,%esp
 804abe4:	6a 01                	push   $0x1
 804abe6:	e8 e5 cf 00 00       	call   8057bd0 <PAL_UpdatePartyGestures>
 804abeb:	83 c4 10             	add    $0x10,%esp
 804abee:	e9 4d f1 ff ff       	jmp    8049d40 <PAL_InterpretInstruction+0x280>
 804abf3:	66 85 db             	test   %bx,%bx
 804abf6:	0f 84 44 f1 ff ff    	je     8049d40 <PAL_InterpretInstruction+0x280>
 804abfc:	0f b7 47 04          	movzwl 0x4(%edi),%eax
 804ac00:	66 85 c0             	test   %ax,%ax
 804ac03:	74 08                	je     804ac0d <PAL_InterpretInstruction+0x114d>
 804ac05:	0f b7 d3             	movzwl %bx,%edx
 804ac08:	66 89 44 d6 22       	mov    %ax,0x22(%esi,%edx,8)
 804ac0d:	0f b7 57 06          	movzwl 0x6(%edi),%edx
 804ac11:	66 85 d2             	test   %dx,%dx
 804ac14:	74 08                	je     804ac1e <PAL_InterpretInstruction+0x115e>
 804ac16:	0f b7 cb             	movzwl %bx,%ecx
 804ac19:	66 89 54 ce 24       	mov    %dx,0x24(%esi,%ecx,8)
 804ac1e:	66 09 c2             	or     %ax,%dx
 804ac21:	0f 85 19 f1 ff ff    	jne    8049d40 <PAL_InterpretInstruction+0x280>
 804ac27:	0f b7 c3             	movzwl %bx,%eax
 804ac2a:	8d 04 c6             	lea    (%esi,%eax,8),%eax
 804ac2d:	66 c7 40 22 00 00    	movw   $0x0,0x22(%eax)
 804ac33:	66 c7 40 24 00 00    	movw   $0x0,0x24(%eax)
 804ac39:	e9 02 f1 ff ff       	jmp    8049d40 <PAL_InterpretInstruction+0x280>
 804ac3e:	8b 9d d4 fe ff ff    	mov    -0x12c(%ebp),%ebx
 804ac44:	0f b7 47 04          	movzwl 0x4(%edi),%eax
 804ac48:	83 ec 08             	sub    $0x8,%esp
 804ac4b:	66 01 43 02          	add    %ax,0x2(%ebx)
 804ac4f:	0f b7 47 06          	movzwl 0x6(%edi),%eax
 804ac53:	0f b7 bd b8 fe ff ff 	movzwl -0x148(%ebp),%edi
 804ac5a:	66 01 43 04          	add    %ax,0x4(%ebx)
 804ac5e:	6a 00                	push   $0x0
 804ac60:	57                   	push   %edi
 804ac61:	e8 8a d1 00 00       	call   8057df0 <PAL_NPCWalkOneStep>
 804ac66:	83 c4 10             	add    $0x10,%esp
 804ac69:	e9 d2 f0 ff ff       	jmp    8049d40 <PAL_InterpretInstruction+0x280>
 804ac6e:	0f bf c3             	movswl %bx,%eax
 804ac71:	a3 54 8b 09 08       	mov    %eax,0x8098b54
 804ac76:	e9 c5 f0 ff ff       	jmp    8049d40 <PAL_InterpretInstruction+0x280>
 804ac7b:	83 ec 08             	sub    $0x8,%esp
 804ac7e:	0f b7 c3             	movzwl %bx,%eax
 804ac81:	0f b7 d2             	movzwl %dx,%edx
 804ac84:	50                   	push   %eax
 804ac85:	52                   	push   %edx
 804ac86:	e8 95 b0 00 00       	call   8055d20 <PAL_BattleStealFromEnemy>
 804ac8b:	83 c4 10             	add    $0x10,%esp
 804ac8e:	e9 ad f0 ff ff       	jmp    8049d40 <PAL_InterpretInstruction+0x280>
 804ac93:	e8 28 42 00 00       	call   804eec0 <PAL_BattleEnemyEscape>
 804ac98:	e9 a3 f0 ff ff       	jmp    8049d40 <PAL_InterpretInstruction+0x280>
 804ac9d:	a1 48 8b 09 08       	mov    0x8098b48,%eax
 804aca2:	85 c0                	test   %eax,%eax
 804aca4:	0f 84 96 f0 ff ff    	je     8049d40 <PAL_InterpretInstruction+0x280>
 804acaa:	0f b7 85 d0 fe ff ff 	movzwl -0x130(%ebp),%eax
 804acb1:	66 89 85 de fe ff ff 	mov    %ax,-0x122(%ebp)
 804acb8:	e9 83 f0 ff ff       	jmp    8049d40 <PAL_InterpretInstruction+0x280>
 804acbd:	0f b7 d2             	movzwl %dx,%edx
 804acc0:	69 c2 cc 00 00 00    	imul   $0xcc,%edx,%eax
 804acc6:	66 89 98 14 84 09 08 	mov    %bx,0x8098414(%eax)
 804accd:	0f b7 47 04          	movzwl 0x4(%edi),%eax
 804acd1:	66 85 c0             	test   %ax,%ax
 804acd4:	75 02                	jne    804acd8 <PAL_InterpretInstruction+0x1218>
 804acd6:	b0 0a                	mov    $0xa,%al
 804acd8:	69 d2 cc 00 00 00    	imul   $0xcc,%edx,%edx
 804acde:	66 89 82 16 84 09 08 	mov    %ax,0x8098416(%edx)
 804ace5:	e9 56 f0 ff ff       	jmp    8049d40 <PAL_InterpretInstruction+0x280>
 804acea:	0f b7 05 50 8b 09 08 	movzwl 0x8098b50,%eax
 804acf1:	0f b7 5f 04          	movzwl 0x4(%edi),%ebx
 804acf5:	83 ec 08             	sub    $0x8,%esp
 804acf8:	89 95 d8 fe ff ff    	mov    %edx,-0x128(%ebp)
 804acfe:	8d 04 80             	lea    (%eax,%eax,4),%eax
 804ad01:	8d 1c 9b             	lea    (%ebx,%ebx,4),%ebx
 804ad04:	0f b7 84 46 f8 43 00 	movzwl 0x43f8(%esi,%eax,2),%eax
 804ad0b:	00 
 804ad0c:	66 03 9c 46 94 26 00 	add    0x2694(%esi,%eax,2),%bx
 804ad13:	00 
 804ad14:	6a 04                	push   $0x4
 804ad16:	6a 00                	push   $0x0
 804ad18:	e8 23 eb 00 00       	call   8059840 <RandomLong>
 804ad1d:	01 d8                	add    %ebx,%eax
 804ad1f:	83 c4 0c             	add    $0xc,%esp
 804ad22:	8b 95 d8 fe ff ff    	mov    -0x128(%ebp),%edx
 804ad28:	0f b7 c0             	movzwl %ax,%eax
 804ad2b:	50                   	push   %eax
 804ad2c:	0f b7 47 02          	movzwl 0x2(%edi),%eax
 804ad30:	0f bf d2             	movswl %dx,%edx
 804ad33:	50                   	push   %eax
 804ad34:	52                   	push   %edx
 804ad35:	e8 e6 b2 00 00       	call   8056020 <PAL_BattleSimulateMagic>
 804ad3a:	83 c4 10             	add    $0x10,%esp
 804ad3d:	e9 fe ef ff ff       	jmp    8049d40 <PAL_InterpretInstruction+0x280>
 804ad42:	0f b7 57 04          	movzwl 0x4(%edi),%edx
 804ad46:	0f b7 c3             	movzwl %bx,%eax
 804ad49:	66 89 94 46 e0 25 00 	mov    %dx,0x25e0(%esi,%eax,2)
 804ad50:	00 
 804ad51:	8b 86 d8 2a 00 00    	mov    0x2ad8(%esi),%eax
 804ad57:	85 c0                	test   %eax,%eax
 804ad59:	0f 85 e1 ef ff ff    	jne    8049d40 <PAL_InterpretInstruction+0x280>
 804ad5f:	66 83 7f 06 00       	cmpw   $0x0,0x6(%edi)
 804ad64:	0f 84 d6 ef ff ff    	je     8049d40 <PAL_InterpretInstruction+0x280>
 804ad6a:	83 ec 0c             	sub    $0xc,%esp
 804ad6d:	6a 02                	push   $0x2
 804ad6f:	e8 cc 25 01 00       	call   805d340 <PAL_SetLoadFlags>
 804ad74:	e8 e7 25 01 00       	call   805d360 <PAL_LoadResources>
 804ad79:	83 c4 10             	add    $0x10,%esp
 804ad7c:	e9 bf ef ff ff       	jmp    8049d40 <PAL_InterpretInstruction+0x280>
 804ad81:	0f b7 c2             	movzwl %dx,%eax
 804ad84:	69 c0 cc 00 00 00    	imul   $0xcc,%eax,%eax
 804ad8a:	0f b7 90 0c 84 09 08 	movzwl 0x809840c(%eax),%edx
 804ad91:	0f b7 80 f4 83 09 08 	movzwl 0x80983f4(%eax),%eax
 804ad98:	8d 04 40             	lea    (%eax,%eax,2),%eax
 804ad9b:	6b d2 64             	imul   $0x64,%edx,%edx
 804ad9e:	0f b7 84 86 88 09 00 	movzwl 0x988(%esi,%eax,4),%eax
 804ada5:	00 
 804ada6:	6b c0 46             	imul   $0x46,%eax,%eax
 804ada9:	03 86 b8 25 00 00    	add    0x25b8(%esi),%eax
 804adaf:	0f b7 48 16          	movzwl 0x16(%eax),%ecx
 804adb3:	0f b7 c3             	movzwl %bx,%eax
 804adb6:	0f af c1             	imul   %ecx,%eax
 804adb9:	39 c2                	cmp    %eax,%edx
 804adbb:	0f 8e 7f ef ff ff    	jle    8049d40 <PAL_InterpretInstruction+0x280>
 804adc1:	0f b7 47 04          	movzwl 0x4(%edi),%eax
 804adc5:	83 e8 01             	sub    $0x1,%eax
 804adc8:	66 89 85 de fe ff ff 	mov    %ax,-0x122(%ebp)
 804adcf:	e9 6c ef ff ff       	jmp    8049d40 <PAL_InterpretInstruction+0x280>
 804add4:	b8 03 00 00 00       	mov    $0x3,%eax
 804add9:	66 89 9e 62 44 00 00 	mov    %bx,0x4462(%esi)
 804ade0:	66 89 86 60 44 00 00 	mov    %ax,0x4460(%esi)
 804ade7:	e9 54 ef ff ff       	jmp    8049d40 <PAL_InterpretInstruction+0x280>
 804adec:	31 c0                	xor    %eax,%eax
 804adee:	66 89 9e 62 44 00 00 	mov    %bx,0x4462(%esi)
 804adf5:	66 89 86 60 44 00 00 	mov    %ax,0x4460(%esi)
 804adfc:	e9 3f ef ff ff       	jmp    8049d40 <PAL_InterpretInstruction+0x280>
 804ae01:	83 ec 08             	sub    $0x8,%esp
 804ae04:	0f b7 d2             	movzwl %dx,%edx
 804ae07:	6a 01                	push   $0x1
 804ae09:	52                   	push   %edx
 804ae0a:	e8 01 1b 01 00       	call   805c910 <PAL_IsPlayerPoisonedByLevel>
 804ae0f:	83 c4 10             	add    $0x10,%esp
 804ae12:	85 c0                	test   %eax,%eax
 804ae14:	0f 85 26 ef ff ff    	jne    8049d40 <PAL_InterpretInstruction+0x280>
 804ae1a:	0f b7 47 02          	movzwl 0x2(%edi),%eax
 804ae1e:	83 e8 01             	sub    $0x1,%eax
 804ae21:	66 89 85 de fe ff ff 	mov    %ax,-0x122(%ebp)
 804ae28:	e9 13 ef ff ff       	jmp    8049d40 <PAL_InterpretInstruction+0x280>
 804ae2d:	0f b7 c2             	movzwl %dx,%eax
 804ae30:	31 d2                	xor    %edx,%edx
 804ae32:	69 c0 cc 00 00 00    	imul   $0xcc,%eax,%eax
 804ae38:	66 89 90 0c 84 09 08 	mov    %dx,0x809840c(%eax)
 804ae3f:	e9 fc ee ff ff       	jmp    8049d40 <PAL_InterpretInstruction+0x280>
 804ae44:	0f b7 d2             	movzwl %dx,%edx
 804ae47:	31 c9                	xor    %ecx,%ecx
 804ae49:	66 89 8c 56 34 26 00 	mov    %cx,0x2634(%esi,%edx,2)
 804ae50:	00 
 804ae51:	e9 ea ee ff ff       	jmp    8049d40 <PAL_InterpretInstruction+0x280>
 804ae56:	0f b7 d2             	movzwl %dx,%edx
 804ae59:	31 c0                	xor    %eax,%eax
 804ae5b:	69 d2 cc 00 00 00    	imul   $0xcc,%edx,%edx
 804ae61:	8d b4 26 00 00 00 00 	lea    0x0(%esi,%eiz,1),%esi
 804ae68:	66 3b 9c 82 54 84 09 	cmp    0x8098454(%edx,%eax,4),%bx
 804ae6f:	08 
 804ae70:	0f 84 ca ee ff ff    	je     8049d40 <PAL_InterpretInstruction+0x280>
 804ae76:	83 c0 01             	add    $0x1,%eax
 804ae79:	83 f8 10             	cmp    $0x10,%eax
 804ae7c:	75 ea                	jne    804ae68 <PAL_InterpretInstruction+0x13a8>
 804ae7e:	0f b7 47 04          	movzwl 0x4(%edi),%eax
 804ae82:	83 e8 01             	sub    $0x1,%eax
 804ae85:	66 89 85 de fe ff ff 	mov    %ax,-0x122(%ebp)
 804ae8c:	e9 af ee ff ff       	jmp    8049d40 <PAL_InterpretInstruction+0x280>
 804ae91:	83 ec 08             	sub    $0x8,%esp
 804ae94:	0f b7 c3             	movzwl %bx,%eax
 804ae97:	0f b7 d2             	movzwl %dx,%edx
 804ae9a:	50                   	push   %eax
 804ae9b:	52                   	push   %edx
 804ae9c:	e8 0f 1b 01 00       	call   805c9b0 <PAL_IsPlayerPoisonedByKind>
 804aea1:	83 c4 10             	add    $0x10,%esp
 804aea4:	85 c0                	test   %eax,%eax
 804aea6:	0f 85 94 ee ff ff    	jne    8049d40 <PAL_InterpretInstruction+0x280>
 804aeac:	0f b7 47 04          	movzwl 0x4(%edi),%eax
 804aeb0:	83 e8 01             	sub    $0x1,%eax
 804aeb3:	66 89 85 de fe ff ff 	mov    %ax,-0x122(%ebp)
 804aeba:	e9 81 ee ff ff       	jmp    8049d40 <PAL_InterpretInstruction+0x280>
 804aebf:	0f b7 c3             	movzwl %bx,%eax
 804aec2:	f7 d8                	neg    %eax
 804aec4:	a3 4c 8b 09 08       	mov    %eax,0x8098b4c
 804aec9:	e9 72 ee ff ff       	jmp    8049d40 <PAL_InterpretInstruction+0x280>
 804aece:	0f b7 c2             	movzwl %dx,%eax
 804aed1:	69 c0 cc 00 00 00    	imul   $0xcc,%eax,%eax
 804aed7:	05 00 84 09 08       	add    $0x8098400,%eax
 804aedc:	0f b7 48 0c          	movzwl 0xc(%eax),%ecx
 804aee0:	89 ca                	mov    %ecx,%edx
 804aee2:	66 d1 ea             	shr    %dx
 804aee5:	83 c2 01             	add    $0x1,%edx
 804aee8:	66 39 da             	cmp    %bx,%dx
 804aeeb:	76 02                	jbe    804aeef <PAL_InterpretInstruction+0x142f>
 804aeed:	89 da                	mov    %ebx,%edx
 804aeef:	29 d1                	sub    %edx,%ecx
 804aef1:	66 89 48 0c          	mov    %cx,0xc(%eax)
 804aef5:	e9 46 ee ff ff       	jmp    8049d40 <PAL_InterpretInstruction+0x280>
 804aefa:	0f b7 d2             	movzwl %dx,%edx
 804aefd:	66 d1 ac 56 34 26 00 	shrw   0x2634(%esi,%edx,2)
 804af04:	00 
 804af05:	e9 36 ee ff ff       	jmp    8049d40 <PAL_InterpretInstruction+0x280>
 804af0a:	66 81 bd d0 fe ff ff 	cmpw   $0x12b,-0x130(%ebp)
 804af11:	2b 01 
 804af13:	0f 87 27 ee ff ff    	ja     8049d40 <PAL_InterpretInstruction+0x280>
 804af19:	66 3b 9e 4a 44 00 00 	cmp    0x444a(%esi),%bx
 804af20:	0f 84 1a ee ff ff    	je     8049d40 <PAL_InterpretInstruction+0x280>
 804af26:	83 ec 0c             	sub    $0xc,%esp
 804af29:	66 89 9e 4a 44 00 00 	mov    %bx,0x444a(%esi)
 804af30:	31 db                	xor    %ebx,%ebx
 804af32:	6a 01                	push   $0x1
 804af34:	e8 07 24 01 00       	call   805d340 <PAL_SetLoadFlags>
 804af39:	a1 08 72 09 08       	mov    0x8097208,%eax
 804af3e:	83 c4 10             	add    $0x10,%esp
 804af41:	c7 80 d0 2a 00 00 01 	movl   $0x1,0x2ad0(%eax)
 804af48:	00 00 00 
 804af4b:	66 89 98 f4 43 00 00 	mov    %bx,0x43f4(%eax)
 804af52:	e9 e9 ed ff ff       	jmp    8049d40 <PAL_InterpretInstruction+0x280>
 804af57:	83 ec 0c             	sub    $0xc,%esp
 804af5a:	0f b7 c3             	movzwl %bx,%eax
 804af5d:	50                   	push   %eax
 804af5e:	e8 2d 0b 01 00       	call   805ba90 <PAL_GetItemAmount>
 804af63:	0f bf 57 04          	movswl 0x4(%edi),%edx
 804af67:	83 c4 10             	add    $0x10,%esp
 804af6a:	39 d0                	cmp    %edx,%eax
 804af6c:	0f 8d ce ed ff ff    	jge    8049d40 <PAL_InterpretInstruction+0x280>
 804af72:	0f b7 47 06          	movzwl 0x6(%edi),%eax
 804af76:	83 e8 01             	sub    $0x1,%eax
 804af79:	66 89 85 de fe ff ff 	mov    %ax,-0x122(%ebp)
 804af80:	e9 bb ed ff ff       	jmp    8049d40 <PAL_InterpretInstruction+0x280>
 804af85:	0f b7 4f 04          	movzwl 0x4(%edi),%ecx
 804af89:	66 85 c9             	test   %cx,%cx
 804af8c:	75 02                	jne    804af90 <PAL_InterpretInstruction+0x14d0>
 804af8e:	b1 08                	mov    $0x8,%cl
 804af90:	0f b7 c3             	movzwl %bx,%eax
 804af93:	0f b7 d2             	movzwl %dx,%edx
 804af96:	8d 04 40             	lea    (%eax,%eax,2),%eax
 804af99:	8d 14 56             	lea    (%esi,%edx,2),%edx
 804af9c:	0f b7 84 86 88 09 00 	movzwl 0x988(%esi,%eax,4),%eax
 804afa3:	00 
 804afa4:	66 0f af 8a 40 26 00 	imul   0x2640(%edx),%cx
 804afab:	00 
 804afac:	c1 e0 05             	shl    $0x5,%eax
 804afaf:	03 86 4c 29 00 00    	add    0x294c(%esi),%eax
 804afb5:	31 f6                	xor    %esi,%esi
 804afb7:	66 89 48 1a          	mov    %cx,0x1a(%eax)
 804afbb:	66 89 b2 40 26 00 00 	mov    %si,0x2640(%edx)
 804afc2:	e9 79 ed ff ff       	jmp    8049d40 <PAL_InterpretInstruction+0x280>
 804afc7:	0f b7 47 04          	movzwl 0x4(%edi),%eax
 804afcb:	85 c0                	test   %eax,%eax
 804afcd:	8d 48 ff             	lea    -0x1(%eax),%ecx
 804afd0:	75 03                	jne    804afd5 <PAL_InterpretInstruction+0x1515>
 804afd2:	0f b7 ca             	movzwl %dx,%ecx
 804afd5:	83 ec 08             	sub    $0x8,%esp
 804afd8:	0f b7 c3             	movzwl %bx,%eax
 804afdb:	50                   	push   %eax
 804afdc:	51                   	push   %ecx
 804afdd:	e8 ce 1d 01 00       	call   805cdb0 <PAL_RemoveMagic>
 804afe2:	83 c4 10             	add    $0x10,%esp
 804afe5:	e9 56 ed ff ff       	jmp    8049d40 <PAL_InterpretInstruction+0x280>
 804afea:	0f b7 47 04          	movzwl 0x4(%edi),%eax
 804afee:	85 c0                	test   %eax,%eax
 804aff0:	8d 48 ff             	lea    -0x1(%eax),%ecx
 804aff3:	75 03                	jne    804aff8 <PAL_InterpretInstruction+0x1538>
 804aff5:	0f b7 ca             	movzwl %dx,%ecx
 804aff8:	83 ec 08             	sub    $0x8,%esp
 804affb:	0f b7 c3             	movzwl %bx,%eax
 804affe:	50                   	push   %eax
 804afff:	51                   	push   %ecx
 804b000:	e8 0b 1d 01 00       	call   805cd10 <PAL_AddMagic>
 804b005:	83 c4 10             	add    $0x10,%esp
 804b008:	e9 33 ed ff ff       	jmp    8049d40 <PAL_InterpretInstruction+0x280>
 804b00d:	c7 86 50 44 00 00 01 	movl   $0x1,0x4450(%esi)
 804b014:	00 00 00 
 804b017:	e9 24 ed ff ff       	jmp    8049d40 <PAL_InterpretInstruction+0x280>
 804b01c:	c7 86 50 44 00 00 00 	movl   $0x0,0x4450(%esi)
 804b023:	00 00 00 
 804b026:	e9 15 ed ff ff       	jmp    8049d40 <PAL_InterpretInstruction+0x280>
 804b02b:	8b 85 d8 fe ff ff    	mov    -0x128(%ebp),%eax
 804b031:	66 f7 58 0c          	negw   0xc(%eax)
 804b035:	66 85 db             	test   %bx,%bx
 804b038:	b8 20 03 00 00       	mov    $0x320,%eax
 804b03d:	74 02                	je     804b041 <PAL_InterpretInstruction+0x1581>
 804b03f:	89 d8                	mov    %ebx,%eax
 804b041:	8b 9d d8 fe ff ff    	mov    -0x128(%ebp),%ebx
 804b047:	66 89 03             	mov    %ax,(%ebx)
 804b04a:	e9 f1 ec ff ff       	jmp    8049d40 <PAL_InterpretInstruction+0x280>
 804b04f:	83 ec 0c             	sub    $0xc,%esp
 804b052:	6a 00                	push   $0x0
 804b054:	e8 c7 ae 01 00       	call   8065f20 <VIDEO_UpdateScreen>
 804b059:	0f b7 47 02          	movzwl 0x2(%edi),%eax
 804b05d:	83 c4 10             	add    $0x10,%esp
 804b060:	ba 01 00 00 00       	mov    $0x1,%edx
 804b065:	66 85 c0             	test   %ax,%ax
 804b068:	7e 03                	jle    804b06d <PAL_InterpretInstruction+0x15ad>
 804b06a:	0f b7 d0             	movzwl %ax,%edx
 804b06d:	a1 08 72 09 08       	mov    0x8097208,%eax
 804b072:	83 ec 04             	sub    $0x4,%esp
 804b075:	52                   	push   %edx
 804b076:	ff b0 50 44 00 00    	pushl  0x4450(%eax)
 804b07c:	0f b7 80 4c 44 00 00 	movzwl 0x444c(%eax),%eax
 804b083:	50                   	push   %eax
 804b084:	e8 87 a3 01 00       	call   8065410 <PAL_FadeIn>
 804b089:	a1 08 72 09 08       	mov    0x8097208,%eax
 804b08e:	83 c4 10             	add    $0x10,%esp
 804b091:	c7 80 d4 2a 00 00 00 	movl   $0x0,0x2ad4(%eax)
 804b098:	00 00 00 
 804b09b:	e9 a0 ec ff ff       	jmp    8049d40 <PAL_InterpretInstruction+0x280>
 804b0a0:	83 ec 0c             	sub    $0xc,%esp
 804b0a3:	6a 00                	push   $0x0
 804b0a5:	e8 76 ae 01 00       	call   8065f20 <VIDEO_UpdateScreen>
 804b0aa:	0f b7 57 02          	movzwl 0x2(%edi),%edx
 804b0ae:	83 c4 10             	add    $0x10,%esp
 804b0b1:	b8 01 00 00 00       	mov    $0x1,%eax
 804b0b6:	66 85 d2             	test   %dx,%dx
 804b0b9:	74 03                	je     804b0be <PAL_InterpretInstruction+0x15fe>
 804b0bb:	0f b7 c2             	movzwl %dx,%eax
 804b0be:	83 ec 0c             	sub    $0xc,%esp
 804b0c1:	50                   	push   %eax
 804b0c2:	e8 59 a2 01 00       	call   8065320 <PAL_FadeOut>
 804b0c7:	a1 08 72 09 08       	mov    0x8097208,%eax
 804b0cc:	83 c4 10             	add    $0x10,%esp
 804b0cf:	c7 80 d4 2a 00 00 01 	movl   $0x1,0x2ad4(%eax)
 804b0d6:	00 00 00 
 804b0d9:	e9 62 ec ff ff       	jmp    8049d40 <PAL_InterpretInstruction+0x280>
 804b0de:	e8 cd aa 01 00       	call   8065bb0 <PAL_FadeToRed>
 804b0e3:	e9 58 ec ff ff       	jmp    8049d40 <PAL_InterpretInstruction+0x280>
 804b0e8:	83 ec 0c             	sub    $0xc,%esp
 804b0eb:	6a 01                	push   $0x1
 804b0ed:	e8 2e a2 01 00       	call   8065320 <PAL_FadeOut>
 804b0f2:	a1 08 72 09 08       	mov    0x8097208,%eax
 804b0f7:	0f b6 80 b8 2a 00 00 	movzbl 0x2ab8(%eax),%eax
 804b0fe:	89 04 24             	mov    %eax,(%esp)
 804b101:	e8 2a 0e 01 00       	call   805bf30 <PAL_InitGameData>
 804b106:	83 c4 10             	add    $0x10,%esp
 804b109:	31 c0                	xor    %eax,%eax
 804b10b:	e9 3a ec ff ff       	jmp    8049d4a <PAL_InterpretInstruction+0x28a>
 804b110:	83 ec 0c             	sub    $0xc,%esp
 804b113:	6a 00                	push   $0x0
 804b115:	e8 b6 de ff ff       	call   8048fd0 <PAL_WaitForKey>
 804b11a:	83 c4 10             	add    $0x10,%esp
 804b11d:	e9 1e ec ff ff       	jmp    8049d40 <PAL_InterpretInstruction+0x280>
 804b122:	8b 85 d8 fe ff ff    	mov    -0x128(%ebp),%eax
 804b128:	be f1 ff ff ff       	mov    $0xfffffff1,%esi
 804b12d:	66 89 30             	mov    %si,(%eax)
 804b130:	e9 0b ec ff ff       	jmp    8049d40 <PAL_InterpretInstruction+0x280>
 804b135:	66 89 9e 58 44 00 00 	mov    %bx,0x4458(%esi)
 804b13c:	e9 ff eb ff ff       	jmp    8049d40 <PAL_InterpretInstruction+0x280>
 804b141:	0f b7 47 04          	movzwl 0x4(%edi),%eax
 804b145:	8b 9d d4 fe ff ff    	mov    -0x12c(%ebp),%ebx
 804b14b:	66 89 43 0c          	mov    %ax,0xc(%ebx)
 804b14f:	e9 ec eb ff ff       	jmp    8049d40 <PAL_InterpretInstruction+0x280>
 804b154:	83 ec 08             	sub    $0x8,%esp
 804b157:	0f b7 c3             	movzwl %bx,%eax
 804b15a:	6a 00                	push   $0x0
 804b15c:	50                   	push   %eax
 804b15d:	e8 fe bb 00 00       	call   8056d60 <SOUND_PlayChannel>
 804b162:	83 c4 10             	add    $0x10,%esp
 804b165:	e9 d6 eb ff ff       	jmp    8049d40 <PAL_InterpretInstruction+0x280>
 804b16a:	0f b7 47 04          	movzwl 0x4(%edi),%eax
 804b16e:	83 ec 04             	sub    $0x4,%esp
 804b171:	0f b7 d2             	movzwl %dx,%edx
 804b174:	50                   	push   %eax
 804b175:	0f b7 c3             	movzwl %bx,%eax
 804b178:	50                   	push   %eax
 804b179:	52                   	push   %edx
 804b17a:	e8 81 1c 01 00       	call   805ce00 <PAL_SetPlayerStatus>
 804b17f:	83 c4 10             	add    $0x10,%esp
 804b182:	e9 b9 eb ff ff       	jmp    8049d40 <PAL_InterpretInstruction+0x280>
 804b187:	66 85 db             	test   %bx,%bx
 804b18a:	0f 84 25 13 00 00    	je     804c4b5 <PAL_InterpretInstruction+0x29f5>
 804b190:	8b 85 cc fe ff ff    	mov    -0x134(%ebp),%eax
 804b196:	31 db                	xor    %ebx,%ebx
 804b198:	90                   	nop
 804b199:	8d b4 26 00 00 00 00 	lea    0x0(%esi,%eiz,1),%esi
 804b1a0:	0f b7 57 04          	movzwl 0x4(%edi),%edx
 804b1a4:	83 ec 08             	sub    $0x8,%esp
 804b1a7:	52                   	push   %edx
 804b1a8:	8d 14 9b             	lea    (%ebx,%ebx,4),%edx
 804b1ab:	83 c3 01             	add    $0x1,%ebx
 804b1ae:	0f b7 84 50 f8 43 00 	movzwl 0x43f8(%eax,%edx,2),%eax
 804b1b5:	00 
 804b1b6:	50                   	push   %eax
 804b1b7:	e8 c4 16 01 00       	call   805c880 <PAL_CurePoisonByLevel>
 804b1bc:	a1 08 72 09 08       	mov    0x8097208,%eax
 804b1c1:	83 c4 10             	add    $0x10,%esp
 804b1c4:	0f b7 90 f6 43 00 00 	movzwl 0x43f6(%eax),%edx
 804b1cb:	39 da                	cmp    %ebx,%edx
 804b1cd:	7d d1                	jge    804b1a0 <PAL_InterpretInstruction+0x16e0>
 804b1cf:	e9 6c eb ff ff       	jmp    8049d40 <PAL_InterpretInstruction+0x280>
 804b1d4:	66 85 db             	test   %bx,%bx
 804b1d7:	0f 84 bf 12 00 00    	je     804c49c <PAL_InterpretInstruction+0x29dc>
 804b1dd:	8b 85 cc fe ff ff    	mov    -0x134(%ebp),%eax
 804b1e3:	31 db                	xor    %ebx,%ebx
 804b1e5:	8d 76 00             	lea    0x0(%esi),%esi
 804b1e8:	0f b7 57 04          	movzwl 0x4(%edi),%edx
 804b1ec:	83 ec 08             	sub    $0x8,%esp
 804b1ef:	52                   	push   %edx
 804b1f0:	8d 14 9b             	lea    (%ebx,%ebx,4),%edx
 804b1f3:	83 c3 01             	add    $0x1,%ebx
 804b1f6:	0f b7 84 50 f8 43 00 	movzwl 0x43f8(%eax,%edx,2),%eax
 804b1fd:	00 
 804b1fe:	50                   	push   %eax
 804b1ff:	e8 ec 15 01 00       	call   805c7f0 <PAL_CurePoisonByKind>
 804b204:	a1 08 72 09 08       	mov    0x8097208,%eax
 804b209:	83 c4 10             	add    $0x10,%esp
 804b20c:	0f b7 90 f6 43 00 00 	movzwl 0x43f6(%eax),%edx
 804b213:	39 da                	cmp    %ebx,%edx
 804b215:	7d d1                	jge    804b1e8 <PAL_InterpretInstruction+0x1728>
 804b217:	e9 24 eb ff ff       	jmp    8049d40 <PAL_InterpretInstruction+0x280>
 804b21c:	0f bf 47 06          	movswl 0x6(%edi),%eax
 804b220:	83 e8 01             	sub    $0x1,%eax
 804b223:	0f 88 b1 12 00 00    	js     804c4da <PAL_InterpretInstruction+0x2a1a>
 804b229:	0f b7 57 04          	movzwl 0x4(%edi),%edx
 804b22d:	83 ec 04             	sub    $0x4,%esp
 804b230:	98                   	cwtl   
 804b231:	52                   	push   %edx
 804b232:	0f b7 d3             	movzwl %bx,%edx
 804b235:	52                   	push   %edx
 804b236:	50                   	push   %eax
 804b237:	e8 e4 ad 00 00       	call   8056020 <PAL_BattleSimulateMagic>
 804b23c:	83 c4 10             	add    $0x10,%esp
 804b23f:	e9 fc ea ff ff       	jmp    8049d40 <PAL_InterpretInstruction+0x280>
 804b244:	66 85 db             	test   %bx,%bx
 804b247:	0f 84 3a 12 00 00    	je     804c487 <PAL_InterpretInstruction+0x29c7>
 804b24d:	8b 85 cc fe ff ff    	mov    -0x134(%ebp),%eax
 804b253:	31 db                	xor    %ebx,%ebx
 804b255:	8d 76 00             	lea    0x0(%esi),%esi
 804b258:	0f bf 57 04          	movswl 0x4(%edi),%edx
 804b25c:	83 ec 04             	sub    $0x4,%esp
 804b25f:	52                   	push   %edx
 804b260:	52                   	push   %edx
 804b261:	8d 14 9b             	lea    (%ebx,%ebx,4),%edx
 804b264:	83 c3 01             	add    $0x1,%ebx
 804b267:	0f b7 84 50 f8 43 00 	movzwl 0x43f8(%eax,%edx,2),%eax
 804b26e:	00 
 804b26f:	50                   	push   %eax
 804b270:	e8 7b 0b 01 00       	call   805bdf0 <PAL_IncreaseHPMP>
 804b275:	a1 08 72 09 08       	mov    0x8097208,%eax
 804b27a:	83 c4 10             	add    $0x10,%esp
 804b27d:	0f b7 90 f6 43 00 00 	movzwl 0x43f6(%eax),%edx
 804b284:	39 da                	cmp    %ebx,%edx
 804b286:	7d d0                	jge    804b258 <PAL_InterpretInstruction+0x1798>
 804b288:	e9 b3 ea ff ff       	jmp    8049d40 <PAL_InterpretInstruction+0x280>
 804b28d:	0f b7 86 48 44 00 00 	movzwl 0x4448(%esi),%eax
 804b294:	0f b7 57 06          	movzwl 0x6(%edi),%edx
 804b298:	66 83 f8 02          	cmp    $0x2,%ax
 804b29c:	66 89 85 d0 fe ff ff 	mov    %ax,-0x130(%ebp)
 804b2a3:	19 c9                	sbb    %ecx,%ecx
 804b2a5:	83 e8 01             	sub    $0x1,%eax
 804b2a8:	83 e1 20             	and    $0x20,%ecx
 804b2ab:	83 e9 10             	sub    $0x10,%ecx
 804b2ae:	66 83 f8 02          	cmp    $0x2,%ax
 804b2b2:	19 c0                	sbb    %eax,%eax
 804b2b4:	89 8d d8 fe ff ff    	mov    %ecx,-0x128(%ebp)
 804b2ba:	83 e0 10             	and    $0x10,%eax
 804b2bd:	83 e8 08             	sub    $0x8,%eax
 804b2c0:	89 85 d4 fe ff ff    	mov    %eax,-0x12c(%ebp)
 804b2c6:	0f b7 c3             	movzwl %bx,%eax
 804b2c9:	8b 9e f0 43 00 00    	mov    0x43f0(%esi),%ebx
 804b2cf:	8d 04 42             	lea    (%edx,%eax,2),%eax
 804b2d2:	c1 e0 04             	shl    $0x4,%eax
 804b2d5:	0f bf cb             	movswl %bx,%ecx
 804b2d8:	c1 fb 10             	sar    $0x10,%ebx
 804b2db:	89 85 cc fe ff ff    	mov    %eax,-0x134(%ebp)
 804b2e1:	0f b7 47 04          	movzwl 0x4(%edi),%eax
 804b2e5:	8d 04 42             	lea    (%edx,%eax,2),%eax
 804b2e8:	c1 e0 03             	shl    $0x3,%eax
 804b2eb:	29 d8                	sub    %ebx,%eax
 804b2ed:	89 c2                	mov    %eax,%edx
 804b2ef:	8b 85 cc fe ff ff    	mov    -0x134(%ebp),%eax
 804b2f5:	c7 85 cc fe ff ff 05 	movl   $0x5,-0x134(%ebp)
 804b2fc:	00 00 00 
 804b2ff:	c1 e2 10             	shl    $0x10,%edx
 804b302:	29 c8                	sub    %ecx,%eax
 804b304:	0f b7 c0             	movzwl %ax,%eax
 804b307:	09 d0                	or     %edx,%eax
 804b309:	89 86 ec 43 00 00    	mov    %eax,0x43ec(%esi)
 804b30f:	66 89 85 c8 fe ff ff 	mov    %ax,-0x138(%ebp)
 804b316:	c1 e8 10             	shr    $0x10,%eax
 804b319:	89 85 b8 fe ff ff    	mov    %eax,-0x148(%ebp)
 804b31f:	31 c0                	xor    %eax,%eax
 804b321:	8d 14 80             	lea    (%eax,%eax,4),%edx
 804b324:	0f b7 bd c8 fe ff ff 	movzwl -0x138(%ebp),%edi
 804b32b:	8d 94 12 f0 43 00 00 	lea    0x43f0(%edx,%edx,1),%edx
 804b332:	01 f2                	add    %esi,%edx
 804b334:	01 cf                	add    %ecx,%edi
 804b336:	66 89 4a 0a          	mov    %cx,0xa(%edx)
 804b33a:	66 89 5a 0c          	mov    %bx,0xc(%edx)
 804b33e:	8d 14 40             	lea    (%eax,%eax,2),%edx
 804b341:	03 8d d8 fe ff ff    	add    -0x128(%ebp),%ecx
 804b347:	83 c0 01             	add    $0x1,%eax
 804b34a:	8d 94 12 20 44 00 00 	lea    0x4420(%edx,%edx,1),%edx
 804b351:	01 f2                	add    %esi,%edx
 804b353:	66 89 7a 0a          	mov    %di,0xa(%edx)
 804b357:	0f b7 bd b8 fe ff ff 	movzwl -0x148(%ebp),%edi
 804b35e:	01 df                	add    %ebx,%edi
 804b360:	03 9d d4 fe ff ff    	add    -0x12c(%ebp),%ebx
 804b366:	83 ad cc fe ff ff 01 	subl   $0x1,-0x134(%ebp)
 804b36d:	66 89 7a 0c          	mov    %di,0xc(%edx)
 804b371:	0f b7 bd d0 fe ff ff 	movzwl -0x130(%ebp),%edi
 804b378:	66 89 7a 0e          	mov    %di,0xe(%edx)
 804b37c:	75 a3                	jne    804b321 <PAL_InterpretInstruction+0x1861>
 804b37e:	e9 bd e9 ff ff       	jmp    8049d40 <PAL_InterpretInstruction+0x280>
 804b383:	66 85 db             	test   %bx,%bx
 804b386:	0f 84 b4 e9 ff ff    	je     8049d40 <PAL_InterpretInstruction+0x280>
 804b38c:	0f b7 47 04          	movzwl 0x4(%edi),%eax
 804b390:	8b 9d d4 fe ff ff    	mov    -0x12c(%ebp),%ebx
 804b396:	66 89 43 08          	mov    %ax,0x8(%ebx)
 804b39a:	e9 a1 e9 ff ff       	jmp    8049d40 <PAL_InterpretInstruction+0x280>
 804b39f:	66 85 db             	test   %bx,%bx
 804b3a2:	0f 84 98 e9 ff ff    	je     8049d40 <PAL_InterpretInstruction+0x280>
 804b3a8:	0f b7 47 04          	movzwl 0x4(%edi),%eax
 804b3ac:	8b 9d d4 fe ff ff    	mov    -0x12c(%ebp),%ebx
 804b3b2:	66 89 43 0a          	mov    %ax,0xa(%ebx)
 804b3b6:	e9 85 e9 ff ff       	jmp    8049d40 <PAL_InterpretInstruction+0x280>
 804b3bb:	0f b7 47 04          	movzwl 0x4(%edi),%eax
 804b3bf:	66 85 c0             	test   %ax,%ax
 804b3c2:	0f 85 de 0d 00 00    	jne    804c1a6 <PAL_InterpretInstruction+0x26e6>
 804b3c8:	31 db                	xor    %ebx,%ebx
 804b3ca:	8b b5 b4 fe ff ff    	mov    -0x14c(%ebp),%esi
 804b3d0:	8b 95 cc fe ff ff    	mov    -0x134(%ebp),%edx
 804b3d6:	eb 27                	jmp    804b3ff <PAL_InterpretInstruction+0x193f>
 804b3d8:	90                   	nop
 804b3d9:	8d b4 26 00 00 00 00 	lea    0x0(%esi,%eiz,1),%esi
 804b3e0:	83 ec 08             	sub    $0x8,%esp
 804b3e3:	53                   	push   %ebx
 804b3e4:	56                   	push   %esi
 804b3e5:	83 c3 01             	add    $0x1,%ebx
 804b3e8:	e8 f3 11 01 00       	call   805c5e0 <PAL_RemoveEquipmentEffect>
 804b3ed:	83 c4 10             	add    $0x10,%esp
 804b3f0:	83 fb 06             	cmp    $0x6,%ebx
 804b3f3:	0f 84 47 e9 ff ff    	je     8049d40 <PAL_InterpretInstruction+0x280>
 804b3f9:	8b 15 08 72 09 08    	mov    0x8097208,%edx
 804b3ff:	8d 04 5b             	lea    (%ebx,%ebx,2),%eax
 804b402:	8d bc 46 20 13 00 00 	lea    0x1320(%esi,%eax,2),%edi
 804b409:	0f b7 44 7a 0c       	movzwl 0xc(%edx,%edi,2),%eax
 804b40e:	66 85 c0             	test   %ax,%ax
 804b411:	74 cd                	je     804b3e0 <PAL_InterpretInstruction+0x1920>
 804b413:	83 ec 08             	sub    $0x8,%esp
 804b416:	6a 01                	push   $0x1
 804b418:	50                   	push   %eax
 804b419:	e8 72 05 01 00       	call   805b990 <PAL_AddItemToInventory>
 804b41e:	a1 08 72 09 08       	mov    0x8097208,%eax
 804b423:	31 d2                	xor    %edx,%edx
 804b425:	83 c4 10             	add    $0x10,%esp
 804b428:	66 89 54 78 0c       	mov    %dx,0xc(%eax,%edi,2)
 804b42d:	eb b1                	jmp    804b3e0 <PAL_InterpretInstruction+0x1920>
 804b42f:	66 85 db             	test   %bx,%bx
 804b432:	0f 84 1b 0e 00 00    	je     804c253 <PAL_InterpretInstruction+0x2793>
 804b438:	c7 05 08 04 08 08 00 	movl   $0x0,0x8080408
 804b43f:	00 00 00 
 804b442:	31 db                	xor    %ebx,%ebx
 804b444:	89 bd d8 fe ff ff    	mov    %edi,-0x128(%ebp)
 804b44a:	eb 16                	jmp    804b462 <PAL_InterpretInstruction+0x19a2>
 804b44c:	8d 74 26 00          	lea    0x0(%esi,%eiz,1),%esi
 804b450:	0f b7 86 f6 43 00 00 	movzwl 0x43f6(%esi),%eax
 804b457:	83 c3 01             	add    $0x1,%ebx
 804b45a:	39 d8                	cmp    %ebx,%eax
 804b45c:	0f 8c de e8 ff ff    	jl     8049d40 <PAL_InterpretInstruction+0x280>
 804b462:	8d 04 9b             	lea    (%ebx,%ebx,4),%eax
 804b465:	0f b7 bc 46 f8 43 00 	movzwl 0x43f8(%esi,%eax,2),%edi
 804b46c:	00 
 804b46d:	8d 0c 7e             	lea    (%esi,%edi,2),%ecx
 804b470:	66 83 b9 34 26 00 00 	cmpw   $0x0,0x2634(%ecx)
 804b477:	00 
 804b478:	75 d6                	jne    804b450 <PAL_InterpretInstruction+0x1990>
 804b47a:	8b 85 d8 fe ff ff    	mov    -0x128(%ebp),%eax
 804b480:	0f b7 b1 1c 26 00 00 	movzwl 0x261c(%ecx),%esi
 804b487:	83 ec 08             	sub    $0x8,%esp
 804b48a:	0f b7 40 04          	movzwl 0x4(%eax),%eax
 804b48e:	0f af f0             	imul   %eax,%esi
 804b491:	b8 67 66 66 66       	mov    $0x66666667,%eax
 804b496:	f7 ee                	imul   %esi
 804b498:	c1 fe 1f             	sar    $0x1f,%esi
 804b49b:	c1 fa 02             	sar    $0x2,%edx
 804b49e:	29 f2                	sub    %esi,%edx
 804b4a0:	31 f6                	xor    %esi,%esi
 804b4a2:	66 89 91 34 26 00 00 	mov    %dx,0x2634(%ecx)
 804b4a9:	6a 03                	push   $0x3
 804b4ab:	57                   	push   %edi
 804b4ac:	e8 cf 13 01 00       	call   805c880 <PAL_CurePoisonByLevel>
 804b4b1:	83 c4 10             	add    $0x10,%esp
 804b4b4:	8d 74 26 00          	lea    0x0(%esi,%eiz,1),%esi
 804b4b8:	83 ec 08             	sub    $0x8,%esp
 804b4bb:	56                   	push   %esi
 804b4bc:	57                   	push   %edi
 804b4bd:	83 c6 01             	add    $0x1,%esi
 804b4c0:	e8 cb 1a 01 00       	call   805cf90 <PAL_RemovePlayerStatus>
 804b4c5:	83 c4 10             	add    $0x10,%esp
 804b4c8:	83 fe 09             	cmp    $0x9,%esi
 804b4cb:	75 eb                	jne    804b4b8 <PAL_InterpretInstruction+0x19f8>
 804b4cd:	c7 05 08 04 08 08 01 	movl   $0x1,0x8080408
 804b4d4:	00 00 00 
 804b4d7:	8b 35 08 72 09 08    	mov    0x8097208,%esi
 804b4dd:	e9 6e ff ff ff       	jmp    804b450 <PAL_InterpretInstruction+0x1990>
 804b4e2:	66 85 db             	test   %bx,%bx
 804b4e5:	0f 84 9b 0c 00 00    	je     804c186 <PAL_InterpretInstruction+0x26c6>
 804b4eb:	0f b7 15 f0 87 09 08 	movzwl 0x80987f0,%edx
 804b4f2:	b8 40 83 09 08       	mov    $0x8098340,%eax
 804b4f7:	83 c2 01             	add    $0x1,%edx
 804b4fa:	69 d2 cc 00 00 00    	imul   $0xcc,%edx,%edx
 804b500:	01 c2                	add    %eax,%edx
 804b502:	8d b6 00 00 00 00    	lea    0x0(%esi),%esi
 804b508:	66 83 b8 b4 00 00 00 	cmpw   $0x0,0xb4(%eax)
 804b50f:	00 
 804b510:	74 0b                	je     804b51d <PAL_InterpretInstruction+0x1a5d>
 804b512:	0f b7 4f 04          	movzwl 0x4(%edi),%ecx
 804b516:	66 29 88 cc 00 00 00 	sub    %cx,0xcc(%eax)
 804b51d:	05 cc 00 00 00       	add    $0xcc,%eax
 804b522:	39 d0                	cmp    %edx,%eax
 804b524:	75 e2                	jne    804b508 <PAL_InterpretInstruction+0x1a48>
 804b526:	e9 15 e8 ff ff       	jmp    8049d40 <PAL_InterpretInstruction+0x280>
 804b52b:	0f b7 57 04          	movzwl 0x4(%edi),%edx
 804b52f:	b8 ff ff ff ff       	mov    $0xffffffff,%eax
 804b534:	66 85 d2             	test   %dx,%dx
 804b537:	74 05                	je     804b53e <PAL_InterpretInstruction+0x1a7e>
 804b539:	0f b7 c2             	movzwl %dx,%eax
 804b53c:	f7 d8                	neg    %eax
 804b53e:	83 ec 08             	sub    $0x8,%esp
 804b541:	50                   	push   %eax
 804b542:	0f b7 c3             	movzwl %bx,%eax
 804b545:	50                   	push   %eax
 804b546:	e8 45 04 01 00       	call   805b990 <PAL_AddItemToInventory>
 804b54b:	83 c4 10             	add    $0x10,%esp
 804b54e:	85 c0                	test   %eax,%eax
 804b550:	0f 85 ea e7 ff ff    	jne    8049d40 <PAL_InterpretInstruction+0x280>
 804b556:	0f b7 47 04          	movzwl 0x4(%edi),%eax
 804b55a:	85 c0                	test   %eax,%eax
 804b55c:	89 85 d0 fe ff ff    	mov    %eax,-0x130(%ebp)
 804b562:	a1 08 72 09 08       	mov    0x8097208,%eax
 804b567:	75 0a                	jne    804b573 <PAL_InterpretInstruction+0x1ab3>
 804b569:	c7 85 d0 fe ff ff 01 	movl   $0x1,-0x130(%ebp)
 804b570:	00 00 00 
 804b573:	31 c9                	xor    %ecx,%ecx
 804b575:	89 fa                	mov    %edi,%edx
 804b577:	89 f6                	mov    %esi,%esi
 804b579:	8d bc 27 00 00 00 00 	lea    0x0(%edi,%eiz,1),%edi
 804b580:	8d 1c 89             	lea    (%ecx,%ecx,4),%ebx
 804b583:	89 8d d8 fe ff ff    	mov    %ecx,-0x128(%ebp)
 804b589:	0f b7 bc 58 f8 43 00 	movzwl 0x43f8(%eax,%ebx,2),%edi
 804b590:	00 
 804b591:	31 db                	xor    %ebx,%ebx
 804b593:	90                   	nop
 804b594:	8d 74 26 00          	lea    0x0(%esi,%eiz,1),%esi
 804b598:	8d 34 5b             	lea    (%ebx,%ebx,2),%esi
 804b59b:	0f b7 4a 02          	movzwl 0x2(%edx),%ecx
 804b59f:	8d b4 77 20 13 00 00 	lea    0x1320(%edi,%esi,2),%esi
 804b5a6:	66 39 4c 70 0c       	cmp    %cx,0xc(%eax,%esi,2)
 804b5ab:	0f 84 9f 08 00 00    	je     804be50 <PAL_InterpretInstruction+0x2390>
 804b5b1:	83 c3 01             	add    $0x1,%ebx
 804b5b4:	83 fb 06             	cmp    $0x6,%ebx
 804b5b7:	75 df                	jne    804b598 <PAL_InterpretInstruction+0x1ad8>
 804b5b9:	8b 8d d8 fe ff ff    	mov    -0x128(%ebp),%ecx
 804b5bf:	83 c1 01             	add    $0x1,%ecx
 804b5c2:	0f b7 98 f6 43 00 00 	movzwl 0x43f6(%eax),%ebx
 804b5c9:	39 cb                	cmp    %ecx,%ebx
 804b5cb:	7d b3                	jge    804b580 <PAL_InterpretInstruction+0x1ac0>
 804b5cd:	8b 8d d0 fe ff ff    	mov    -0x130(%ebp),%ecx
 804b5d3:	85 c9                	test   %ecx,%ecx
 804b5d5:	0f 8e 65 e7 ff ff    	jle    8049d40 <PAL_InterpretInstruction+0x280>
 804b5db:	0f b7 42 06          	movzwl 0x6(%edx),%eax
 804b5df:	66 85 c0             	test   %ax,%ax
 804b5e2:	0f 84 58 e7 ff ff    	je     8049d40 <PAL_InterpretInstruction+0x280>
 804b5e8:	83 e8 01             	sub    $0x1,%eax
 804b5eb:	66 89 85 de fe ff ff 	mov    %ax,-0x122(%ebp)
 804b5f2:	e9 49 e7 ff ff       	jmp    8049d40 <PAL_InterpretInstruction+0x280>
 804b5f7:	0f b7 c3             	movzwl %bx,%eax
 804b5fa:	89 86 c8 2a 00 00    	mov    %eax,0x2ac8(%esi)
 804b600:	e9 3b e7 ff ff       	jmp    8049d40 <PAL_InterpretInstruction+0x280>
 804b605:	0f b7 47 04          	movzwl 0x4(%edi),%eax
 804b609:	85 c0                	test   %eax,%eax
 804b60b:	75 02                	jne    804b60f <PAL_InterpretInstruction+0x1b4f>
 804b60d:	b0 04                	mov    $0x4,%al
 804b60f:	83 ec 08             	sub    $0x8,%esp
 804b612:	50                   	push   %eax
 804b613:	0f b7 c3             	movzwl %bx,%eax
 804b616:	50                   	push   %eax
 804b617:	e8 34 ae 01 00       	call   8066450 <VIDEO_ShakeScreen>
 804b61c:	83 c4 10             	add    $0x10,%esp
 804b61f:	66 83 7f 02 00       	cmpw   $0x0,0x2(%edi)
 804b624:	0f 85 16 e7 ff ff    	jne    8049d40 <PAL_InterpretInstruction+0x280>
 804b62a:	83 ec 0c             	sub    $0xc,%esp
 804b62d:	6a 00                	push   $0x0
 804b62f:	e8 ec a8 01 00       	call   8065f20 <VIDEO_UpdateScreen>
 804b634:	83 c4 10             	add    $0x10,%esp
 804b637:	e9 04 e7 ff ff       	jmp    8049d40 <PAL_InterpretInstruction+0x280>
 804b63c:	66 83 be 5a 44 00 00 	cmpw   $0x0,0x445a(%esi)
 804b643:	00 
 804b644:	0f 85 7f 0d 00 00    	jne    804c3c9 <PAL_InterpretInstruction+0x2909>
 804b64a:	0f b7 85 d0 fe ff ff 	movzwl -0x130(%ebp),%eax
 804b651:	66 89 85 de fe ff ff 	mov    %ax,-0x122(%ebp)
 804b658:	e9 e3 e6 ff ff       	jmp    8049d40 <PAL_InterpretInstruction+0x280>
 804b65d:	0f b7 c2             	movzwl %dx,%eax
 804b660:	69 c0 cc 00 00 00    	imul   $0xcc,%eax,%eax
 804b666:	0f b7 80 3a 84 09 08 	movzwl 0x809843a(%eax),%eax
 804b66d:	66 85 c0             	test   %ax,%ax
 804b670:	0f 84 fd 0a 00 00    	je     804c173 <PAL_InterpretInstruction+0x26b3>
 804b676:	66 01 86 5a 44 00 00 	add    %ax,0x445a(%esi)
 804b67d:	e9 be e6 ff ff       	jmp    8049d40 <PAL_InterpretInstruction+0x280>
 804b682:	0f b7 d2             	movzwl %dx,%edx
 804b685:	66 89 9c 56 08 40 00 	mov    %bx,0x4008(%esi,%edx,2)
 804b68c:	00 
 804b68d:	e9 ae e6 ff ff       	jmp    8049d40 <PAL_InterpretInstruction+0x280>
 804b692:	0f b7 47 06          	movzwl 0x6(%edi),%eax
 804b696:	66 89 9e 48 44 00 00 	mov    %bx,0x4448(%esi)
 804b69d:	8d 14 80             	lea    (%eax,%eax,4),%edx
 804b6a0:	8d 04 5b             	lea    (%ebx,%ebx,2),%eax
 804b6a3:	66 03 47 04          	add    0x4(%edi),%ax
 804b6a7:	66 89 84 56 fe 43 00 	mov    %ax,0x43fe(%esi,%edx,2)
 804b6ae:	00 
 804b6af:	e9 8c e6 ff ff       	jmp    8049d40 <PAL_InterpretInstruction+0x280>
 804b6b4:	8b 85 d8 fe ff ff    	mov    -0x128(%ebp),%eax
 804b6ba:	31 c9                	xor    %ecx,%ecx
 804b6bc:	66 89 58 16          	mov    %bx,0x16(%eax)
 804b6c0:	66 89 48 14          	mov    %cx,0x14(%eax)
 804b6c4:	e9 77 e6 ff ff       	jmp    8049d40 <PAL_InterpretInstruction+0x280>
 804b6c9:	0f b7 47 04          	movzwl 0x4(%edi),%eax
 804b6cd:	8b 9d d4 fe ff ff    	mov    -0x12c(%ebp),%ebx
 804b6d3:	66 89 43 02          	mov    %ax,0x2(%ebx)
 804b6d7:	0f b7 47 06          	movzwl 0x6(%edi),%eax
 804b6db:	66 89 43 04          	mov    %ax,0x4(%ebx)
 804b6df:	e9 5c e6 ff ff       	jmp    8049d40 <PAL_InterpretInstruction+0x280>
 804b6e4:	8b 96 ec 43 00 00    	mov    0x43ec(%esi),%edx
 804b6ea:	8b 86 f0 43 00 00    	mov    0x43f0(%esi),%eax
 804b6f0:	8b 9d d4 fe ff ff    	mov    -0x12c(%ebp),%ebx
 804b6f6:	8d 0c 02             	lea    (%edx,%eax,1),%ecx
 804b6f9:	c1 ea 10             	shr    $0x10,%edx
 804b6fc:	c1 e8 10             	shr    $0x10,%eax
 804b6ff:	66 03 4f 04          	add    0x4(%edi),%cx
 804b703:	01 d0                	add    %edx,%eax
 804b705:	66 03 47 06          	add    0x6(%edi),%ax
 804b709:	66 89 4b 02          	mov    %cx,0x2(%ebx)
 804b70d:	66 89 43 04          	mov    %ax,0x4(%ebx)
 804b711:	e9 2a e6 ff ff       	jmp    8049d40 <PAL_InterpretInstruction+0x280>
 804b716:	0f b7 c2             	movzwl %dx,%eax
 804b719:	8b 96 30 4d 00 00    	mov    0x4d30(%esi),%edx
 804b71f:	31 c2                	xor    %eax,%edx
 804b721:	83 e2 01             	and    $0x1,%edx
 804b724:	0f 84 4a ef ff ff    	je     804a674 <PAL_InterpretInstruction+0xbb4>
 804b72a:	83 ec 08             	sub    $0x8,%esp
 804b72d:	0f b7 4f 04          	movzwl 0x4(%edi),%ecx
 804b731:	0f b7 d3             	movzwl %bx,%edx
 804b734:	6a 02                	push   $0x2
 804b736:	e9 86 ef ff ff       	jmp    804a6c1 <PAL_InterpretInstruction+0xc01>
 804b73b:	83 ec 08             	sub    $0x8,%esp
 804b73e:	0f b7 4f 04          	movzwl 0x4(%edi),%ecx
 804b742:	0f b7 f3             	movzwl %bx,%esi
 804b745:	0f b7 c2             	movzwl %dx,%eax
 804b748:	6a 03                	push   $0x3
 804b74a:	e9 0e ef ff ff       	jmp    804a65d <PAL_InterpretInstruction+0xb9d>
 804b74f:	66 83 fb ff          	cmp    $0xffff,%bx
 804b753:	74 0a                	je     804b75f <PAL_InterpretInstruction+0x1c9f>
 804b755:	8b 85 d8 fe ff ff    	mov    -0x128(%ebp),%eax
 804b75b:	66 89 58 14          	mov    %bx,0x14(%eax)
 804b75f:	0f b7 47 04          	movzwl 0x4(%edi),%eax
 804b763:	66 83 f8 ff          	cmp    $0xffff,%ax
 804b767:	0f 84 d3 e5 ff ff    	je     8049d40 <PAL_InterpretInstruction+0x280>
 804b76d:	8b 9d d8 fe ff ff    	mov    -0x128(%ebp),%ebx
 804b773:	66 89 43 16          	mov    %ax,0x16(%ebx)
 804b777:	e9 c4 e5 ff ff       	jmp    8049d40 <PAL_InterpretInstruction+0x280>
 804b77c:	8b 9d d8 fe ff ff    	mov    -0x128(%ebp),%ebx
 804b782:	83 ec 08             	sub    $0x8,%esp
 804b785:	83 e8 0b             	sub    $0xb,%eax
 804b788:	0f b7 d2             	movzwl %dx,%edx
 804b78b:	66 89 43 14          	mov    %ax,0x14(%ebx)
 804b78f:	6a 02                	push   $0x2
 804b791:	52                   	push   %edx
 804b792:	e8 59 c6 00 00       	call   8057df0 <PAL_NPCWalkOneStep>
 804b797:	83 c4 10             	add    $0x10,%esp
 804b79a:	e9 a1 e5 ff ff       	jmp    8049d40 <PAL_InterpretInstruction+0x280>
 804b79f:	0f b7 47 06          	movzwl 0x6(%edi),%eax
 804b7a3:	8d 8e c8 25 00 00    	lea    0x25c8(%esi),%ecx
 804b7a9:	0f b7 d2             	movzwl %dx,%edx
 804b7ac:	66 85 c0             	test   %ax,%ax
 804b7af:	74 06                	je     804b7b7 <PAL_InterpretInstruction+0x1cf7>
 804b7b1:	0f b7 d0             	movzwl %ax,%edx
 804b7b4:	83 ea 01             	sub    $0x1,%edx
 804b7b7:	0f b7 c3             	movzwl %bx,%eax
 804b7ba:	8d 04 40             	lea    (%eax,%eax,2),%eax
 804b7bd:	8d 04 42             	lea    (%edx,%eax,2),%eax
 804b7c0:	0f b7 57 04          	movzwl 0x4(%edi),%edx
 804b7c4:	66 01 14 41          	add    %dx,(%ecx,%eax,2)
 804b7c8:	e9 73 e5 ff ff       	jmp    8049d40 <PAL_InterpretInstruction+0x280>
 804b7cd:	83 eb 0b             	sub    $0xb,%ebx
 804b7d0:	83 ec 08             	sub    $0x8,%esp
 804b7d3:	0f b7 f2             	movzwl %dx,%esi
 804b7d6:	0f b7 c3             	movzwl %bx,%eax
 804b7d9:	89 1d 04 04 08 08    	mov    %ebx,0x8080404
 804b7df:	50                   	push   %eax
 804b7e0:	56                   	push   %esi
 804b7e1:	e8 fa 0d 01 00       	call   805c5e0 <PAL_RemoveEquipmentEffect>
 804b7e6:	8d 04 5b             	lea    (%ebx,%ebx,2),%eax
 804b7e9:	83 c4 10             	add    $0x10,%esp
 804b7ec:	8d 14 46             	lea    (%esi,%eax,2),%edx
 804b7ef:	a1 08 72 09 08       	mov    0x8097208,%eax
 804b7f4:	8d 14 50             	lea    (%eax,%edx,2),%edx
 804b7f7:	0f b7 47 04          	movzwl 0x4(%edi),%eax
 804b7fb:	0f b7 9a 4c 26 00 00 	movzwl 0x264c(%edx),%ebx
 804b802:	66 39 c3             	cmp    %ax,%bx
 804b805:	0f 84 35 e5 ff ff    	je     8049d40 <PAL_InterpretInstruction+0x280>
 804b80b:	83 ec 08             	sub    $0x8,%esp
 804b80e:	66 89 82 4c 26 00 00 	mov    %ax,0x264c(%edx)
 804b815:	6a ff                	push   $0xffffffff
 804b817:	50                   	push   %eax
 804b818:	e8 73 01 01 00       	call   805b990 <PAL_AddItemToInventory>
 804b81d:	83 c4 10             	add    $0x10,%esp
 804b820:	66 85 db             	test   %bx,%bx
 804b823:	0f 85 78 10 00 00    	jne    804c8a1 <PAL_InterpretInstruction+0x2de1>
 804b829:	a1 08 72 09 08       	mov    0x8097208,%eax
 804b82e:	66 89 98 e2 2a 00 00 	mov    %bx,0x2ae2(%eax)
 804b835:	e9 06 e5 ff ff       	jmp    8049d40 <PAL_InterpretInstruction+0x280>
 804b83a:	0f b7 cb             	movzwl %bx,%ecx
 804b83d:	0f b7 5f 04          	movzwl 0x4(%edi),%ebx
 804b841:	0f b7 d2             	movzwl %dx,%edx
 804b844:	0f b7 47 06          	movzwl 0x6(%edi),%eax
 804b848:	83 e9 0b             	sub    $0xb,%ecx
 804b84b:	69 c9 84 03 00 00    	imul   $0x384,%ecx,%ecx
 804b851:	8d 1c 5b             	lea    (%ebx,%ebx,2),%ebx
 804b854:	8d 14 5a             	lea    (%edx,%ebx,2),%edx
 804b857:	8d 14 56             	lea    (%esi,%edx,2),%edx
 804b85a:	66 89 84 11 e4 2a 00 	mov    %ax,0x2ae4(%ecx,%edx,1)
 804b861:	00 
 804b862:	e9 d9 e4 ff ff       	jmp    8049d40 <PAL_InterpretInstruction+0x280>
 804b867:	66 85 db             	test   %bx,%bx
 804b86a:	0f 84 5e 0c 00 00    	je     804c4ce <PAL_InterpretInstruction+0x2a0e>
 804b870:	8b 85 cc fe ff ff    	mov    -0x134(%ebp),%eax
 804b876:	31 db                	xor    %ebx,%ebx
 804b878:	90                   	nop
 804b879:	8d b4 26 00 00 00 00 	lea    0x0(%esi,%eiz,1),%esi
 804b880:	0f bf 57 04          	movswl 0x4(%edi),%edx
 804b884:	83 ec 04             	sub    $0x4,%esp
 804b887:	6a 00                	push   $0x0
 804b889:	52                   	push   %edx
 804b88a:	8d 14 9b             	lea    (%ebx,%ebx,4),%edx
 804b88d:	83 c3 01             	add    $0x1,%ebx
 804b890:	0f b7 84 50 f8 43 00 	movzwl 0x43f8(%eax,%edx,2),%eax
 804b897:	00 
 804b898:	50                   	push   %eax
 804b899:	e8 52 05 01 00       	call   805bdf0 <PAL_IncreaseHPMP>
 804b89e:	a1 08 72 09 08       	mov    0x8097208,%eax
 804b8a3:	83 c4 10             	add    $0x10,%esp
 804b8a6:	0f b7 90 f6 43 00 00 	movzwl 0x43f6(%eax),%edx
 804b8ad:	39 da                	cmp    %ebx,%edx
 804b8af:	7d cf                	jge    804b880 <PAL_InterpretInstruction+0x1dc0>
 804b8b1:	e9 8a e4 ff ff       	jmp    8049d40 <PAL_InterpretInstruction+0x280>
 804b8b6:	a1 04 04 08 08       	mov    0x8080404,%eax
 804b8bb:	8d 8e c8 25 00 00    	lea    0x25c8(%esi),%ecx
 804b8c1:	83 f8 ff             	cmp    $0xffffffff,%eax
 804b8c4:	74 0d                	je     804b8d3 <PAL_InterpretInstruction+0x1e13>
 804b8c6:	69 c0 84 03 00 00    	imul   $0x384,%eax,%eax
 804b8cc:	8d 8c 06 e4 2a 00 00 	lea    0x2ae4(%esi,%eax,1),%ecx
 804b8d3:	0f b7 47 06          	movzwl 0x6(%edi),%eax
 804b8d7:	0f b7 d2             	movzwl %dx,%edx
 804b8da:	66 85 c0             	test   %ax,%ax
 804b8dd:	74 06                	je     804b8e5 <PAL_InterpretInstruction+0x1e25>
 804b8df:	0f b7 d0             	movzwl %ax,%edx
 804b8e2:	83 ea 01             	sub    $0x1,%edx
 804b8e5:	0f b7 c3             	movzwl %bx,%eax
 804b8e8:	0f b7 77 04          	movzwl 0x4(%edi),%esi
 804b8ec:	8d 04 40             	lea    (%eax,%eax,2),%eax
 804b8ef:	8d 04 42             	lea    (%edx,%eax,2),%eax
 804b8f2:	66 89 34 41          	mov    %si,(%ecx,%eax,2)
 804b8f6:	e9 45 e4 ff ff       	jmp    8049d40 <PAL_InterpretInstruction+0x280>
 804b8fb:	66 85 db             	test   %bx,%bx
 804b8fe:	0f 84 60 0b 00 00    	je     804c464 <PAL_InterpretInstruction+0x29a4>
 804b904:	8b 85 cc fe ff ff    	mov    -0x134(%ebp),%eax
 804b90a:	31 db                	xor    %ebx,%ebx
 804b90c:	8d 74 26 00          	lea    0x0(%esi,%eiz,1),%esi
 804b910:	0f bf 57 04          	movswl 0x4(%edi),%edx
 804b914:	83 ec 04             	sub    $0x4,%esp
 804b917:	52                   	push   %edx
 804b918:	8d 14 9b             	lea    (%ebx,%ebx,4),%edx
 804b91b:	6a 00                	push   $0x0
 804b91d:	83 c3 01             	add    $0x1,%ebx
 804b920:	0f b7 84 50 f8 43 00 	movzwl 0x43f8(%eax,%edx,2),%eax
 804b927:	00 
 804b928:	50                   	push   %eax
 804b929:	e8 c2 04 01 00       	call   805bdf0 <PAL_IncreaseHPMP>
 804b92e:	a1 08 72 09 08       	mov    0x8097208,%eax
 804b933:	83 c4 10             	add    $0x10,%esp
 804b936:	0f b7 90 f6 43 00 00 	movzwl 0x43f6(%eax),%edx
 804b93d:	39 da                	cmp    %ebx,%edx
 804b93f:	7d cf                	jge    804b910 <PAL_InterpretInstruction+0x1e50>
 804b941:	e9 fa e3 ff ff       	jmp    8049d40 <PAL_InterpretInstruction+0x280>
 804b946:	66 85 db             	test   %bx,%bx
 804b949:	0f 84 f1 e3 ff ff    	je     8049d40 <PAL_InterpretInstruction+0x280>
 804b94f:	0f b7 47 04          	movzwl 0x4(%edi),%eax
 804b953:	8b 9d d4 fe ff ff    	mov    -0x12c(%ebp),%ebx
 804b959:	66 89 43 14          	mov    %ax,0x14(%ebx)
 804b95d:	0f b7 47 06          	movzwl 0x6(%edi),%eax
 804b961:	66 89 43 16          	mov    %ax,0x16(%ebx)
 804b965:	e9 d6 e3 ff ff       	jmp    8049d40 <PAL_InterpretInstruction+0x280>
 804b96a:	66 85 db             	test   %bx,%bx
 804b96d:	0f 84 8e 09 00 00    	je     804c301 <PAL_InterpretInstruction+0x2841>
 804b973:	31 f6                	xor    %esi,%esi
 804b975:	89 bd d8 fe ff ff    	mov    %edi,-0x128(%ebp)
 804b97b:	8b 85 cc fe ff ff    	mov    -0x134(%ebp),%eax
 804b981:	89 f7                	mov    %esi,%edi
 804b983:	eb 1a                	jmp    804b99f <PAL_InterpretInstruction+0x1edf>
 804b985:	8d 76 00             	lea    0x0(%esi),%esi
 804b988:	a1 08 72 09 08       	mov    0x8097208,%eax
 804b98d:	83 c7 01             	add    $0x1,%edi
 804b990:	0f b7 88 f6 43 00 00 	movzwl 0x43f6(%eax),%ecx
 804b997:	39 f9                	cmp    %edi,%ecx
 804b999:	0f 8c a1 e3 ff ff    	jl     8049d40 <PAL_InterpretInstruction+0x280>
 804b99f:	8d 0c bf             	lea    (%edi,%edi,4),%ecx
 804b9a2:	83 ec 08             	sub    $0x8,%esp
 804b9a5:	0f b7 9c 48 f8 43 00 	movzwl 0x43f8(%eax,%ecx,2),%ebx
 804b9ac:	00 
 804b9ad:	6a 64                	push   $0x64
 804b9af:	6a 01                	push   $0x1
 804b9b1:	e8 8a de 00 00       	call   8059840 <RandomLong>
 804b9b6:	89 1c 24             	mov    %ebx,(%esp)
 804b9b9:	89 c6                	mov    %eax,%esi
 804b9bb:	e8 c0 11 01 00       	call   805cb80 <PAL_GetPlayerPoisonResistance>
 804b9c0:	0f b7 c0             	movzwl %ax,%eax
 804b9c3:	83 c4 10             	add    $0x10,%esp
 804b9c6:	39 c6                	cmp    %eax,%esi
 804b9c8:	7e be                	jle    804b988 <PAL_InterpretInstruction+0x1ec8>
 804b9ca:	8b 85 d8 fe ff ff    	mov    -0x128(%ebp),%eax
 804b9d0:	83 ec 08             	sub    $0x8,%esp
 804b9d3:	0f b7 40 04          	movzwl 0x4(%eax),%eax
 804b9d7:	50                   	push   %eax
 804b9d8:	53                   	push   %ebx
 804b9d9:	e8 52 0d 01 00       	call   805c730 <PAL_AddPoisonForPlayer>
 804b9de:	83 c4 10             	add    $0x10,%esp
 804b9e1:	eb a5                	jmp    804b988 <PAL_InterpretInstruction+0x1ec8>
 804b9e3:	66 85 db             	test   %bx,%bx
 804b9e6:	0f 84 9d 08 00 00    	je     804c289 <PAL_InterpretInstruction+0x27c9>
 804b9ec:	0f b7 85 b0 fe ff ff 	movzwl -0x150(%ebp),%eax
 804b9f3:	31 c9                	xor    %ecx,%ecx
 804b9f5:	31 db                	xor    %ebx,%ebx
 804b9f7:	89 bd d8 fe ff ff    	mov    %edi,-0x128(%ebp)
 804b9fd:	89 ce                	mov    %ecx,%esi
 804b9ff:	89 85 d4 fe ff ff    	mov    %eax,-0x12c(%ebp)
 804ba05:	eb 21                	jmp    804ba28 <PAL_InterpretInstruction+0x1f68>
 804ba07:	89 f6                	mov    %esi,%esi
 804ba09:	8d bc 27 00 00 00 00 	lea    0x0(%edi,%eiz,1),%edi
 804ba10:	0f b7 05 f0 87 09 08 	movzwl 0x80987f0,%eax
 804ba17:	83 c6 01             	add    $0x1,%esi
 804ba1a:	81 c3 cc 00 00 00    	add    $0xcc,%ebx
 804ba20:	39 f0                	cmp    %esi,%eax
 804ba22:	0f 8c 18 e3 ff ff    	jl     8049d40 <PAL_InterpretInstruction+0x280>
 804ba28:	0f b7 bb f4 83 09 08 	movzwl 0x80983f4(%ebx),%edi
 804ba2f:	66 85 ff             	test   %di,%di
 804ba32:	74 dc                	je     804ba10 <PAL_InterpretInstruction+0x1f50>
 804ba34:	83 ec 08             	sub    $0x8,%esp
 804ba37:	6a 09                	push   $0x9
 804ba39:	6a 00                	push   $0x0
 804ba3b:	e8 00 de 00 00       	call   8059840 <RandomLong>
 804ba40:	8b 0d 08 72 09 08    	mov    0x8097208,%ecx
 804ba46:	8d 14 7f             	lea    (%edi,%edi,2),%edx
 804ba49:	83 c4 10             	add    $0x10,%esp
 804ba4c:	0f b7 94 91 8a 09 00 	movzwl 0x98a(%ecx,%edx,4),%edx
 804ba53:	00 
 804ba54:	39 d0                	cmp    %edx,%eax
 804ba56:	7c b8                	jl     804ba10 <PAL_InterpretInstruction+0x1f50>
 804ba58:	8b 85 d8 fe ff ff    	mov    -0x128(%ebp),%eax
 804ba5e:	0f b7 50 04          	movzwl 0x4(%eax),%edx
 804ba62:	31 c0                	xor    %eax,%eax
 804ba64:	8d 74 26 00          	lea    0x0(%esi,%eiz,1),%esi
 804ba68:	66 39 94 83 54 84 09 	cmp    %dx,0x8098454(%ebx,%eax,4)
 804ba6f:	08 
 804ba70:	74 9e                	je     804ba10 <PAL_InterpretInstruction+0x1f50>
 804ba72:	83 c0 01             	add    $0x1,%eax
 804ba75:	83 f8 10             	cmp    $0x10,%eax
 804ba78:	75 ee                	jne    804ba68 <PAL_InterpretInstruction+0x1fa8>
 804ba7a:	30 c0                	xor    %al,%al
 804ba7c:	eb 0a                	jmp    804ba88 <PAL_InterpretInstruction+0x1fc8>
 804ba7e:	66 90                	xchg   %ax,%ax
 804ba80:	83 c0 01             	add    $0x1,%eax
 804ba83:	83 f8 10             	cmp    $0x10,%eax
 804ba86:	74 88                	je     804ba10 <PAL_InterpretInstruction+0x1f50>
 804ba88:	66 83 bc 83 54 84 09 	cmpw   $0x0,0x8098454(%ebx,%eax,4)
 804ba8f:	08 00 
 804ba91:	75 ed                	jne    804ba80 <PAL_InterpretInstruction+0x1fc0>
 804ba93:	6b fe 33             	imul   $0x33,%esi,%edi
 804ba96:	8d 7c 38 44          	lea    0x44(%eax,%edi,1),%edi
 804ba9a:	50                   	push   %eax
 804ba9b:	50                   	push   %eax
 804ba9c:	0f b7 c2             	movzwl %dx,%eax
 804ba9f:	ff b5 d4 fe ff ff    	pushl  -0x12c(%ebp)
 804baa5:	6b c0 0c             	imul   $0xc,%eax,%eax
 804baa8:	66 89 14 bd 44 83 09 	mov    %dx,0x8098344(,%edi,4)
 804baaf:	08 
 804bab0:	0f b7 84 01 90 09 00 	movzwl 0x990(%ecx,%eax,1),%eax
 804bab7:	00 
 804bab8:	50                   	push   %eax
 804bab9:	e8 92 da ff ff       	call   8049550 <PAL_RunTriggerScript>
 804babe:	83 c4 10             	add    $0x10,%esp
 804bac1:	66 89 04 bd 46 83 09 	mov    %ax,0x8098346(,%edi,4)
 804bac8:	08 
 804bac9:	e9 42 ff ff ff       	jmp    804ba10 <PAL_InterpretInstruction+0x1f50>
 804bace:	e8 6d bc 00 00       	call   8057740 <PAL_MakeScene>
 804bad3:	83 ec 0c             	sub    $0xc,%esp
 804bad6:	6a 00                	push   $0x0
 804bad8:	e8 43 a4 01 00       	call   8065f20 <VIDEO_UpdateScreen>
 804badd:	e8 4e 58 01 00       	call   8061330 <PAL_SellMenu>
 804bae2:	83 c4 10             	add    $0x10,%esp
 804bae5:	e9 56 e2 ff ff       	jmp    8049d40 <PAL_InterpretInstruction+0x280>
 804baea:	0f b7 c2             	movzwl %dx,%eax
 804baed:	0f b7 57 06          	movzwl 0x6(%edi),%edx
 804baf1:	0f b7 4f 04          	movzwl 0x4(%edi),%ecx
 804baf5:	83 ec 08             	sub    $0x8,%esp
 804baf8:	6a 04                	push   $0x4
 804bafa:	52                   	push   %edx
 804bafb:	89 da                	mov    %ebx,%edx
 804bafd:	e8 2e d8 ff ff       	call   8049330 <PAL_PartyRideEventObject>
 804bb02:	83 c4 10             	add    $0x10,%esp
 804bb05:	e9 36 e2 ff ff       	jmp    8049d40 <PAL_InterpretInstruction+0x280>
 804bb0a:	0f b7 47 04          	movzwl 0x4(%edi),%eax
 804bb0e:	83 ec 04             	sub    $0x4,%esp
 804bb11:	66 89 9e 54 44 00 00 	mov    %bx,0x4454(%esi)
 804bb18:	50                   	push   %eax
 804bb19:	31 c0                	xor    %eax,%eax
 804bb1b:	66 83 fb 3d          	cmp    $0x3d,%bx
 804bb1f:	0f 95 c0             	setne  %al
 804bb22:	50                   	push   %eax
 804bb23:	0f b7 c3             	movzwl %bx,%eax
 804bb26:	50                   	push   %eax
 804bb27:	e8 44 b2 00 00       	call   8056d70 <PAL_PlayMUS>
 804bb2c:	83 c4 10             	add    $0x10,%esp
 804bb2f:	e9 0c e2 ff ff       	jmp    8049d40 <PAL_InterpretInstruction+0x280>
 804bb34:	66 89 9e 56 44 00 00 	mov    %bx,0x4456(%esi)
 804bb3b:	e9 00 e2 ff ff       	jmp    8049d40 <PAL_InterpretInstruction+0x280>
 804bb40:	8b 3d 14 88 09 08    	mov    0x8098814,%edi
 804bb46:	85 ff                	test   %edi,%edi
 804bb48:	0f 84 44 09 00 00    	je     804c492 <PAL_InterpretInstruction+0x29d2>
 804bb4e:	0f b7 85 d0 fe ff ff 	movzwl -0x130(%ebp),%eax
 804bb55:	66 89 85 de fe ff ff 	mov    %ax,-0x122(%ebp)
 804bb5c:	e9 df e1 ff ff       	jmp    8049d40 <PAL_InterpretInstruction+0x280>
 804bb61:	0f b7 05 50 8b 09 08 	movzwl 0x8098b50,%eax
 804bb68:	8d 04 80             	lea    (%eax,%eax,4),%eax
 804bb6b:	0f b7 8c 46 f8 43 00 	movzwl 0x43f8(%esi,%eax,2),%ecx
 804bb72:	00 
 804bb73:	0f b7 c2             	movzwl %dx,%eax
 804bb76:	69 c0 cc 00 00 00    	imul   $0xcc,%eax,%eax
 804bb7c:	66 29 98 0c 84 09 08 	sub    %bx,0x809840c(%eax)
 804bb83:	8d 04 4e             	lea    (%esi,%ecx,2),%eax
 804bb86:	66 03 98 34 26 00 00 	add    0x2634(%eax),%bx
 804bb8d:	0f b7 88 1c 26 00 00 	movzwl 0x261c(%eax),%ecx
 804bb94:	66 39 cb             	cmp    %cx,%bx
 804bb97:	66 89 98 34 26 00 00 	mov    %bx,0x2634(%eax)
 804bb9e:	0f 86 9c e1 ff ff    	jbe    8049d40 <PAL_InterpretInstruction+0x280>
 804bba4:	66 89 88 34 26 00 00 	mov    %cx,0x2634(%eax)
 804bbab:	e9 90 e1 ff ff       	jmp    8049d40 <PAL_InterpretInstruction+0x280>
 804bbb0:	0f bf 47 04          	movswl 0x4(%edi),%eax
 804bbb4:	83 ec 08             	sub    $0x8,%esp
 804bbb7:	50                   	push   %eax
 804bbb8:	0f b7 c3             	movzwl %bx,%eax
 804bbbb:	50                   	push   %eax
 804bbbc:	e8 cf fd 00 00       	call   805b990 <PAL_AddItemToInventory>
 804bbc1:	83 c4 10             	add    $0x10,%esp
 804bbc4:	e9 77 e1 ff ff       	jmp    8049d40 <PAL_InterpretInstruction+0x280>
 804bbc9:	66 85 db             	test   %bx,%bx
 804bbcc:	8b 96 68 44 00 00    	mov    0x4468(%esi),%edx
 804bbd2:	0f 88 0a 09 00 00    	js     804c4e2 <PAL_InterpretInstruction+0x2a22>
 804bbd8:	0f bf c3             	movswl %bx,%eax
 804bbdb:	01 d0                	add    %edx,%eax
 804bbdd:	89 86 68 44 00 00    	mov    %eax,0x4468(%esi)
 804bbe3:	e9 58 e1 ff ff       	jmp    8049d40 <PAL_InterpretInstruction+0x280>
 804bbe8:	66 85 db             	test   %bx,%bx
 804bbeb:	0f 84 51 05 00 00    	je     804c142 <PAL_InterpretInstruction+0x2682>
 804bbf1:	0f b7 35 f0 87 09 08 	movzwl 0x80987f0,%esi
 804bbf8:	31 d2                	xor    %edx,%edx
 804bbfa:	31 db                	xor    %ebx,%ebx
 804bbfc:	83 c6 01             	add    $0x1,%esi
 804bbff:	69 f6 cc 00 00 00    	imul   $0xcc,%esi,%esi
 804bc05:	8d 76 00             	lea    0x0(%esi),%esi
 804bc08:	66 83 ba f4 83 09 08 	cmpw   $0x0,0x80983f4(%edx)
 804bc0f:	00 
 804bc10:	74 24                	je     804bc36 <PAL_InterpretInstruction+0x2176>
 804bc12:	0f b7 4f 04          	movzwl 0x4(%edi),%ecx
 804bc16:	31 c0                	xor    %eax,%eax
 804bc18:	90                   	nop
 804bc19:	8d b4 26 00 00 00 00 	lea    0x0(%esi,%eiz,1),%esi
 804bc20:	66 39 8c 82 54 84 09 	cmp    %cx,0x8098454(%edx,%eax,4)
 804bc27:	08 
 804bc28:	0f 84 f4 04 00 00    	je     804c122 <PAL_InterpretInstruction+0x2662>
 804bc2e:	83 c0 01             	add    $0x1,%eax
 804bc31:	83 f8 10             	cmp    $0x10,%eax
 804bc34:	75 ea                	jne    804bc20 <PAL_InterpretInstruction+0x2160>
 804bc36:	81 c2 cc 00 00 00    	add    $0xcc,%edx
 804bc3c:	83 c3 01             	add    $0x1,%ebx
 804bc3f:	39 f2                	cmp    %esi,%edx
 804bc41:	75 c5                	jne    804bc08 <PAL_InterpretInstruction+0x2148>
 804bc43:	e9 f8 e0 ff ff       	jmp    8049d40 <PAL_InterpretInstruction+0x280>
 804bc48:	83 ec 08             	sub    $0x8,%esp
 804bc4b:	0f b7 c3             	movzwl %bx,%eax
 804bc4e:	0f b7 d2             	movzwl %dx,%edx
 804bc51:	50                   	push   %eax
 804bc52:	52                   	push   %edx
 804bc53:	e8 38 13 01 00       	call   805cf90 <PAL_RemovePlayerStatus>
 804bc58:	83 c4 10             	add    $0x10,%esp
 804bc5b:	e9 e0 e0 ff ff       	jmp    8049d40 <PAL_InterpretInstruction+0x280>
 804bc60:	8d 86 c8 25 00 00    	lea    0x25c8(%esi),%eax
 804bc66:	8d 8e fc 3f 00 00    	lea    0x3ffc(%esi),%ecx
 804bc6c:	89 85 d8 fe ff ff    	mov    %eax,-0x128(%ebp)
 804bc72:	0f b7 47 06          	movzwl 0x6(%edi),%eax
 804bc76:	66 85 c0             	test   %ax,%ax
 804bc79:	0f 85 cc 05 00 00    	jne    804c24b <PAL_InterpretInstruction+0x278b>
 804bc7f:	0f b7 c2             	movzwl %dx,%eax
 804bc82:	0f b7 d3             	movzwl %bx,%edx
 804bc85:	8d 14 52             	lea    (%edx,%edx,2),%edx
 804bc88:	8d 34 50             	lea    (%eax,%edx,2),%esi
 804bc8b:	8b 85 d8 fe ff ff    	mov    -0x128(%ebp),%eax
 804bc91:	ba 1f 85 eb 51       	mov    $0x51eb851f,%edx
 804bc96:	0f b7 1c 70          	movzwl (%eax,%esi,2),%ebx
 804bc9a:	0f bf 47 04          	movswl 0x4(%edi),%eax
 804bc9e:	0f af d8             	imul   %eax,%ebx
 804bca1:	89 d8                	mov    %ebx,%eax
 804bca3:	c1 fb 1f             	sar    $0x1f,%ebx
 804bca6:	f7 ea                	imul   %edx
 804bca8:	c1 fa 05             	sar    $0x5,%edx
 804bcab:	29 da                	sub    %ebx,%edx
 804bcad:	66 89 14 71          	mov    %dx,(%ecx,%esi,2)
 804bcb1:	e9 8a e0 ff ff       	jmp    8049d40 <PAL_InterpretInstruction+0x280>
 804bcb6:	e8 85 ba 00 00       	call   8057740 <PAL_MakeScene>
 804bcbb:	83 ec 0c             	sub    $0xc,%esp
 804bcbe:	6a 00                	push   $0x0
 804bcc0:	e8 5b a2 01 00       	call   8065f20 <VIDEO_UpdateScreen>
 804bcc5:	0f b7 47 02          	movzwl 0x2(%edi),%eax
 804bcc9:	89 04 24             	mov    %eax,(%esp)
 804bccc:	e8 5f 54 01 00       	call   8061130 <PAL_BuyMenu>
 804bcd1:	83 c4 10             	add    $0x10,%esp
 804bcd4:	e9 67 e0 ff ff       	jmp    8049d40 <PAL_InterpretInstruction+0x280>
 804bcd9:	66 85 db             	test   %bx,%bx
 804bcdc:	0f 84 5e e0 ff ff    	je     8049d40 <PAL_InterpretInstruction+0x280>
 804bce2:	0f b7 47 04          	movzwl 0x4(%edi),%eax
 804bce6:	8b 9d d4 fe ff ff    	mov    -0x12c(%ebp),%ebx
 804bcec:	66 89 43 0e          	mov    %ax,0xe(%ebx)
 804bcf0:	e9 4b e0 ff ff       	jmp    8049d40 <PAL_InterpretInstruction+0x280>
 804bcf5:	0f b7 c2             	movzwl %dx,%eax
 804bcf8:	0f b7 57 06          	movzwl 0x6(%edi),%edx
 804bcfc:	0f b7 4f 04          	movzwl 0x4(%edi),%ecx
 804bd00:	83 ec 08             	sub    $0x8,%esp
 804bd03:	6a 02                	push   $0x2
 804bd05:	52                   	push   %edx
 804bd06:	89 da                	mov    %ebx,%edx
 804bd08:	e8 23 d6 ff ff       	call   8049330 <PAL_PartyRideEventObject>
 804bd0d:	83 c4 10             	add    $0x10,%esp
 804bd10:	e9 2b e0 ff ff       	jmp    8049d40 <PAL_InterpretInstruction+0x280>
 804bd15:	c7 05 08 04 08 08 00 	movl   $0x0,0x8080408
 804bd1c:	00 00 00 
 804bd1f:	e9 1c e0 ff ff       	jmp    8049d40 <PAL_InterpretInstruction+0x280>
 804bd24:	8b 86 d8 2a 00 00    	mov    0x2ad8(%esi),%eax
 804bd2a:	85 c0                	test   %eax,%eax
 804bd2c:	75 17                	jne    804bd45 <PAL_InterpretInstruction+0x2285>
 804bd2e:	0f b7 86 4a 44 00 00 	movzwl 0x444a(%esi),%eax
 804bd35:	8d 1c c6             	lea    (%esi,%eax,8),%ebx
 804bd38:	0f b7 43 24          	movzwl 0x24(%ebx),%eax
 804bd3c:	66 85 c0             	test   %ax,%ax
 804bd3f:	0f 85 07 0b 00 00    	jne    804c84c <PAL_InterpretInstruction+0x2d8c>
 804bd45:	0f b7 85 d0 fe ff ff 	movzwl -0x130(%ebp),%eax
 804bd4c:	c7 05 08 04 08 08 00 	movl   $0x0,0x8080408
 804bd53:	00 00 00 
 804bd56:	66 89 85 de fe ff ff 	mov    %ax,-0x122(%ebp)
 804bd5d:	e9 de df ff ff       	jmp    8049d40 <PAL_InterpretInstruction+0x280>
 804bd62:	0f b7 47 06          	movzwl 0x6(%edi),%eax
 804bd66:	ba 10 00 00 00       	mov    $0x10,%edx
 804bd6b:	66 85 c0             	test   %ax,%ax
 804bd6e:	74 03                	je     804bd73 <PAL_InterpretInstruction+0x22b3>
 804bd70:	0f b7 d0             	movzwl %ax,%edx
 804bd73:	0f b7 4f 04          	movzwl 0x4(%edi),%ecx
 804bd77:	b8 e7 03 00 00       	mov    $0x3e7,%eax
 804bd7c:	66 85 c9             	test   %cx,%cx
 804bd7f:	74 03                	je     804bd84 <PAL_InterpretInstruction+0x22c4>
 804bd81:	0f b7 c1             	movzwl %cx,%eax
 804bd84:	52                   	push   %edx
 804bd85:	50                   	push   %eax
 804bd86:	0f b7 c3             	movzwl %bx,%eax
 804bd89:	50                   	push   %eax
 804bd8a:	ff b6 c8 2a 00 00    	pushl  0x2ac8(%esi)
 804bd90:	e8 5b d0 00 00       	call   8058df0 <PAL_RNGPlay>
 804bd95:	83 c4 10             	add    $0x10,%esp
 804bd98:	e9 a3 df ff ff       	jmp    8049d40 <PAL_InterpretInstruction+0x280>
 804bd9d:	0f b7 f2             	movzwl %dx,%esi
 804bda0:	69 c6 cc 00 00 00    	imul   $0xcc,%esi,%eax
 804bda6:	0f b7 80 f4 83 09 08 	movzwl 0x80983f4(%eax),%eax
 804bdad:	66 89 85 d8 fe ff ff 	mov    %ax,-0x128(%ebp)
 804bdb4:	31 c0                	xor    %eax,%eax
 804bdb6:	66 83 fb 01          	cmp    $0x1,%bx
 804bdba:	0f 94 c0             	sete   %al
 804bdbd:	83 ec 08             	sub    $0x8,%esp
 804bdc0:	8d 44 80 09          	lea    0x9(%eax,%eax,4),%eax
 804bdc4:	50                   	push   %eax
 804bdc5:	6a 00                	push   $0x0
 804bdc7:	e8 74 da 00 00       	call   8059840 <RandomLong>
 804bdcc:	0f b7 9d d8 fe ff ff 	movzwl -0x128(%ebp),%ebx
 804bdd3:	83 c4 10             	add    $0x10,%esp
 804bdd6:	8d 14 5b             	lea    (%ebx,%ebx,2),%edx
 804bdd9:	8d 14 95 80 09 00 00 	lea    0x980(,%edx,4),%edx
 804bde0:	03 15 08 72 09 08    	add    0x8097208,%edx
 804bde6:	0f b7 52 0a          	movzwl 0xa(%edx),%edx
 804bdea:	39 d0                	cmp    %edx,%eax
 804bdec:	0f 8c 25 01 00 00    	jl     804bf17 <PAL_InterpretInstruction+0x2457>
 804bdf2:	0f b7 47 02          	movzwl 0x2(%edi),%eax
 804bdf6:	6b d6 66             	imul   $0x66,%esi,%edx
 804bdf9:	8d 44 10 78          	lea    0x78(%eax,%edx,1),%eax
 804bdfd:	66 83 bc 00 4c 83 09 	cmpw   $0x0,0x809834c(%eax,%eax,1)
 804be04:	08 00 
 804be06:	0f 85 0b 01 00 00    	jne    804bf17 <PAL_InterpretInstruction+0x2457>
 804be0c:	0f b7 57 04          	movzwl 0x4(%edi),%edx
 804be10:	66 89 94 00 4c 83 09 	mov    %dx,0x809834c(%eax,%eax,1)
 804be17:	08 
 804be18:	e9 23 df ff ff       	jmp    8049d40 <PAL_InterpretInstruction+0x280>
 804be1d:	0f b7 57 06          	movzwl 0x6(%edi),%edx
 804be21:	83 ec 08             	sub    $0x8,%esp
 804be24:	52                   	push   %edx
 804be25:	0f b7 57 04          	movzwl 0x4(%edi),%edx
 804be29:	52                   	push   %edx
 804be2a:	0f b7 d3             	movzwl %bx,%edx
 804be2d:	52                   	push   %edx
 804be2e:	50                   	push   %eax
 804be2f:	ff b5 ac fe ff ff    	pushl  -0x154(%ebp)
 804be35:	68 44 84 07 08       	push   $0x8078444
 804be3a:	e8 e1 da 00 00       	call   8059920 <TerminateOnError>
 804be3f:	83 c4 20             	add    $0x20,%esp
 804be42:	e9 f9 de ff ff       	jmp    8049d40 <PAL_InterpretInstruction+0x280>
 804be47:	89 f6                	mov    %esi,%esi
 804be49:	8d bc 27 00 00 00 00 	lea    0x0(%edi,%eiz,1),%edi
 804be50:	83 ec 08             	sub    $0x8,%esp
 804be53:	89 95 d4 fe ff ff    	mov    %edx,-0x12c(%ebp)
 804be59:	53                   	push   %ebx
 804be5a:	57                   	push   %edi
 804be5b:	e8 80 07 01 00       	call   805c5e0 <PAL_RemoveEquipmentEffect>
 804be60:	31 d2                	xor    %edx,%edx
 804be62:	83 c4 10             	add    $0x10,%esp
 804be65:	83 ad d0 fe ff ff 01 	subl   $0x1,-0x130(%ebp)
 804be6c:	a1 08 72 09 08       	mov    0x8097208,%eax
 804be71:	66 89 54 70 0c       	mov    %dx,0xc(%eax,%esi,2)
 804be76:	8b 95 d4 fe ff ff    	mov    -0x12c(%ebp),%edx
 804be7c:	0f 85 2f f7 ff ff    	jne    804b5b1 <PAL_InterpretInstruction+0x1af1>
 804be82:	b9 10 27 00 00       	mov    $0x2710,%ecx
 804be87:	e9 36 f7 ff ff       	jmp    804b5c2 <PAL_InterpretInstruction+0x1b02>
 804be8c:	8d 74 26 00          	lea    0x0(%esi,%eiz,1),%esi
 804be90:	b9 e8 03 00 00       	mov    $0x3e8,%ecx
 804be95:	c7 85 d8 fe ff ff 01 	movl   $0x1,-0x128(%ebp)
 804be9c:	00 00 00 
 804be9f:	e9 8f e6 ff ff       	jmp    804a533 <PAL_InterpretInstruction+0xa73>
 804bea4:	0f b7 9d d8 fe ff ff 	movzwl -0x128(%ebp),%ebx
 804beab:	8b b5 d4 fe ff ff    	mov    -0x12c(%ebp),%esi
 804beb1:	66 85 db             	test   %bx,%bx
 804beb4:	0f 84 51 03 00 00    	je     804c20b <PAL_InterpretInstruction+0x274b>
 804beba:	83 eb 01             	sub    $0x1,%ebx
 804bebd:	83 ec 0c             	sub    $0xc,%esp
 804bec0:	66 89 9e f6 43 00 00 	mov    %bx,0x43f6(%esi)
 804bec7:	6a 02                	push   $0x2
 804bec9:	e8 72 14 01 00       	call   805d340 <PAL_SetLoadFlags>
 804bece:	e8 8d 14 01 00       	call   805d360 <PAL_LoadResources>
 804bed3:	a1 08 72 09 08       	mov    0x8097208,%eax
 804bed8:	83 c4 0c             	add    $0xc,%esp
 804bedb:	68 40 01 00 00       	push   $0x140
 804bee0:	6a 00                	push   $0x0
 804bee2:	05 ec 45 00 00       	add    $0x45ec,%eax
 804bee7:	50                   	push   %eax
 804bee8:	e8 f0 d1 01 00       	call   80690dd <memset>
 804beed:	e8 ae ff 00 00       	call   805bea0 <PAL_UpdateEquipments>
 804bef2:	83 c4 10             	add    $0x10,%esp
 804bef5:	e9 46 de ff ff       	jmp    8049d40 <PAL_InterpretInstruction+0x280>
 804befa:	0f b7 47 06          	movzwl 0x6(%edi),%eax
 804befe:	c7 05 08 04 08 08 00 	movl   $0x0,0x8080408
 804bf05:	00 00 00 
 804bf08:	83 e8 01             	sub    $0x1,%eax
 804bf0b:	66 89 85 de fe ff ff 	mov    %ax,-0x122(%ebp)
 804bf12:	e9 29 de ff ff       	jmp    8049d40 <PAL_InterpretInstruction+0x280>
 804bf17:	0f b7 47 06          	movzwl 0x6(%edi),%eax
 804bf1b:	83 e8 01             	sub    $0x1,%eax
 804bf1e:	66 89 85 de fe ff ff 	mov    %ax,-0x122(%ebp)
 804bf25:	e9 16 de ff ff       	jmp    8049d40 <PAL_InterpretInstruction+0x280>
 804bf2a:	0f b7 47 06          	movzwl 0x6(%edi),%eax
 804bf2e:	c7 05 08 04 08 08 00 	movl   $0x0,0x8080408
 804bf35:	00 00 00 
 804bf38:	83 e8 01             	sub    $0x1,%eax
 804bf3b:	66 89 85 de fe ff ff 	mov    %ax,-0x122(%ebp)
 804bf42:	e9 f9 dd ff ff       	jmp    8049d40 <PAL_InterpretInstruction+0x280>
 804bf47:	0f bf c3             	movswl %bx,%eax
 804bf4a:	89 85 d0 fe ff ff    	mov    %eax,-0x130(%ebp)
 804bf50:	0f bf c1             	movswl %cx,%eax
 804bf53:	89 85 cc fe ff ff    	mov    %eax,-0x134(%ebp)
 804bf59:	e8 f2 a2 00 00       	call   8056250 <SDL_GetTicks>
 804bf5e:	8d 58 64             	lea    0x64(%eax),%ebx
 804bf61:	0f b7 47 06          	movzwl 0x6(%edi),%eax
 804bf65:	c7 85 d8 fe ff ff 00 	movl   $0x0,-0x128(%ebp)
 804bf6c:	00 00 00 
 804bf6f:	89 bd d4 fe ff ff    	mov    %edi,-0x12c(%ebp)
 804bf75:	8d 76 00             	lea    0x0(%esi),%esi
 804bf78:	66 83 f8 ff          	cmp    $0xffff,%ax
 804bf7c:	0f 84 06 01 00 00    	je     804c088 <PAL_InterpretInstruction+0x25c8>
 804bf82:	8b 0d 08 72 09 08    	mov    0x8097208,%ecx
 804bf88:	0f b7 bd cc fe ff ff 	movzwl -0x134(%ebp),%edi
 804bf8f:	0f b7 b5 d0 fe ff ff 	movzwl -0x130(%ebp),%esi
 804bf96:	8b 81 ec 43 00 00    	mov    0x43ec(%ecx),%eax
 804bf9c:	89 c2                	mov    %eax,%edx
 804bf9e:	01 f0                	add    %esi,%eax
 804bfa0:	c1 ea 10             	shr    $0x10,%edx
 804bfa3:	0f b7 c0             	movzwl %ax,%eax
 804bfa6:	01 fa                	add    %edi,%edx
 804bfa8:	c1 e2 10             	shl    $0x10,%edx
 804bfab:	09 d0                	or     %edx,%eax
 804bfad:	89 81 ec 43 00 00    	mov    %eax,0x43ec(%ecx)
 804bfb3:	8b 81 f0 43 00 00    	mov    0x43f0(%ecx),%eax
 804bfb9:	89 c2                	mov    %eax,%edx
 804bfbb:	29 f0                	sub    %esi,%eax
 804bfbd:	c1 ea 10             	shr    $0x10,%edx
 804bfc0:	0f b7 c0             	movzwl %ax,%eax
 804bfc3:	29 fa                	sub    %edi,%edx
 804bfc5:	c1 e2 10             	shl    $0x10,%edx
 804bfc8:	09 d0                	or     %edx,%eax
 804bfca:	8d 91 fa 43 00 00    	lea    0x43fa(%ecx),%edx
 804bfd0:	89 81 f0 43 00 00    	mov    %eax,0x43f0(%ecx)
 804bfd6:	0f b7 81 f6 43 00 00 	movzwl 0x43f6(%ecx),%eax
 804bfdd:	8d 04 80             	lea    (%eax,%eax,4),%eax
 804bfe0:	8d 84 00 04 44 00 00 	lea    0x4404(%eax,%eax,1),%eax
 804bfe7:	01 c1                	add    %eax,%ecx
 804bfe9:	8d b4 26 00 00 00 00 	lea    0x0(%esi,%eiz,1),%esi
 804bff0:	66 29 32             	sub    %si,(%edx)
 804bff3:	66 29 7a 02          	sub    %di,0x2(%edx)
 804bff7:	83 c2 0a             	add    $0xa,%edx
 804bffa:	39 ca                	cmp    %ecx,%edx
 804bffc:	75 f2                	jne    804bff0 <PAL_InterpretInstruction+0x2530>
 804bffe:	8b 85 d4 fe ff ff    	mov    -0x12c(%ebp),%eax
 804c004:	66 83 78 06 ff       	cmpw   $0xffff,0x6(%eax)
 804c009:	74 0d                	je     804c018 <PAL_InterpretInstruction+0x2558>
 804c00b:	83 ec 0c             	sub    $0xc,%esp
 804c00e:	6a 00                	push   $0x0
 804c010:	e8 cb c5 ff ff       	call   80485e0 <PAL_GameUpdate>
 804c015:	83 c4 10             	add    $0x10,%esp
 804c018:	e8 23 b7 00 00       	call   8057740 <PAL_MakeScene>
 804c01d:	83 ec 0c             	sub    $0xc,%esp
 804c020:	6a 00                	push   $0x0
 804c022:	e8 f9 9e 01 00       	call   8065f20 <VIDEO_UpdateScreen>
 804c027:	e8 74 91 01 00       	call   80651a0 <PAL_ProcessEvent>
 804c02c:	83 c4 10             	add    $0x10,%esp
 804c02f:	eb 19                	jmp    804c04a <PAL_InterpretInstruction+0x258a>
 804c031:	8d b4 26 00 00 00 00 	lea    0x0(%esi,%eiz,1),%esi
 804c038:	e8 63 91 01 00       	call   80651a0 <PAL_ProcessEvent>
 804c03d:	83 ec 0c             	sub    $0xc,%esp
 804c040:	6a 01                	push   $0x1
 804c042:	e8 29 a2 00 00       	call   8056270 <SDL_Delay>
 804c047:	83 c4 10             	add    $0x10,%esp
 804c04a:	e8 01 a2 00 00       	call   8056250 <SDL_GetTicks>
 804c04f:	39 c3                	cmp    %eax,%ebx
 804c051:	77 e5                	ja     804c038 <PAL_InterpretInstruction+0x2578>
 804c053:	e8 f8 a1 00 00       	call   8056250 <SDL_GetTicks>
 804c058:	8d 58 64             	lea    0x64(%eax),%ebx
 804c05b:	8b 85 d4 fe ff ff    	mov    -0x12c(%ebp),%eax
 804c061:	83 85 d8 fe ff ff 01 	addl   $0x1,-0x128(%ebp)
 804c068:	8b bd d8 fe ff ff    	mov    -0x128(%ebp),%edi
 804c06e:	0f bf 50 06          	movswl 0x6(%eax),%edx
 804c072:	39 d7                	cmp    %edx,%edi
 804c074:	89 d0                	mov    %edx,%eax
 804c076:	0f 8c fc fe ff ff    	jl     804bf78 <PAL_InterpretInstruction+0x24b8>
 804c07c:	e9 bf dc ff ff       	jmp    8049d40 <PAL_InterpretInstruction+0x280>
 804c081:	8d b4 26 00 00 00 00 	lea    0x0(%esi,%eiz,1),%esi
 804c088:	8b 85 d4 fe ff ff    	mov    -0x12c(%ebp),%eax
 804c08e:	8b 3d 08 72 09 08    	mov    0x8097208,%edi
 804c094:	0f b7 50 04          	movzwl 0x4(%eax),%edx
 804c098:	8b b7 ec 43 00 00    	mov    0x43ec(%edi),%esi
 804c09e:	0f bf ce             	movswl %si,%ecx
 804c0a1:	c1 fe 10             	sar    $0x10,%esi
 804c0a4:	8d 82 f9 0f 00 00    	lea    0xff9(%edx),%eax
 804c0aa:	c1 e0 04             	shl    $0x4,%eax
 804c0ad:	89 c2                	mov    %eax,%edx
 804c0af:	8b 85 d4 fe ff ff    	mov    -0x12c(%ebp),%eax
 804c0b5:	c1 e2 10             	shl    $0x10,%edx
 804c0b8:	0f b7 40 02          	movzwl 0x2(%eax),%eax
 804c0bc:	66 05 fb 07          	add    $0x7fb,%ax
 804c0c0:	c1 e0 05             	shl    $0x5,%eax
 804c0c3:	0f b7 c0             	movzwl %ax,%eax
 804c0c6:	09 d0                	or     %edx,%eax
 804c0c8:	0f bf d0             	movswl %ax,%edx
 804c0cb:	89 87 ec 43 00 00    	mov    %eax,0x43ec(%edi)
 804c0d1:	c1 f8 10             	sar    $0x10,%eax
 804c0d4:	29 d1                	sub    %edx,%ecx
 804c0d6:	0f b7 97 f6 43 00 00 	movzwl 0x43f6(%edi),%edx
 804c0dd:	29 c6                	sub    %eax,%esi
 804c0df:	89 f0                	mov    %esi,%eax
 804c0e1:	89 8d d0 fe ff ff    	mov    %ecx,-0x130(%ebp)
 804c0e7:	89 b5 cc fe ff ff    	mov    %esi,-0x134(%ebp)
 804c0ed:	89 ce                	mov    %ecx,%esi
 804c0ef:	89 c1                	mov    %eax,%ecx
 804c0f1:	8d 87 fa 43 00 00    	lea    0x43fa(%edi),%eax
 804c0f7:	8d 14 92             	lea    (%edx,%edx,4),%edx
 804c0fa:	8d 94 12 04 44 00 00 	lea    0x4404(%edx,%edx,1),%edx
 804c101:	01 fa                	add    %edi,%edx
 804c103:	90                   	nop
 804c104:	8d 74 26 00          	lea    0x0(%esi,%eiz,1),%esi
 804c108:	66 01 30             	add    %si,(%eax)
 804c10b:	66 01 48 02          	add    %cx,0x2(%eax)
 804c10f:	83 c0 0a             	add    $0xa,%eax
 804c112:	39 d0                	cmp    %edx,%eax
 804c114:	75 f2                	jne    804c108 <PAL_InterpretInstruction+0x2648>
 804c116:	e9 e3 fe ff ff       	jmp    804bffe <PAL_InterpretInstruction+0x253e>
 804c11b:	31 c0                	xor    %eax,%eax
 804c11d:	e9 11 dc ff ff       	jmp    8049d33 <PAL_InterpretInstruction+0x273>
 804c122:	6b cb 33             	imul   $0x33,%ebx,%ecx
 804c125:	8d 44 08 44          	lea    0x44(%eax,%ecx,1),%eax
 804c129:	31 c9                	xor    %ecx,%ecx
 804c12b:	66 89 0c 85 44 83 09 	mov    %cx,0x8098344(,%eax,4)
 804c132:	08 
 804c133:	31 c9                	xor    %ecx,%ecx
 804c135:	66 89 0c 85 46 83 09 	mov    %cx,0x8098346(,%eax,4)
 804c13c:	08 
 804c13d:	e9 f4 fa ff ff       	jmp    804bc36 <PAL_InterpretInstruction+0x2176>
 804c142:	0f b7 d2             	movzwl %dx,%edx
 804c145:	0f b7 5f 04          	movzwl 0x4(%edi),%ebx
 804c149:	31 c0                	xor    %eax,%eax
 804c14b:	69 ca cc 00 00 00    	imul   $0xcc,%edx,%ecx
 804c151:	8d b4 26 00 00 00 00 	lea    0x0(%esi,%eiz,1),%esi
 804c158:	66 39 9c 81 54 84 09 	cmp    %bx,0x8098454(%ecx,%eax,4)
 804c15f:	08 
 804c160:	0f 84 e1 05 00 00    	je     804c747 <PAL_InterpretInstruction+0x2c87>
 804c166:	83 c0 01             	add    $0x1,%eax
 804c169:	83 f8 10             	cmp    $0x10,%eax
 804c16c:	75 ea                	jne    804c158 <PAL_InterpretInstruction+0x2698>
 804c16e:	e9 cd db ff ff       	jmp    8049d40 <PAL_InterpretInstruction+0x280>
 804c173:	0f b7 85 d0 fe ff ff 	movzwl -0x130(%ebp),%eax
 804c17a:	66 89 85 de fe ff ff 	mov    %ax,-0x122(%ebp)
 804c181:	e9 ba db ff ff       	jmp    8049d40 <PAL_InterpretInstruction+0x280>
 804c186:	0f b7 c2             	movzwl %dx,%eax
 804c189:	69 c0 cc 00 00 00    	imul   $0xcc,%eax,%eax
 804c18f:	0f b7 90 0c 84 09 08 	movzwl 0x809840c(%eax),%edx
 804c196:	66 2b 57 04          	sub    0x4(%edi),%dx
 804c19a:	66 89 90 0c 84 09 08 	mov    %dx,0x809840c(%eax)
 804c1a1:	e9 9a db ff ff       	jmp    8049d40 <PAL_InterpretInstruction+0x280>
 804c1a6:	8b 9d b4 fe ff ff    	mov    -0x14c(%ebp),%ebx
 804c1ac:	0f b7 d0             	movzwl %ax,%edx
 804c1af:	8d 54 52 fd          	lea    -0x3(%edx,%edx,2),%edx
 804c1b3:	8d 94 53 20 13 00 00 	lea    0x1320(%ebx,%edx,2),%edx
