
nemu:     file format elf32-i386


Disassembly of section .init:

08048904 <_init>:
 8048904:	53                   	push   %ebx
 8048905:	83 ec 08             	sub    $0x8,%esp
 8048908:	e8 93 03 00 00       	call   8048ca0 <__x86.get_pc_thunk.bx>
 804890d:	81 c3 f3 c7 02 00    	add    $0x2c7f3,%ebx
 8048913:	8b 83 fc ff ff ff    	mov    -0x4(%ebx),%eax
 8048919:	85 c0                	test   %eax,%eax
 804891b:	74 05                	je     8048922 <_init+0x1e>
 804891d:	e8 4e 01 00 00       	call   8048a70 <__gmon_start__@plt>
 8048922:	83 c4 08             	add    $0x8,%esp
 8048925:	5b                   	pop    %ebx
 8048926:	c3                   	ret    

Disassembly of section .plt:

08048930 <strcmp@plt-0x10>:
 8048930:	ff 35 04 51 07 08    	pushl  0x8075104
 8048936:	ff 25 08 51 07 08    	jmp    *0x8075108
 804893c:	00 00                	add    %al,(%eax)
	...

08048940 <strcmp@plt>:
 8048940:	ff 25 0c 51 07 08    	jmp    *0x807510c
 8048946:	68 00 00 00 00       	push   $0x0
 804894b:	e9 e0 ff ff ff       	jmp    8048930 <_init+0x2c>

08048950 <printf@plt>:
 8048950:	ff 25 10 51 07 08    	jmp    *0x8075110
 8048956:	68 08 00 00 00       	push   $0x8
 804895b:	e9 d0 ff ff ff       	jmp    8048930 <_init+0x2c>

08048960 <fflush@plt>:
 8048960:	ff 25 14 51 07 08    	jmp    *0x8075114
 8048966:	68 10 00 00 00       	push   $0x10
 804896b:	e9 c0 ff ff ff       	jmp    8048930 <_init+0x2c>

08048970 <_setjmp@plt>:
 8048970:	ff 25 18 51 07 08    	jmp    *0x8075118
 8048976:	68 18 00 00 00       	push   $0x18
 804897b:	e9 b0 ff ff ff       	jmp    8048930 <_init+0x2c>

08048980 <free@plt>:
 8048980:	ff 25 1c 51 07 08    	jmp    *0x807511c
 8048986:	68 20 00 00 00       	push   $0x20
 804898b:	e9 a0 ff ff ff       	jmp    8048930 <_init+0x2c>

08048990 <add_history@plt>:
 8048990:	ff 25 20 51 07 08    	jmp    *0x8075120
 8048996:	68 28 00 00 00       	push   $0x28
 804899b:	e9 90 ff ff ff       	jmp    8048930 <_init+0x2c>

080489a0 <memcpy@plt>:
 80489a0:	ff 25 24 51 07 08    	jmp    *0x8075124
 80489a6:	68 30 00 00 00       	push   $0x30
 80489ab:	e9 80 ff ff ff       	jmp    8048930 <_init+0x2c>

080489b0 <fclose@plt>:
 80489b0:	ff 25 28 51 07 08    	jmp    *0x8075128
 80489b6:	68 38 00 00 00       	push   $0x38
 80489bb:	e9 70 ff ff ff       	jmp    8048930 <_init+0x2c>

080489c0 <time@plt>:
 80489c0:	ff 25 2c 51 07 08    	jmp    *0x807512c
 80489c6:	68 40 00 00 00       	push   $0x40
 80489cb:	e9 60 ff ff ff       	jmp    8048930 <_init+0x2c>

080489d0 <memcmp@plt>:
 80489d0:	ff 25 30 51 07 08    	jmp    *0x8075130
 80489d6:	68 48 00 00 00       	push   $0x48
 80489db:	e9 50 ff ff ff       	jmp    8048930 <_init+0x2c>

080489e0 <_IO_putc@plt>:
 80489e0:	ff 25 34 51 07 08    	jmp    *0x8075134
 80489e6:	68 50 00 00 00       	push   $0x50
 80489eb:	e9 40 ff ff ff       	jmp    8048930 <_init+0x2c>

080489f0 <fseek@plt>:
 80489f0:	ff 25 38 51 07 08    	jmp    *0x8075138
 80489f6:	68 58 00 00 00       	push   $0x58
 80489fb:	e9 30 ff ff ff       	jmp    8048930 <_init+0x2c>

08048a00 <readline@plt>:
 8048a00:	ff 25 3c 51 07 08    	jmp    *0x807513c
 8048a06:	68 60 00 00 00       	push   $0x60
 8048a0b:	e9 20 ff ff ff       	jmp    8048930 <_init+0x2c>

08048a10 <fwrite@plt>:
 8048a10:	ff 25 40 51 07 08    	jmp    *0x8075140
 8048a16:	68 68 00 00 00       	push   $0x68
 8048a1b:	e9 10 ff ff ff       	jmp    8048930 <_init+0x2c>

08048a20 <strcat@plt>:
 8048a20:	ff 25 44 51 07 08    	jmp    *0x8075144
 8048a26:	68 70 00 00 00       	push   $0x70
 8048a2b:	e9 00 ff ff ff       	jmp    8048930 <_init+0x2c>

08048a30 <fread@plt>:
 8048a30:	ff 25 48 51 07 08    	jmp    *0x8075148
 8048a36:	68 78 00 00 00       	push   $0x78
 8048a3b:	e9 f0 fe ff ff       	jmp    8048930 <_init+0x2c>

08048a40 <strcpy@plt>:
 8048a40:	ff 25 4c 51 07 08    	jmp    *0x807514c
 8048a46:	68 80 00 00 00       	push   $0x80
 8048a4b:	e9 e0 fe ff ff       	jmp    8048930 <_init+0x2c>

08048a50 <malloc@plt>:
 8048a50:	ff 25 50 51 07 08    	jmp    *0x8075150
 8048a56:	68 88 00 00 00       	push   $0x88
 8048a5b:	e9 d0 fe ff ff       	jmp    8048930 <_init+0x2c>

08048a60 <puts@plt>:
 8048a60:	ff 25 54 51 07 08    	jmp    *0x8075154
 8048a66:	68 90 00 00 00       	push   $0x90
 8048a6b:	e9 c0 fe ff ff       	jmp    8048930 <_init+0x2c>

08048a70 <__gmon_start__@plt>:
 8048a70:	ff 25 58 51 07 08    	jmp    *0x8075158
 8048a76:	68 98 00 00 00       	push   $0x98
 8048a7b:	e9 b0 fe ff ff       	jmp    8048930 <_init+0x2c>

08048a80 <feof@plt>:
 8048a80:	ff 25 5c 51 07 08    	jmp    *0x807515c
 8048a86:	68 a0 00 00 00       	push   $0xa0
 8048a8b:	e9 a0 fe ff ff       	jmp    8048930 <_init+0x2c>

08048a90 <srand@plt>:
 8048a90:	ff 25 60 51 07 08    	jmp    *0x8075160
 8048a96:	68 a8 00 00 00       	push   $0xa8
 8048a9b:	e9 90 fe ff ff       	jmp    8048930 <_init+0x2c>

08048aa0 <strlen@plt>:
 8048aa0:	ff 25 64 51 07 08    	jmp    *0x8075164
 8048aa6:	68 b0 00 00 00       	push   $0xb0
 8048aab:	e9 80 fe ff ff       	jmp    8048930 <_init+0x2c>

08048ab0 <__libc_start_main@plt>:
 8048ab0:	ff 25 68 51 07 08    	jmp    *0x8075168
 8048ab6:	68 b8 00 00 00       	push   $0xb8
 8048abb:	e9 70 fe ff ff       	jmp    8048930 <_init+0x2c>

08048ac0 <fprintf@plt>:
 8048ac0:	ff 25 6c 51 07 08    	jmp    *0x807516c
 8048ac6:	68 c0 00 00 00       	push   $0xc0
 8048acb:	e9 60 fe ff ff       	jmp    8048930 <_init+0x2c>

08048ad0 <ftell@plt>:
 8048ad0:	ff 25 70 51 07 08    	jmp    *0x8075170
 8048ad6:	68 c8 00 00 00       	push   $0xc8
 8048adb:	e9 50 fe ff ff       	jmp    8048930 <_init+0x2c>

08048ae0 <fopen@plt>:
 8048ae0:	ff 25 74 51 07 08    	jmp    *0x8075174
 8048ae6:	68 d0 00 00 00       	push   $0xd0
 8048aeb:	e9 40 fe ff ff       	jmp    8048930 <_init+0x2c>

08048af0 <memset@plt>:
 8048af0:	ff 25 78 51 07 08    	jmp    *0x8075178
 8048af6:	68 d8 00 00 00       	push   $0xd8
 8048afb:	e9 30 fe ff ff       	jmp    8048930 <_init+0x2c>

08048b00 <snprintf@plt>:
 8048b00:	ff 25 7c 51 07 08    	jmp    *0x807517c
 8048b06:	68 e0 00 00 00       	push   $0xe0
 8048b0b:	e9 20 fe ff ff       	jmp    8048930 <_init+0x2c>

08048b10 <putchar@plt>:
 8048b10:	ff 25 80 51 07 08    	jmp    *0x8075180
 8048b16:	68 e8 00 00 00       	push   $0xe8
 8048b1b:	e9 10 fe ff ff       	jmp    8048930 <_init+0x2c>

08048b20 <regerror@plt>:
 8048b20:	ff 25 84 51 07 08    	jmp    *0x8075184
 8048b26:	68 f0 00 00 00       	push   $0xf0
 8048b2b:	e9 00 fe ff ff       	jmp    8048930 <_init+0x2c>

08048b30 <strncpy@plt>:
 8048b30:	ff 25 88 51 07 08    	jmp    *0x8075188
 8048b36:	68 f8 00 00 00       	push   $0xf8
 8048b3b:	e9 f0 fd ff ff       	jmp    8048930 <_init+0x2c>

08048b40 <regexec@plt>:
 8048b40:	ff 25 8c 51 07 08    	jmp    *0x807518c
 8048b46:	68 00 01 00 00       	push   $0x100
 8048b4b:	e9 e0 fd ff ff       	jmp    8048930 <_init+0x2c>

08048b50 <rand@plt>:
 8048b50:	ff 25 90 51 07 08    	jmp    *0x8075190
 8048b56:	68 08 01 00 00       	push   $0x108
 8048b5b:	e9 d0 fd ff ff       	jmp    8048930 <_init+0x2c>

08048b60 <strtok@plt>:
 8048b60:	ff 25 94 51 07 08    	jmp    *0x8075194
 8048b66:	68 10 01 00 00       	push   $0x110
 8048b6b:	e9 c0 fd ff ff       	jmp    8048930 <_init+0x2c>

08048b70 <fputc@plt>:
 8048b70:	ff 25 98 51 07 08    	jmp    *0x8075198
 8048b76:	68 18 01 00 00       	push   $0x118
 8048b7b:	e9 b0 fd ff ff       	jmp    8048930 <_init+0x2c>

08048b80 <regcomp@plt>:
 8048b80:	ff 25 9c 51 07 08    	jmp    *0x807519c
 8048b86:	68 20 01 00 00       	push   $0x120
 8048b8b:	e9 a0 fd ff ff       	jmp    8048930 <_init+0x2c>

08048b90 <sprintf@plt>:
 8048b90:	ff 25 a0 51 07 08    	jmp    *0x80751a0
 8048b96:	68 28 01 00 00       	push   $0x128
 8048b9b:	e9 90 fd ff ff       	jmp    8048930 <_init+0x2c>

08048ba0 <strtol@plt>:
 8048ba0:	ff 25 a4 51 07 08    	jmp    *0x80751a4
 8048ba6:	68 30 01 00 00       	push   $0x130
 8048bab:	e9 80 fd ff ff       	jmp    8048930 <_init+0x2c>

08048bb0 <__assert_fail@plt>:
 8048bb0:	ff 25 a8 51 07 08    	jmp    *0x80751a8
 8048bb6:	68 38 01 00 00       	push   $0x138
 8048bbb:	e9 70 fd ff ff       	jmp    8048930 <_init+0x2c>

Disassembly of section .text:

08048bc0 <check_reg_index.part.0>:

static inline void init_cpu_state() {
	init_cr0();
}

static inline int check_reg_index(int index) {
 8048bc0:	83 ec 0c             	sub    $0xc,%esp
	assert(index >= 0 && index < 8);
 8048bc3:	68 8b f5 05 08       	push   $0x805f58b
 8048bc8:	6a 61                	push   $0x61
 8048bca:	68 1b f3 05 08       	push   $0x805f31b
 8048bcf:	68 32 f3 05 08       	push   $0x805f332
 8048bd4:	e8 d7 ff ff ff       	call   8048bb0 <__assert_fail@plt>

08048bd9 <check_reg_index.part.0>:

static inline void init_cpu_state() {
	init_cr0();
}

static inline int check_reg_index(int index) {
 8048bd9:	83 ec 0c             	sub    $0xc,%esp
	assert(index >= 0 && index < 8);
 8048bdc:	68 19 0b 06 08       	push   $0x8060b19
 8048be1:	6a 61                	push   $0x61
 8048be3:	68 1b f3 05 08       	push   $0x805f31b
 8048be8:	68 32 f3 05 08       	push   $0x805f332
 8048bed:	e8 be ff ff ff       	call   8048bb0 <__assert_fail@plt>

08048bf2 <check_reg_index.part.0>:

static inline void init_cpu_state() {
	init_cr0();
}

static inline int check_reg_index(int index) {
 8048bf2:	83 ec 0c             	sub    $0xc,%esp
	assert(index >= 0 && index < 8);
 8048bf5:	68 a9 0f 06 08       	push   $0x8060fa9
 8048bfa:	6a 61                	push   $0x61
 8048bfc:	68 1b f3 05 08       	push   $0x805f31b
 8048c01:	68 32 f3 05 08       	push   $0x805f332
 8048c06:	e8 a5 ff ff ff       	call   8048bb0 <__assert_fail@plt>

08048c0b <check_reg_index.part.0>:

static inline void init_cpu_state() {
	init_cr0();
}

static inline int check_reg_index(int index) {
 8048c0b:	83 ec 0c             	sub    $0xc,%esp
	assert(index >= 0 && index < 8);
 8048c0e:	68 12 5f 06 08       	push   $0x8065f12
 8048c13:	6a 61                	push   $0x61
 8048c15:	68 1b f3 05 08       	push   $0x805f31b
 8048c1a:	68 32 f3 05 08       	push   $0x805f332
 8048c1f:	e8 8c ff ff ff       	call   8048bb0 <__assert_fail@plt>

08048c24 <check_reg_index.part.0>:

static inline void init_cpu_state() {
	init_cr0();
}

static inline int check_reg_index(int index) {
 8048c24:	83 ec 0c             	sub    $0xc,%esp
	assert(index >= 0 && index < 8);
 8048c27:	68 6e 5f 06 08       	push   $0x8065f6e
 8048c2c:	6a 61                	push   $0x61
 8048c2e:	68 1b f3 05 08       	push   $0x805f31b
 8048c33:	68 32 f3 05 08       	push   $0x805f332
 8048c38:	e8 73 ff ff ff       	call   8048bb0 <__assert_fail@plt>
 8048c3d:	66 90                	xchg   %ax,%ax
 8048c3f:	90                   	nop

08048c40 <main>:
void init_monitor(int, char *[]);
void reg_test();
void restart();
void ui_mainloop();

int main(int argc, char *argv[]) {
 8048c40:	8d 4c 24 04          	lea    0x4(%esp),%ecx
 8048c44:	83 e4 f0             	and    $0xfffffff0,%esp
 8048c47:	ff 71 fc             	pushl  -0x4(%ecx)
 8048c4a:	55                   	push   %ebp
 8048c4b:	89 e5                	mov    %esp,%ebp
 8048c4d:	51                   	push   %ecx
 8048c4e:	83 ec 0c             	sub    $0xc,%esp

	/* Initialize the monitor. */
	init_monitor(argc, argv);
 8048c51:	ff 71 04             	pushl  0x4(%ecx)
 8048c54:	ff 31                	pushl  (%ecx)
 8048c56:	e8 15 01 00 00       	call   8048d70 <init_monitor>

	/* Test the implementation of the ``CPU_state'' structure. */
	reg_test();
 8048c5b:	e8 60 4b 01 00       	call   805d7c0 <reg_test>

	/* Initialize the virtual computer system. */
	restart();
 8048c60:	e8 eb 01 00 00       	call   8048e50 <restart>

	/* Receive commands from user. */
	ui_mainloop();
 8048c65:	e8 d6 0f 00 00       	call   8049c40 <ui_mainloop>

	return 0;
}
 8048c6a:	8b 4d fc             	mov    -0x4(%ebp),%ecx
	restart();

	/* Receive commands from user. */
	ui_mainloop();

	return 0;
 8048c6d:	83 c4 10             	add    $0x10,%esp
}
 8048c70:	31 c0                	xor    %eax,%eax
 8048c72:	c9                   	leave  
 8048c73:	8d 61 fc             	lea    -0x4(%ecx),%esp
 8048c76:	c3                   	ret    

08048c77 <_start>:
 8048c77:	31 ed                	xor    %ebp,%ebp
 8048c79:	5e                   	pop    %esi
 8048c7a:	89 e1                	mov    %esp,%ecx
 8048c7c:	83 e4 f0             	and    $0xfffffff0,%esp
 8048c7f:	50                   	push   %eax
 8048c80:	54                   	push   %esp
 8048c81:	52                   	push   %edx
 8048c82:	68 50 ed 05 08       	push   $0x805ed50
 8048c87:	68 e0 ec 05 08       	push   $0x805ece0
 8048c8c:	51                   	push   %ecx
 8048c8d:	56                   	push   %esi
 8048c8e:	68 40 8c 04 08       	push   $0x8048c40
 8048c93:	e8 18 fe ff ff       	call   8048ab0 <__libc_start_main@plt>
 8048c98:	f4                   	hlt    
 8048c99:	66 90                	xchg   %ax,%ax
 8048c9b:	66 90                	xchg   %ax,%ax
 8048c9d:	66 90                	xchg   %ax,%ax
 8048c9f:	90                   	nop

08048ca0 <__x86.get_pc_thunk.bx>:
 8048ca0:	8b 1c 24             	mov    (%esp),%ebx
 8048ca3:	c3                   	ret    
 8048ca4:	66 90                	xchg   %ax,%ax
 8048ca6:	66 90                	xchg   %ax,%ax
 8048ca8:	66 90                	xchg   %ax,%ax
 8048caa:	66 90                	xchg   %ax,%ax
 8048cac:	66 90                	xchg   %ax,%ax
 8048cae:	66 90                	xchg   %ax,%ax

08048cb0 <deregister_tm_clones>:
 8048cb0:	b8 e3 5b 07 08       	mov    $0x8075be3,%eax
 8048cb5:	2d e0 5b 07 08       	sub    $0x8075be0,%eax
 8048cba:	83 f8 06             	cmp    $0x6,%eax
 8048cbd:	76 1a                	jbe    8048cd9 <deregister_tm_clones+0x29>
 8048cbf:	b8 00 00 00 00       	mov    $0x0,%eax
 8048cc4:	85 c0                	test   %eax,%eax
 8048cc6:	74 11                	je     8048cd9 <deregister_tm_clones+0x29>
 8048cc8:	55                   	push   %ebp
 8048cc9:	89 e5                	mov    %esp,%ebp
 8048ccb:	83 ec 14             	sub    $0x14,%esp
 8048cce:	68 e0 5b 07 08       	push   $0x8075be0
 8048cd3:	ff d0                	call   *%eax
 8048cd5:	83 c4 10             	add    $0x10,%esp
 8048cd8:	c9                   	leave  
 8048cd9:	f3 c3                	repz ret 
 8048cdb:	90                   	nop
 8048cdc:	8d 74 26 00          	lea    0x0(%esi,%eiz,1),%esi

08048ce0 <register_tm_clones>:
 8048ce0:	b8 e0 5b 07 08       	mov    $0x8075be0,%eax
 8048ce5:	2d e0 5b 07 08       	sub    $0x8075be0,%eax
 8048cea:	c1 f8 02             	sar    $0x2,%eax
 8048ced:	89 c2                	mov    %eax,%edx
 8048cef:	c1 ea 1f             	shr    $0x1f,%edx
 8048cf2:	01 d0                	add    %edx,%eax
 8048cf4:	d1 f8                	sar    %eax
 8048cf6:	74 1b                	je     8048d13 <register_tm_clones+0x33>
 8048cf8:	ba 00 00 00 00       	mov    $0x0,%edx
 8048cfd:	85 d2                	test   %edx,%edx
 8048cff:	74 12                	je     8048d13 <register_tm_clones+0x33>
 8048d01:	55                   	push   %ebp
 8048d02:	89 e5                	mov    %esp,%ebp
 8048d04:	83 ec 10             	sub    $0x10,%esp
 8048d07:	50                   	push   %eax
 8048d08:	68 e0 5b 07 08       	push   $0x8075be0
 8048d0d:	ff d2                	call   *%edx
 8048d0f:	83 c4 10             	add    $0x10,%esp
 8048d12:	c9                   	leave  
 8048d13:	f3 c3                	repz ret 
 8048d15:	8d 74 26 00          	lea    0x0(%esi,%eiz,1),%esi
 8048d19:	8d bc 27 00 00 00 00 	lea    0x0(%edi,%eiz,1),%edi

08048d20 <__do_global_dtors_aux>:
 8048d20:	80 3d 24 5c 07 08 00 	cmpb   $0x0,0x8075c24
 8048d27:	75 13                	jne    8048d3c <__do_global_dtors_aux+0x1c>
 8048d29:	55                   	push   %ebp
 8048d2a:	89 e5                	mov    %esp,%ebp
 8048d2c:	83 ec 08             	sub    $0x8,%esp
 8048d2f:	e8 7c ff ff ff       	call   8048cb0 <deregister_tm_clones>
 8048d34:	c6 05 24 5c 07 08 01 	movb   $0x1,0x8075c24
 8048d3b:	c9                   	leave  
 8048d3c:	f3 c3                	repz ret 
 8048d3e:	66 90                	xchg   %ax,%ax

08048d40 <frame_dummy>:
 8048d40:	b8 08 50 07 08       	mov    $0x8075008,%eax
 8048d45:	8b 10                	mov    (%eax),%edx
 8048d47:	85 d2                	test   %edx,%edx
 8048d49:	75 05                	jne    8048d50 <frame_dummy+0x10>
 8048d4b:	eb 93                	jmp    8048ce0 <register_tm_clones>
 8048d4d:	8d 76 00             	lea    0x0(%esi),%esi
 8048d50:	ba 00 00 00 00       	mov    $0x0,%edx
 8048d55:	85 d2                	test   %edx,%edx
 8048d57:	74 f2                	je     8048d4b <frame_dummy+0xb>
 8048d59:	55                   	push   %ebp
 8048d5a:	89 e5                	mov    %esp,%ebp
 8048d5c:	83 ec 14             	sub    $0x14,%esp
 8048d5f:	50                   	push   %eax
 8048d60:	ff d2                	call   *%edx
 8048d62:	83 c4 10             	add    $0x10,%esp
 8048d65:	c9                   	leave  
 8048d66:	e9 75 ff ff ff       	jmp    8048ce0 <register_tm_clones>
 8048d6b:	66 90                	xchg   %ax,%ax
 8048d6d:	66 90                	xchg   %ax,%ax
 8048d6f:	90                   	nop

08048d70 <init_monitor>:
static void welcome() {
	printf("Welcome to NEMU!\nThe executable is %s.\nFor help, type \"help\"\n",
			exec_file);
}

void init_monitor(int argc, char *argv[]) {
 8048d70:	56                   	push   %esi
 8048d71:	53                   	push   %ebx
 8048d72:	83 ec 0c             	sub    $0xc,%esp
 8048d75:	8b 5c 24 18          	mov    0x18(%esp),%ebx
 8048d79:	8b 74 24 1c          	mov    0x1c(%esp),%esi
void init_cpu_state();

FILE *log_fp = NULL;

static void init_log() {
	log_fp = fopen("log.txt", "w");
 8048d7d:	68 88 ed 05 08       	push   $0x805ed88
 8048d82:	68 8a ed 05 08       	push   $0x805ed8a
 8048d87:	e8 54 fd ff ff       	call   8048ae0 <fopen@plt>
	Assert(log_fp, "Can not open 'log.txt'");
 8048d8c:	83 c4 10             	add    $0x10,%esp
 8048d8f:	85 c0                	test   %eax,%eax
void init_cpu_state();

FILE *log_fp = NULL;

static void init_log() {
	log_fp = fopen("log.txt", "w");
 8048d91:	a3 28 5c 07 08       	mov    %eax,0x8075c28
	Assert(log_fp, "Can not open 'log.txt'");
 8048d96:	74 38                	je     8048dd0 <init_monitor+0x60>

	/* Open the log file. */
	init_log();

	/* Load the string table and symbol table from the ELF file for future use. */
	load_elf_tables(argc, argv);
 8048d98:	83 ec 08             	sub    $0x8,%esp
 8048d9b:	56                   	push   %esi
 8048d9c:	53                   	push   %ebx
 8048d9d:	e8 2e 03 00 00       	call   80490d0 <load_elf_tables>

	/* Compile the regular expressions. */
	init_regex();
 8048da2:	e8 29 12 00 00       	call   8049fd0 <init_regex>

	/* Initialize the watchpoint link list. */
	init_wp_list();
 8048da7:	e8 54 0f 00 00       	call   8049d00 <init_wp_list>
	log_fp = fopen("log.txt", "w");
	Assert(log_fp, "Can not open 'log.txt'");
}

static void welcome() {
	printf("Welcome to NEMU!\nThe executable is %s.\nFor help, type \"help\"\n",
 8048dac:	a1 2c 5c 07 08       	mov    0x8075c2c,%eax
 8048db1:	c7 44 24 20 48 ee 05 	movl   $0x805ee48,0x20(%esp)
 8048db8:	08 
 8048db9:	89 44 24 24          	mov    %eax,0x24(%esp)
	/* Initialize the watchpoint link list. */
	init_wp_list();

	/* Display welcome message. */
	welcome();
}
 8048dbd:	83 c4 14             	add    $0x14,%esp
 8048dc0:	5b                   	pop    %ebx
 8048dc1:	5e                   	pop    %esi
	log_fp = fopen("log.txt", "w");
	Assert(log_fp, "Can not open 'log.txt'");
}

static void welcome() {
	printf("Welcome to NEMU!\nThe executable is %s.\nFor help, type \"help\"\n",
 8048dc2:	e9 89 fb ff ff       	jmp    8048950 <printf@plt>
 8048dc7:	89 f6                	mov    %esi,%esi
 8048dc9:	8d bc 27 00 00 00 00 	lea    0x0(%edi,%eiz,1),%edi

FILE *log_fp = NULL;

static void init_log() {
	log_fp = fopen("log.txt", "w");
	Assert(log_fp, "Can not open 'log.txt'");
 8048dd0:	83 ec 0c             	sub    $0xc,%esp
 8048dd3:	ff 35 20 5c 07 08    	pushl  0x8075c20
 8048dd9:	e8 82 fb ff ff       	call   8048960 <fflush@plt>
 8048dde:	ff 35 00 5c 07 08    	pushl  0x8075c00
 8048de4:	6a 07                	push   $0x7
 8048de6:	6a 01                	push   $0x1
 8048de8:	68 92 ed 05 08       	push   $0x805ed92
 8048ded:	e8 1e fc ff ff       	call   8048a10 <fwrite@plt>
 8048df2:	83 c4 20             	add    $0x20,%esp
 8048df5:	ff 35 00 5c 07 08    	pushl  0x8075c00
 8048dfb:	6a 16                	push   $0x16
 8048dfd:	6a 01                	push   $0x1
 8048dff:	68 9a ed 05 08       	push   $0x805ed9a
 8048e04:	e8 07 fc ff ff       	call   8048a10 <fwrite@plt>
 8048e09:	ff 35 00 5c 07 08    	pushl  0x8075c00
 8048e0f:	6a 05                	push   $0x5
 8048e11:	6a 01                	push   $0x1
 8048e13:	68 b1 ed 05 08       	push   $0x805edb1
 8048e18:	e8 f3 fb ff ff       	call   8048a10 <fwrite@plt>
 8048e1d:	a1 28 5c 07 08       	mov    0x8075c28,%eax
 8048e22:	83 c4 20             	add    $0x20,%esp
 8048e25:	85 c0                	test   %eax,%eax
 8048e27:	0f 85 6b ff ff ff    	jne    8048d98 <init_monitor+0x28>
 8048e2d:	68 9e ee 05 08       	push   $0x805ee9e
 8048e32:	6a 15                	push   $0x15
 8048e34:	68 b7 ed 05 08       	push   $0x805edb7
 8048e39:	68 d2 ed 05 08       	push   $0x805edd2
 8048e3e:	e8 6d fd ff ff       	call   8048bb0 <__assert_fail@plt>
 8048e43:	8d b6 00 00 00 00    	lea    0x0(%esi),%esi
 8048e49:	8d bc 27 00 00 00 00 	lea    0x0(%edi,%eiz,1),%edi

08048e50 <restart>:
	ret = fread(hwa_to_va(ENTRY_START), file_size, 1, fp);
	assert(ret == 1);
	fclose(fp);
}

void restart() {
 8048e50:	56                   	push   %esi
 8048e51:	53                   	push   %ebx
 8048e52:	83 ec 0c             	sub    $0xc,%esp

#ifdef USE_RAMDISK
static void init_ramdisk() {
	int ret;
	const int ramdisk_max_size = 0xa0000;
	FILE *fp = fopen(exec_file, "rb");
 8048e55:	68 d9 ed 05 08       	push   $0x805edd9
 8048e5a:	ff 35 2c 5c 07 08    	pushl  0x8075c2c
 8048e60:	e8 7b fc ff ff       	call   8048ae0 <fopen@plt>
	Assert(fp, "Can not open '%s'", exec_file);
 8048e65:	83 c4 10             	add    $0x10,%esp
 8048e68:	85 c0                	test   %eax,%eax

#ifdef USE_RAMDISK
static void init_ramdisk() {
	int ret;
	const int ramdisk_max_size = 0xa0000;
	FILE *fp = fopen(exec_file, "rb");
 8048e6a:	89 c3                	mov    %eax,%ebx
	Assert(fp, "Can not open '%s'", exec_file);
 8048e6c:	0f 84 56 01 00 00    	je     8048fc8 <restart+0x178>

	fseek(fp, 0, SEEK_END);
 8048e72:	83 ec 04             	sub    $0x4,%esp
 8048e75:	6a 02                	push   $0x2
 8048e77:	6a 00                	push   $0x0
 8048e79:	50                   	push   %eax
 8048e7a:	e8 71 fb ff ff       	call   80489f0 <fseek@plt>
	size_t file_size = ftell(fp);
 8048e7f:	89 1c 24             	mov    %ebx,(%esp)
 8048e82:	e8 49 fc ff ff       	call   8048ad0 <ftell@plt>
	Assert(file_size < ramdisk_max_size, "file size(%zd) too large", file_size);
 8048e87:	83 c4 10             	add    $0x10,%esp
 8048e8a:	3d ff ff 09 00       	cmp    $0x9ffff,%eax
	const int ramdisk_max_size = 0xa0000;
	FILE *fp = fopen(exec_file, "rb");
	Assert(fp, "Can not open '%s'", exec_file);

	fseek(fp, 0, SEEK_END);
	size_t file_size = ftell(fp);
 8048e8f:	89 c6                	mov    %eax,%esi
	Assert(file_size < ramdisk_max_size, "file size(%zd) too large", file_size);
 8048e91:	76 6d                	jbe    8048f00 <restart+0xb0>
 8048e93:	83 ec 0c             	sub    $0xc,%esp
 8048e96:	ff 35 20 5c 07 08    	pushl  0x8075c20
 8048e9c:	e8 bf fa ff ff       	call   8048960 <fflush@plt>
 8048ea1:	ff 35 00 5c 07 08    	pushl  0x8075c00
 8048ea7:	6a 07                	push   $0x7
 8048ea9:	6a 01                	push   $0x1
 8048eab:	68 92 ed 05 08       	push   $0x805ed92
 8048eb0:	e8 5b fb ff ff       	call   8048a10 <fwrite@plt>
 8048eb5:	83 c4 1c             	add    $0x1c,%esp
 8048eb8:	56                   	push   %esi
 8048eb9:	68 12 ee 05 08       	push   $0x805ee12
 8048ebe:	ff 35 00 5c 07 08    	pushl  0x8075c00
 8048ec4:	e8 f7 fb ff ff       	call   8048ac0 <fprintf@plt>
 8048ec9:	ff 35 00 5c 07 08    	pushl  0x8075c00
 8048ecf:	6a 05                	push   $0x5
 8048ed1:	6a 01                	push   $0x1
 8048ed3:	68 b1 ed 05 08       	push   $0x805edb1
 8048ed8:	e8 33 fb ff ff       	call   8048a10 <fwrite@plt>
 8048edd:	83 c4 20             	add    $0x20,%esp
 8048ee0:	68 91 ee 05 08       	push   $0x805ee91
 8048ee5:	6a 39                	push   $0x39
 8048ee7:	68 b7 ed 05 08       	push   $0x805edb7
 8048eec:	68 2b ee 05 08       	push   $0x805ee2b
 8048ef1:	e8 ba fc ff ff       	call   8048bb0 <__assert_fail@plt>
 8048ef6:	8d 76 00             	lea    0x0(%esi),%esi
 8048ef9:	8d bc 27 00 00 00 00 	lea    0x0(%edi,%eiz,1),%edi

	fseek(fp, 0, SEEK_SET);
 8048f00:	83 ec 04             	sub    $0x4,%esp
 8048f03:	6a 00                	push   $0x0
 8048f05:	6a 00                	push   $0x0
 8048f07:	53                   	push   %ebx
 8048f08:	e8 e3 fa ff ff       	call   80489f0 <fseek@plt>
	ret = fread(hwa_to_va(0), file_size, 1, fp);
 8048f0d:	53                   	push   %ebx
 8048f0e:	6a 01                	push   $0x1
 8048f10:	56                   	push   %esi
 8048f11:	ff 35 c8 51 07 08    	pushl  0x80751c8
 8048f17:	e8 14 fb ff ff       	call   8048a30 <fread@plt>
	assert(ret == 1);
 8048f1c:	83 c4 20             	add    $0x20,%esp
 8048f1f:	83 f8 01             	cmp    $0x1,%eax
 8048f22:	0f 85 6e 01 00 00    	jne    8049096 <restart+0x246>
	fclose(fp);
 8048f28:	83 ec 0c             	sub    $0xc,%esp
 8048f2b:	53                   	push   %ebx
 8048f2c:	e8 7f fa ff ff       	call   80489b0 <fclose@plt>
}
#endif

static void load_entry() {
	int ret;
	FILE *fp = fopen("entry", "rb");
 8048f31:	58                   	pop    %eax
 8048f32:	5a                   	pop    %edx
 8048f33:	68 d9 ed 05 08       	push   $0x805edd9
 8048f38:	68 f7 ed 05 08       	push   $0x805edf7
 8048f3d:	e8 9e fb ff ff       	call   8048ae0 <fopen@plt>
	Assert(fp, "Can not open 'entry'");
 8048f42:	83 c4 10             	add    $0x10,%esp
 8048f45:	85 c0                	test   %eax,%eax
}
#endif

static void load_entry() {
	int ret;
	FILE *fp = fopen("entry", "rb");
 8048f47:	89 c3                	mov    %eax,%ebx
	Assert(fp, "Can not open 'entry'");
 8048f49:	0f 84 e1 00 00 00    	je     8049030 <restart+0x1e0>

	fseek(fp, 0, SEEK_END);
 8048f4f:	83 ec 04             	sub    $0x4,%esp
 8048f52:	6a 02                	push   $0x2
 8048f54:	6a 00                	push   $0x0
 8048f56:	50                   	push   %eax
 8048f57:	e8 94 fa ff ff       	call   80489f0 <fseek@plt>
	size_t file_size = ftell(fp);
 8048f5c:	89 1c 24             	mov    %ebx,(%esp)
 8048f5f:	e8 6c fb ff ff       	call   8048ad0 <ftell@plt>

	fseek(fp, 0, SEEK_SET);
 8048f64:	83 c4 0c             	add    $0xc,%esp
	int ret;
	FILE *fp = fopen("entry", "rb");
	Assert(fp, "Can not open 'entry'");

	fseek(fp, 0, SEEK_END);
	size_t file_size = ftell(fp);
 8048f67:	89 c6                	mov    %eax,%esi

	fseek(fp, 0, SEEK_SET);
 8048f69:	6a 00                	push   $0x0
 8048f6b:	6a 00                	push   $0x0
 8048f6d:	53                   	push   %ebx
 8048f6e:	e8 7d fa ff ff       	call   80489f0 <fseek@plt>
	ret = fread(hwa_to_va(ENTRY_START), file_size, 1, fp);
 8048f73:	a1 c8 51 07 08       	mov    0x80751c8,%eax
 8048f78:	53                   	push   %ebx
 8048f79:	6a 01                	push   $0x1
 8048f7b:	56                   	push   %esi
 8048f7c:	05 00 00 10 00       	add    $0x100000,%eax
 8048f81:	50                   	push   %eax
 8048f82:	e8 a9 fa ff ff       	call   8048a30 <fread@plt>
	assert(ret == 1);
 8048f87:	83 c4 20             	add    $0x20,%esp
 8048f8a:	83 f8 01             	cmp    $0x1,%eax
 8048f8d:	0f 85 19 01 00 00    	jne    80490ac <restart+0x25c>
	fclose(fp);
 8048f93:	83 ec 0c             	sub    $0xc,%esp
 8048f96:	53                   	push   %ebx
 8048f97:	e8 14 fa ff ff       	call   80489b0 <fclose@plt>

	/* Read the entry code into memory. */
	load_entry();

	/* Set the initial instruction pointer. */
	cpu.eip = ENTRY_START;
 8048f9c:	c7 05 e0 ae 8f 14 00 	movl   $0x100000,0x148faee0
 8048fa3:	00 10 00 

	/* Initialize DRAM. */
	init_ddr3();
 8048fa6:	e8 c5 28 00 00       	call   804b870 <init_ddr3>
	init_l1cache();
 8048fab:	e8 10 2b 00 00       	call   804bac0 <init_l1cache>
	init_l2cache();
 8048fb0:	e8 2b 22 00 00       	call   804b1e0 <init_l2cache>
	init_cpu_state();
}
 8048fb5:	83 c4 10             	add    $0x10,%esp
} CPU_state;

extern CPU_state cpu;

static inline void init_cr0() {
	cpu.cr0.protect_enable = 0;
 8048fb8:	80 25 e8 ae 8f 14 fe 	andb   $0xfe,0x148faee8
 8048fbf:	83 c4 04             	add    $0x4,%esp
 8048fc2:	5b                   	pop    %ebx
 8048fc3:	5e                   	pop    %esi
 8048fc4:	c3                   	ret    
 8048fc5:	8d 76 00             	lea    0x0(%esi),%esi
#ifdef USE_RAMDISK
static void init_ramdisk() {
	int ret;
	const int ramdisk_max_size = 0xa0000;
	FILE *fp = fopen(exec_file, "rb");
	Assert(fp, "Can not open '%s'", exec_file);
 8048fc8:	83 ec 0c             	sub    $0xc,%esp
 8048fcb:	ff 35 20 5c 07 08    	pushl  0x8075c20
 8048fd1:	e8 8a f9 ff ff       	call   8048960 <fflush@plt>
 8048fd6:	ff 35 00 5c 07 08    	pushl  0x8075c00
 8048fdc:	6a 07                	push   $0x7
 8048fde:	6a 01                	push   $0x1
 8048fe0:	68 92 ed 05 08       	push   $0x805ed92
 8048fe5:	e8 26 fa ff ff       	call   8048a10 <fwrite@plt>
 8048fea:	83 c4 1c             	add    $0x1c,%esp
 8048fed:	ff 35 2c 5c 07 08    	pushl  0x8075c2c
 8048ff3:	68 dc ed 05 08       	push   $0x805eddc
 8048ff8:	ff 35 00 5c 07 08    	pushl  0x8075c00
 8048ffe:	e8 bd fa ff ff       	call   8048ac0 <fprintf@plt>
 8049003:	ff 35 00 5c 07 08    	pushl  0x8075c00
 8049009:	6a 05                	push   $0x5
 804900b:	6a 01                	push   $0x1
 804900d:	68 b1 ed 05 08       	push   $0x805edb1
 8049012:	e8 f9 f9 ff ff       	call   8048a10 <fwrite@plt>
 8049017:	83 c4 20             	add    $0x20,%esp
 804901a:	68 91 ee 05 08       	push   $0x805ee91
 804901f:	6a 35                	push   $0x35
 8049021:	68 b7 ed 05 08       	push   $0x805edb7
 8049026:	68 d6 ed 05 08       	push   $0x805edd6
 804902b:	e8 80 fb ff ff       	call   8048bb0 <__assert_fail@plt>
#endif

static void load_entry() {
	int ret;
	FILE *fp = fopen("entry", "rb");
	Assert(fp, "Can not open 'entry'");
 8049030:	83 ec 0c             	sub    $0xc,%esp
 8049033:	ff 35 20 5c 07 08    	pushl  0x8075c20
 8049039:	e8 22 f9 ff ff       	call   8048960 <fflush@plt>
 804903e:	ff 35 00 5c 07 08    	pushl  0x8075c00
 8049044:	6a 07                	push   $0x7
 8049046:	6a 01                	push   $0x1
 8049048:	68 92 ed 05 08       	push   $0x805ed92
 804904d:	e8 be f9 ff ff       	call   8048a10 <fwrite@plt>
 8049052:	83 c4 20             	add    $0x20,%esp
 8049055:	ff 35 00 5c 07 08    	pushl  0x8075c00
 804905b:	6a 14                	push   $0x14
 804905d:	6a 01                	push   $0x1
 804905f:	68 fd ed 05 08       	push   $0x805edfd
 8049064:	e8 a7 f9 ff ff       	call   8048a10 <fwrite@plt>
 8049069:	ff 35 00 5c 07 08    	pushl  0x8075c00
 804906f:	6a 05                	push   $0x5
 8049071:	6a 01                	push   $0x1
 8049073:	68 b1 ed 05 08       	push   $0x805edb1
 8049078:	e8 93 f9 ff ff       	call   8048a10 <fwrite@plt>
 804907d:	83 c4 20             	add    $0x20,%esp
 8049080:	68 86 ee 05 08       	push   $0x805ee86
 8049085:	6a 45                	push   $0x45
 8049087:	68 b7 ed 05 08       	push   $0x805edb7
 804908c:	68 d6 ed 05 08       	push   $0x805edd6
 8049091:	e8 1a fb ff ff       	call   8048bb0 <__assert_fail@plt>
	size_t file_size = ftell(fp);
	Assert(file_size < ramdisk_max_size, "file size(%zd) too large", file_size);

	fseek(fp, 0, SEEK_SET);
	ret = fread(hwa_to_va(0), file_size, 1, fp);
	assert(ret == 1);
 8049096:	68 91 ee 05 08       	push   $0x805ee91
 804909b:	6a 3d                	push   $0x3d
 804909d:	68 b7 ed 05 08       	push   $0x805edb7
 80490a2:	68 ee ed 05 08       	push   $0x805edee
 80490a7:	e8 04 fb ff ff       	call   8048bb0 <__assert_fail@plt>
	fseek(fp, 0, SEEK_END);
	size_t file_size = ftell(fp);

	fseek(fp, 0, SEEK_SET);
	ret = fread(hwa_to_va(ENTRY_START), file_size, 1, fp);
	assert(ret == 1);
 80490ac:	68 86 ee 05 08       	push   $0x805ee86
 80490b1:	6a 4c                	push   $0x4c
 80490b3:	68 b7 ed 05 08       	push   $0x805edb7
 80490b8:	68 ee ed 05 08       	push   $0x805edee
 80490bd:	e8 ee fa ff ff       	call   8048bb0 <__assert_fail@plt>
 80490c2:	66 90                	xchg   %ax,%ax
 80490c4:	66 90                	xchg   %ax,%ax
 80490c6:	66 90                	xchg   %ax,%ax
 80490c8:	66 90                	xchg   %ax,%ax
 80490ca:	66 90                	xchg   %ax,%ax
 80490cc:	66 90                	xchg   %ax,%ax
 80490ce:	66 90                	xchg   %ax,%ax

080490d0 <load_elf_tables>:

static char *strtab = NULL;
static Elf32_Sym *symtab = NULL;
static int nr_symtab_entry;

void load_elf_tables(int argc, char *argv[]) {
 80490d0:	55                   	push   %ebp
 80490d1:	57                   	push   %edi
 80490d2:	56                   	push   %esi
 80490d3:	53                   	push   %ebx
 80490d4:	83 ec 5c             	sub    $0x5c,%esp
	int ret;
	Assert(argc == 2, "run NEMU with format 'nemu [program]'");
 80490d7:	83 7c 24 70 02       	cmpl   $0x2,0x70(%esp)
 80490dc:	74 66                	je     8049144 <load_elf_tables+0x74>
 80490de:	83 ec 0c             	sub    $0xc,%esp
 80490e1:	ff 35 20 5c 07 08    	pushl  0x8075c20
 80490e7:	e8 74 f8 ff ff       	call   8048960 <fflush@plt>
 80490ec:	ff 35 00 5c 07 08    	pushl  0x8075c00
 80490f2:	6a 07                	push   $0x7
 80490f4:	6a 01                	push   $0x1
 80490f6:	68 92 ed 05 08       	push   $0x805ed92
 80490fb:	e8 10 f9 ff ff       	call   8048a10 <fwrite@plt>
 8049100:	83 c4 20             	add    $0x20,%esp
 8049103:	ff 35 00 5c 07 08    	pushl  0x8075c00
 8049109:	6a 25                	push   $0x25
 804910b:	6a 01                	push   $0x1
 804910d:	68 6c ef 05 08       	push   $0x805ef6c
 8049112:	e8 f9 f8 ff ff       	call   8048a10 <fwrite@plt>
 8049117:	ff 35 00 5c 07 08    	pushl  0x8075c00
 804911d:	6a 05                	push   $0x5
 804911f:	6a 01                	push   $0x1
 8049121:	68 b1 ed 05 08       	push   $0x805edb1
 8049126:	e8 e5 f8 ff ff       	call   8048a10 <fwrite@plt>
 804912b:	83 c4 20             	add    $0x20,%esp
 804912e:	68 17 f0 05 08       	push   $0x805f017
 8049133:	6a 0d                	push   $0xd
 8049135:	68 a7 ee 05 08       	push   $0x805eea7
 804913a:	68 c4 ee 05 08       	push   $0x805eec4
 804913f:	e8 6c fa ff ff       	call   8048bb0 <__assert_fail@plt>
	exec_file = argv[1];
 8049144:	8b 44 24 74          	mov    0x74(%esp),%eax

	FILE *fp = fopen(exec_file, "rb");
 8049148:	83 ec 08             	sub    $0x8,%esp
static int nr_symtab_entry;

void load_elf_tables(int argc, char *argv[]) {
	int ret;
	Assert(argc == 2, "run NEMU with format 'nemu [program]'");
	exec_file = argv[1];
 804914b:	8b 40 04             	mov    0x4(%eax),%eax

	FILE *fp = fopen(exec_file, "rb");
 804914e:	68 d9 ed 05 08       	push   $0x805edd9
 8049153:	50                   	push   %eax
static int nr_symtab_entry;

void load_elf_tables(int argc, char *argv[]) {
	int ret;
	Assert(argc == 2, "run NEMU with format 'nemu [program]'");
	exec_file = argv[1];
 8049154:	a3 2c 5c 07 08       	mov    %eax,0x8075c2c

	FILE *fp = fopen(exec_file, "rb");
 8049159:	e8 82 f9 ff ff       	call   8048ae0 <fopen@plt>
 804915e:	89 44 24 14          	mov    %eax,0x14(%esp)
	Assert(fp, "Can not open '%s'", exec_file);
 8049162:	83 c4 10             	add    $0x10,%esp
 8049165:	85 c0                	test   %eax,%eax
 8049167:	0f 84 c5 02 00 00    	je     8049432 <load_elf_tables+0x362>

	uint8_t buf[sizeof(Elf32_Ehdr)];
	ret = fread(buf, sizeof(Elf32_Ehdr), 1, fp);
 804916d:	ff 74 24 04          	pushl  0x4(%esp)
 8049171:	6a 01                	push   $0x1
 8049173:	6a 34                	push   $0x34
 8049175:	8d 5c 24 28          	lea    0x28(%esp),%ebx
 8049179:	53                   	push   %ebx
 804917a:	e8 b1 f8 ff ff       	call   8048a30 <fread@plt>
	assert(ret == 1);
 804917f:	83 c4 10             	add    $0x10,%esp
 8049182:	83 f8 01             	cmp    $0x1,%eax
 8049185:	0f 85 2d 04 00 00    	jne    80495b8 <load_elf_tables+0x4e8>

	/* The first several bytes contain the ELF header. */
	Elf32_Ehdr *elf = (void *)buf;
	char magic[] = {ELFMAG0, ELFMAG1, ELFMAG2, ELFMAG3};
 804918b:	c6 44 24 18 7f       	movb   $0x7f,0x18(%esp)
 8049190:	c6 44 24 19 45       	movb   $0x45,0x19(%esp)

	/* Check ELF header */
	assert(memcmp(elf->e_ident, magic, 4) == 0);		// magic number
 8049195:	83 ec 04             	sub    $0x4,%esp
	ret = fread(buf, sizeof(Elf32_Ehdr), 1, fp);
	assert(ret == 1);

	/* The first several bytes contain the ELF header. */
	Elf32_Ehdr *elf = (void *)buf;
	char magic[] = {ELFMAG0, ELFMAG1, ELFMAG2, ELFMAG3};
 8049198:	c6 44 24 1e 4c       	movb   $0x4c,0x1e(%esp)
 804919d:	c6 44 24 1f 46       	movb   $0x46,0x1f(%esp)

	/* Check ELF header */
	assert(memcmp(elf->e_ident, magic, 4) == 0);		// magic number
 80491a2:	6a 04                	push   $0x4
 80491a4:	8d 44 24 20          	lea    0x20(%esp),%eax
 80491a8:	50                   	push   %eax
 80491a9:	53                   	push   %ebx
 80491aa:	e8 21 f8 ff ff       	call   80489d0 <memcmp@plt>
 80491af:	83 c4 10             	add    $0x10,%esp
 80491b2:	85 c0                	test   %eax,%eax
 80491b4:	0f 85 e8 03 00 00    	jne    80495a2 <load_elf_tables+0x4d2>
	assert(elf->e_ident[EI_CLASS] == ELFCLASS32);		// 32-bit architecture
 80491ba:	80 7c 24 20 01       	cmpb   $0x1,0x20(%esp)
 80491bf:	0f 85 c7 03 00 00    	jne    804958c <load_elf_tables+0x4bc>
	assert(elf->e_ident[EI_DATA] == ELFDATA2LSB);		// littel-endian
 80491c5:	80 7c 24 21 01       	cmpb   $0x1,0x21(%esp)
 80491ca:	0f 85 a6 03 00 00    	jne    8049576 <load_elf_tables+0x4a6>
	assert(elf->e_ident[EI_VERSION] == EV_CURRENT);		// current version
 80491d0:	80 7c 24 22 01       	cmpb   $0x1,0x22(%esp)
 80491d5:	0f 85 85 03 00 00    	jne    8049560 <load_elf_tables+0x490>
	assert(elf->e_ident[EI_OSABI] == ELFOSABI_SYSV || 	// UNIX System V ABI
 80491db:	0f b6 44 24 23       	movzbl 0x23(%esp),%eax
 80491e0:	3c 03                	cmp    $0x3,%al
 80491e2:	74 08                	je     80491ec <load_elf_tables+0x11c>
 80491e4:	84 c0                	test   %al,%al
 80491e6:	0f 85 5e 03 00 00    	jne    804954a <load_elf_tables+0x47a>
			elf->e_ident[EI_OSABI] == ELFOSABI_LINUX); 	// UNIX - GNU
	assert(elf->e_ident[EI_ABIVERSION] == 0);			// should be 0
 80491ec:	80 7c 24 24 00       	cmpb   $0x0,0x24(%esp)
 80491f1:	0f 85 3d 03 00 00    	jne    8049534 <load_elf_tables+0x464>
	assert(elf->e_type == ET_EXEC);						// executable file
 80491f7:	66 83 7c 24 2c 02    	cmpw   $0x2,0x2c(%esp)
 80491fd:	0f 85 1b 03 00 00    	jne    804951e <load_elf_tables+0x44e>
	assert(elf->e_machine == EM_386);					// Intel 80386 architecture
 8049203:	66 83 7c 24 2e 03    	cmpw   $0x3,0x2e(%esp)
 8049209:	0f 85 f9 02 00 00    	jne    8049508 <load_elf_tables+0x438>
	assert(elf->e_version == EV_CURRENT);				// current version
 804920f:	83 7c 24 30 01       	cmpl   $0x1,0x30(%esp)
 8049214:	0f 85 d8 02 00 00    	jne    80494f2 <load_elf_tables+0x422>


	/* Load symbol table and string table for future use */

	/* Load section header table */
	uint32_t sh_size = elf->e_shentsize * elf->e_shnum;
 804921a:	0f b7 5c 24 4a       	movzwl 0x4a(%esp),%ebx
 804921f:	0f b7 44 24 4c       	movzwl 0x4c(%esp),%eax
	Elf32_Shdr *sh = malloc(sh_size);
 8049224:	83 ec 0c             	sub    $0xc,%esp


	/* Load symbol table and string table for future use */

	/* Load section header table */
	uint32_t sh_size = elf->e_shentsize * elf->e_shnum;
 8049227:	0f af d8             	imul   %eax,%ebx
	Elf32_Shdr *sh = malloc(sh_size);
 804922a:	53                   	push   %ebx
 804922b:	e8 20 f8 ff ff       	call   8048a50 <malloc@plt>
 8049230:	89 44 24 1c          	mov    %eax,0x1c(%esp)
	fseek(fp, elf->e_shoff, SEEK_SET);
 8049234:	83 c4 0c             	add    $0xc,%esp

	/* Load symbol table and string table for future use */

	/* Load section header table */
	uint32_t sh_size = elf->e_shentsize * elf->e_shnum;
	Elf32_Shdr *sh = malloc(sh_size);
 8049237:	89 c6                	mov    %eax,%esi
	fseek(fp, elf->e_shoff, SEEK_SET);
 8049239:	6a 00                	push   $0x0
 804923b:	ff 74 24 44          	pushl  0x44(%esp)
 804923f:	8b 7c 24 10          	mov    0x10(%esp),%edi
 8049243:	57                   	push   %edi
 8049244:	e8 a7 f7 ff ff       	call   80489f0 <fseek@plt>
	ret = fread(sh, sh_size, 1, fp);
 8049249:	57                   	push   %edi
 804924a:	6a 01                	push   $0x1
 804924c:	53                   	push   %ebx
 804924d:	56                   	push   %esi
 804924e:	e8 dd f7 ff ff       	call   8048a30 <fread@plt>
	assert(ret == 1);
 8049253:	83 c4 20             	add    $0x20,%esp
 8049256:	83 f8 01             	cmp    $0x1,%eax
 8049259:	0f 85 7d 02 00 00    	jne    80494dc <load_elf_tables+0x40c>

	/* Load section header string table */
	char *shstrtab = malloc(sh[elf->e_shstrndx].sh_size);
 804925f:	0f b7 44 24 4e       	movzwl 0x4e(%esp),%eax
 8049264:	8b 7c 24 0c          	mov    0xc(%esp),%edi
 8049268:	83 ec 0c             	sub    $0xc,%esp
 804926b:	8d 04 80             	lea    (%eax,%eax,4),%eax
 804926e:	8d 1c c7             	lea    (%edi,%eax,8),%ebx
 8049271:	ff 73 14             	pushl  0x14(%ebx)
 8049274:	e8 d7 f7 ff ff       	call   8048a50 <malloc@plt>
 8049279:	89 44 24 18          	mov    %eax,0x18(%esp)
	fseek(fp, sh[elf->e_shstrndx].sh_offset, SEEK_SET);
 804927d:	83 c4 0c             	add    $0xc,%esp
 8049280:	6a 00                	push   $0x0
 8049282:	ff 73 10             	pushl  0x10(%ebx)
 8049285:	8b 74 24 10          	mov    0x10(%esp),%esi
 8049289:	56                   	push   %esi
 804928a:	e8 61 f7 ff ff       	call   80489f0 <fseek@plt>
	ret = fread(shstrtab, sh[elf->e_shstrndx].sh_size, 1, fp);
 804928f:	56                   	push   %esi
 8049290:	6a 01                	push   $0x1
 8049292:	0f b7 44 24 66       	movzwl 0x66(%esp),%eax
 8049297:	8d 04 80             	lea    (%eax,%eax,4),%eax
 804929a:	ff 74 c7 14          	pushl  0x14(%edi,%eax,8)
 804929e:	8b 54 24 24          	mov    0x24(%esp),%edx
 80492a2:	52                   	push   %edx
 80492a3:	89 54 24 28          	mov    %edx,0x28(%esp)
 80492a7:	e8 84 f7 ff ff       	call   8048a30 <fread@plt>
	assert(ret == 1);
 80492ac:	83 c4 20             	add    $0x20,%esp
 80492af:	83 f8 01             	cmp    $0x1,%eax
 80492b2:	0f 85 0e 02 00 00    	jne    80494c6 <load_elf_tables+0x3f6>

	int i;
	for(i = 0; i < elf->e_shnum; i ++) {
 80492b8:	31 ed                	xor    %ebp,%ebp
 80492ba:	66 83 7c 24 4c 00    	cmpw   $0x0,0x4c(%esp)
 80492c0:	8d 5f 14             	lea    0x14(%edi),%ebx
 80492c3:	8b 54 24 08          	mov    0x8(%esp),%edx
 80492c7:	75 23                	jne    80492ec <load_elf_tables+0x21c>
 80492c9:	e9 9a 00 00 00       	jmp    8049368 <load_elf_tables+0x298>
 80492ce:	66 90                	xchg   %ax,%ax
			fseek(fp, sh[i].sh_offset, SEEK_SET);
			ret = fread(symtab, sh[i].sh_size, 1, fp);
			assert(ret == 1);
			nr_symtab_entry = sh[i].sh_size / sizeof(symtab[0]);
		}
		else if(sh[i].sh_type == SHT_STRTAB && 
 80492d0:	83 f8 03             	cmp    $0x3,%eax
 80492d3:	0f 84 e7 00 00 00    	je     80493c0 <load_elf_tables+0x2f0>
	fseek(fp, sh[elf->e_shstrndx].sh_offset, SEEK_SET);
	ret = fread(shstrtab, sh[elf->e_shstrndx].sh_size, 1, fp);
	assert(ret == 1);

	int i;
	for(i = 0; i < elf->e_shnum; i ++) {
 80492d9:	0f b7 44 24 4c       	movzwl 0x4c(%esp),%eax
 80492de:	83 c5 01             	add    $0x1,%ebp
 80492e1:	83 c3 28             	add    $0x28,%ebx
 80492e4:	39 e8                	cmp    %ebp,%eax
 80492e6:	0f 8e 7c 00 00 00    	jle    8049368 <load_elf_tables+0x298>
		if(sh[i].sh_type == SHT_SYMTAB && 
 80492ec:	8b 43 f0             	mov    -0x10(%ebx),%eax
 80492ef:	83 f8 02             	cmp    $0x2,%eax
 80492f2:	75 dc                	jne    80492d0 <load_elf_tables+0x200>
				strcmp(shstrtab + sh[i].sh_name, ".symtab") == 0) {
 80492f4:	8b 73 ec             	mov    -0x14(%ebx),%esi
 80492f7:	bf 5b ef 05 08       	mov    $0x805ef5b,%edi
 80492fc:	b9 08 00 00 00       	mov    $0x8,%ecx
 8049301:	01 d6                	add    %edx,%esi
	ret = fread(shstrtab, sh[elf->e_shstrndx].sh_size, 1, fp);
	assert(ret == 1);

	int i;
	for(i = 0; i < elf->e_shnum; i ++) {
		if(sh[i].sh_type == SHT_SYMTAB && 
 8049303:	f3 a6                	repz cmpsb %es:(%edi),%ds:(%esi)
 8049305:	75 d2                	jne    80492d9 <load_elf_tables+0x209>
 8049307:	89 54 24 08          	mov    %edx,0x8(%esp)
				strcmp(shstrtab + sh[i].sh_name, ".symtab") == 0) {
			/* Load symbol table from exec_file */
			symtab = malloc(sh[i].sh_size);
 804930b:	83 ec 0c             	sub    $0xc,%esp
 804930e:	ff 33                	pushl  (%ebx)
 8049310:	e8 3b f7 ff ff       	call   8048a50 <malloc@plt>
			fseek(fp, sh[i].sh_offset, SEEK_SET);
 8049315:	83 c4 0c             	add    $0xc,%esp
	int i;
	for(i = 0; i < elf->e_shnum; i ++) {
		if(sh[i].sh_type == SHT_SYMTAB && 
				strcmp(shstrtab + sh[i].sh_name, ".symtab") == 0) {
			/* Load symbol table from exec_file */
			symtab = malloc(sh[i].sh_size);
 8049318:	a3 34 5c 07 08       	mov    %eax,0x8075c34
			fseek(fp, sh[i].sh_offset, SEEK_SET);
 804931d:	6a 00                	push   $0x0
 804931f:	ff 73 fc             	pushl  -0x4(%ebx)
 8049322:	8b 7c 24 10          	mov    0x10(%esp),%edi
 8049326:	57                   	push   %edi
 8049327:	e8 c4 f6 ff ff       	call   80489f0 <fseek@plt>
			ret = fread(symtab, sh[i].sh_size, 1, fp);
 804932c:	57                   	push   %edi
 804932d:	6a 01                	push   $0x1
 804932f:	ff 33                	pushl  (%ebx)
 8049331:	ff 35 34 5c 07 08    	pushl  0x8075c34
 8049337:	e8 f4 f6 ff ff       	call   8048a30 <fread@plt>
			assert(ret == 1);
 804933c:	83 c4 20             	add    $0x20,%esp
 804933f:	83 f8 01             	cmp    $0x1,%eax
 8049342:	8b 54 24 08          	mov    0x8(%esp),%edx
 8049346:	0f 85 64 01 00 00    	jne    80494b0 <load_elf_tables+0x3e0>
			nr_symtab_entry = sh[i].sh_size / sizeof(symtab[0]);
 804934c:	8b 03                	mov    (%ebx),%eax
	fseek(fp, sh[elf->e_shstrndx].sh_offset, SEEK_SET);
	ret = fread(shstrtab, sh[elf->e_shstrndx].sh_size, 1, fp);
	assert(ret == 1);

	int i;
	for(i = 0; i < elf->e_shnum; i ++) {
 804934e:	83 c5 01             	add    $0x1,%ebp
 8049351:	83 c3 28             	add    $0x28,%ebx
			/* Load symbol table from exec_file */
			symtab = malloc(sh[i].sh_size);
			fseek(fp, sh[i].sh_offset, SEEK_SET);
			ret = fread(symtab, sh[i].sh_size, 1, fp);
			assert(ret == 1);
			nr_symtab_entry = sh[i].sh_size / sizeof(symtab[0]);
 8049354:	c1 e8 04             	shr    $0x4,%eax
 8049357:	a3 30 5c 07 08       	mov    %eax,0x8075c30
	fseek(fp, sh[elf->e_shstrndx].sh_offset, SEEK_SET);
	ret = fread(shstrtab, sh[elf->e_shstrndx].sh_size, 1, fp);
	assert(ret == 1);

	int i;
	for(i = 0; i < elf->e_shnum; i ++) {
 804935c:	0f b7 44 24 4c       	movzwl 0x4c(%esp),%eax
 8049361:	39 e8                	cmp    %ebp,%eax
 8049363:	7f 87                	jg     80492ec <load_elf_tables+0x21c>
 8049365:	8d 76 00             	lea    0x0(%esi),%esi
 8049368:	89 54 24 08          	mov    %edx,0x8(%esp)
			ret = fread(strtab, sh[i].sh_size, 1, fp);
			assert(ret == 1);
		}
	}

	free(sh);
 804936c:	83 ec 0c             	sub    $0xc,%esp
 804936f:	ff 74 24 18          	pushl  0x18(%esp)
 8049373:	e8 08 f6 ff ff       	call   8048980 <free@plt>
	free(shstrtab);
 8049378:	8b 54 24 18          	mov    0x18(%esp),%edx
 804937c:	89 14 24             	mov    %edx,(%esp)
 804937f:	e8 fc f5 ff ff       	call   8048980 <free@plt>

	assert(strtab != NULL && symtab != NULL);
 8049384:	8b 15 38 5c 07 08    	mov    0x8075c38,%edx
 804938a:	83 c4 10             	add    $0x10,%esp
 804938d:	85 d2                	test   %edx,%edx
 804938f:	0f 84 05 01 00 00    	je     804949a <load_elf_tables+0x3ca>
 8049395:	a1 34 5c 07 08       	mov    0x8075c34,%eax
 804939a:	85 c0                	test   %eax,%eax
 804939c:	0f 84 f8 00 00 00    	je     804949a <load_elf_tables+0x3ca>

	fclose(fp);
 80493a2:	83 ec 0c             	sub    $0xc,%esp
 80493a5:	ff 74 24 10          	pushl  0x10(%esp)
 80493a9:	e8 02 f6 ff ff       	call   80489b0 <fclose@plt>
}
 80493ae:	83 c4 10             	add    $0x10,%esp
 80493b1:	83 c4 5c             	add    $0x5c,%esp
 80493b4:	5b                   	pop    %ebx
 80493b5:	5e                   	pop    %esi
 80493b6:	5f                   	pop    %edi
 80493b7:	5d                   	pop    %ebp
 80493b8:	c3                   	ret    
 80493b9:	8d b4 26 00 00 00 00 	lea    0x0(%esi,%eiz,1),%esi
			ret = fread(symtab, sh[i].sh_size, 1, fp);
			assert(ret == 1);
			nr_symtab_entry = sh[i].sh_size / sizeof(symtab[0]);
		}
		else if(sh[i].sh_type == SHT_STRTAB && 
				strcmp(shstrtab + sh[i].sh_name, ".strtab") == 0) {
 80493c0:	8b 73 ec             	mov    -0x14(%ebx),%esi
 80493c3:	bf 63 ef 05 08       	mov    $0x805ef63,%edi
 80493c8:	b9 08 00 00 00       	mov    $0x8,%ecx
 80493cd:	01 d6                	add    %edx,%esi
			fseek(fp, sh[i].sh_offset, SEEK_SET);
			ret = fread(symtab, sh[i].sh_size, 1, fp);
			assert(ret == 1);
			nr_symtab_entry = sh[i].sh_size / sizeof(symtab[0]);
		}
		else if(sh[i].sh_type == SHT_STRTAB && 
 80493cf:	f3 a6                	repz cmpsb %es:(%edi),%ds:(%esi)
 80493d1:	0f 85 02 ff ff ff    	jne    80492d9 <load_elf_tables+0x209>
 80493d7:	89 54 24 08          	mov    %edx,0x8(%esp)
				strcmp(shstrtab + sh[i].sh_name, ".strtab") == 0) {
			/* Load string table from exec_file */
			strtab = malloc(sh[i].sh_size);
 80493db:	83 ec 0c             	sub    $0xc,%esp
 80493de:	ff 33                	pushl  (%ebx)
 80493e0:	e8 6b f6 ff ff       	call   8048a50 <malloc@plt>
			fseek(fp, sh[i].sh_offset, SEEK_SET);
 80493e5:	83 c4 0c             	add    $0xc,%esp
			nr_symtab_entry = sh[i].sh_size / sizeof(symtab[0]);
		}
		else if(sh[i].sh_type == SHT_STRTAB && 
				strcmp(shstrtab + sh[i].sh_name, ".strtab") == 0) {
			/* Load string table from exec_file */
			strtab = malloc(sh[i].sh_size);
 80493e8:	a3 38 5c 07 08       	mov    %eax,0x8075c38
			fseek(fp, sh[i].sh_offset, SEEK_SET);
 80493ed:	6a 00                	push   $0x0
 80493ef:	ff 73 fc             	pushl  -0x4(%ebx)
 80493f2:	8b 7c 24 10          	mov    0x10(%esp),%edi
 80493f6:	57                   	push   %edi
 80493f7:	e8 f4 f5 ff ff       	call   80489f0 <fseek@plt>
			ret = fread(strtab, sh[i].sh_size, 1, fp);
 80493fc:	57                   	push   %edi
 80493fd:	6a 01                	push   $0x1
 80493ff:	ff 33                	pushl  (%ebx)
 8049401:	ff 35 38 5c 07 08    	pushl  0x8075c38
 8049407:	e8 24 f6 ff ff       	call   8048a30 <fread@plt>
			assert(ret == 1);
 804940c:	83 c4 20             	add    $0x20,%esp
 804940f:	83 f8 01             	cmp    $0x1,%eax
 8049412:	8b 54 24 08          	mov    0x8(%esp),%edx
 8049416:	0f 84 bd fe ff ff    	je     80492d9 <load_elf_tables+0x209>
 804941c:	68 17 f0 05 08       	push   $0x805f017
 8049421:	6a 48                	push   $0x48
 8049423:	68 a7 ee 05 08       	push   $0x805eea7
 8049428:	68 ee ed 05 08       	push   $0x805edee
 804942d:	e8 7e f7 ff ff       	call   8048bb0 <__assert_fail@plt>
	int ret;
	Assert(argc == 2, "run NEMU with format 'nemu [program]'");
	exec_file = argv[1];

	FILE *fp = fopen(exec_file, "rb");
	Assert(fp, "Can not open '%s'", exec_file);
 8049432:	83 ec 0c             	sub    $0xc,%esp
 8049435:	ff 35 20 5c 07 08    	pushl  0x8075c20
 804943b:	e8 20 f5 ff ff       	call   8048960 <fflush@plt>
 8049440:	ff 35 00 5c 07 08    	pushl  0x8075c00
 8049446:	6a 07                	push   $0x7
 8049448:	6a 01                	push   $0x1
 804944a:	68 92 ed 05 08       	push   $0x805ed92
 804944f:	e8 bc f5 ff ff       	call   8048a10 <fwrite@plt>
 8049454:	83 c4 1c             	add    $0x1c,%esp
 8049457:	ff 35 2c 5c 07 08    	pushl  0x8075c2c
 804945d:	68 dc ed 05 08       	push   $0x805eddc
 8049462:	ff 35 00 5c 07 08    	pushl  0x8075c00
 8049468:	e8 53 f6 ff ff       	call   8048ac0 <fprintf@plt>
 804946d:	ff 35 00 5c 07 08    	pushl  0x8075c00
 8049473:	6a 05                	push   $0x5
 8049475:	6a 01                	push   $0x1
 8049477:	68 b1 ed 05 08       	push   $0x805edb1
 804947c:	e8 8f f5 ff ff       	call   8048a10 <fwrite@plt>
 8049481:	83 c4 20             	add    $0x20,%esp
 8049484:	68 17 f0 05 08       	push   $0x805f017
 8049489:	6a 11                	push   $0x11
 804948b:	68 a7 ee 05 08       	push   $0x805eea7
 8049490:	68 d6 ed 05 08       	push   $0x805edd6
 8049495:	e8 16 f7 ff ff       	call   8048bb0 <__assert_fail@plt>
	}

	free(sh);
	free(shstrtab);

	assert(strtab != NULL && symtab != NULL);
 804949a:	68 17 f0 05 08       	push   $0x805f017
 804949f:	6a 4f                	push   $0x4f
 80494a1:	68 a7 ee 05 08       	push   $0x805eea7
 80494a6:	68 e8 ef 05 08       	push   $0x805efe8
 80494ab:	e8 00 f7 ff ff       	call   8048bb0 <__assert_fail@plt>
				strcmp(shstrtab + sh[i].sh_name, ".symtab") == 0) {
			/* Load symbol table from exec_file */
			symtab = malloc(sh[i].sh_size);
			fseek(fp, sh[i].sh_offset, SEEK_SET);
			ret = fread(symtab, sh[i].sh_size, 1, fp);
			assert(ret == 1);
 80494b0:	68 17 f0 05 08       	push   $0x805f017
 80494b5:	6a 3f                	push   $0x3f
 80494b7:	68 a7 ee 05 08       	push   $0x805eea7
 80494bc:	68 ee ed 05 08       	push   $0x805edee
 80494c1:	e8 ea f6 ff ff       	call   8048bb0 <__assert_fail@plt>

	/* Load section header string table */
	char *shstrtab = malloc(sh[elf->e_shstrndx].sh_size);
	fseek(fp, sh[elf->e_shstrndx].sh_offset, SEEK_SET);
	ret = fread(shstrtab, sh[elf->e_shstrndx].sh_size, 1, fp);
	assert(ret == 1);
 80494c6:	68 17 f0 05 08       	push   $0x805f017
 80494cb:	6a 35                	push   $0x35
 80494cd:	68 a7 ee 05 08       	push   $0x805eea7
 80494d2:	68 ee ed 05 08       	push   $0x805edee
 80494d7:	e8 d4 f6 ff ff       	call   8048bb0 <__assert_fail@plt>
	/* Load section header table */
	uint32_t sh_size = elf->e_shentsize * elf->e_shnum;
	Elf32_Shdr *sh = malloc(sh_size);
	fseek(fp, elf->e_shoff, SEEK_SET);
	ret = fread(sh, sh_size, 1, fp);
	assert(ret == 1);
 80494dc:	68 17 f0 05 08       	push   $0x805f017
 80494e1:	6a 2f                	push   $0x2f
 80494e3:	68 a7 ee 05 08       	push   $0x805eea7
 80494e8:	68 ee ed 05 08       	push   $0x805edee
 80494ed:	e8 be f6 ff ff       	call   8048bb0 <__assert_fail@plt>
	assert(elf->e_ident[EI_OSABI] == ELFOSABI_SYSV || 	// UNIX System V ABI
			elf->e_ident[EI_OSABI] == ELFOSABI_LINUX); 	// UNIX - GNU
	assert(elf->e_ident[EI_ABIVERSION] == 0);			// should be 0
	assert(elf->e_type == ET_EXEC);						// executable file
	assert(elf->e_machine == EM_386);					// Intel 80386 architecture
	assert(elf->e_version == EV_CURRENT);				// current version
 80494f2:	68 17 f0 05 08       	push   $0x805f017
 80494f7:	6a 25                	push   $0x25
 80494f9:	68 a7 ee 05 08       	push   $0x805eea7
 80494fe:	68 47 ef 05 08       	push   $0x805ef47
 8049503:	e8 a8 f6 ff ff       	call   8048bb0 <__assert_fail@plt>
	assert(elf->e_ident[EI_VERSION] == EV_CURRENT);		// current version
	assert(elf->e_ident[EI_OSABI] == ELFOSABI_SYSV || 	// UNIX System V ABI
			elf->e_ident[EI_OSABI] == ELFOSABI_LINUX); 	// UNIX - GNU
	assert(elf->e_ident[EI_ABIVERSION] == 0);			// should be 0
	assert(elf->e_type == ET_EXEC);						// executable file
	assert(elf->e_machine == EM_386);					// Intel 80386 architecture
 8049508:	68 17 f0 05 08       	push   $0x805f017
 804950d:	6a 24                	push   $0x24
 804950f:	68 a7 ee 05 08       	push   $0x805eea7
 8049514:	68 33 ef 05 08       	push   $0x805ef33
 8049519:	e8 92 f6 ff ff       	call   8048bb0 <__assert_fail@plt>
	assert(elf->e_ident[EI_DATA] == ELFDATA2LSB);		// littel-endian
	assert(elf->e_ident[EI_VERSION] == EV_CURRENT);		// current version
	assert(elf->e_ident[EI_OSABI] == ELFOSABI_SYSV || 	// UNIX System V ABI
			elf->e_ident[EI_OSABI] == ELFOSABI_LINUX); 	// UNIX - GNU
	assert(elf->e_ident[EI_ABIVERSION] == 0);			// should be 0
	assert(elf->e_type == ET_EXEC);						// executable file
 804951e:	68 17 f0 05 08       	push   $0x805f017
 8049523:	6a 23                	push   $0x23
 8049525:	68 a7 ee 05 08       	push   $0x805eea7
 804952a:	68 22 ef 05 08       	push   $0x805ef22
 804952f:	e8 7c f6 ff ff       	call   8048bb0 <__assert_fail@plt>
	assert(elf->e_ident[EI_CLASS] == ELFCLASS32);		// 32-bit architecture
	assert(elf->e_ident[EI_DATA] == ELFDATA2LSB);		// littel-endian
	assert(elf->e_ident[EI_VERSION] == EV_CURRENT);		// current version
	assert(elf->e_ident[EI_OSABI] == ELFOSABI_SYSV || 	// UNIX System V ABI
			elf->e_ident[EI_OSABI] == ELFOSABI_LINUX); 	// UNIX - GNU
	assert(elf->e_ident[EI_ABIVERSION] == 0);			// should be 0
 8049534:	68 17 f0 05 08       	push   $0x805f017
 8049539:	6a 22                	push   $0x22
 804953b:	68 a7 ee 05 08       	push   $0x805eea7
 8049540:	68 0d ef 05 08       	push   $0x805ef0d
 8049545:	e8 66 f6 ff ff       	call   8048bb0 <__assert_fail@plt>
	/* Check ELF header */
	assert(memcmp(elf->e_ident, magic, 4) == 0);		// magic number
	assert(elf->e_ident[EI_CLASS] == ELFCLASS32);		// 32-bit architecture
	assert(elf->e_ident[EI_DATA] == ELFDATA2LSB);		// littel-endian
	assert(elf->e_ident[EI_VERSION] == EV_CURRENT);		// current version
	assert(elf->e_ident[EI_OSABI] == ELFOSABI_SYSV || 	// UNIX System V ABI
 804954a:	68 17 f0 05 08       	push   $0x805f017
 804954f:	6a 21                	push   $0x21
 8049551:	68 a7 ee 05 08       	push   $0x805eea7
 8049556:	68 b8 ef 05 08       	push   $0x805efb8
 804955b:	e8 50 f6 ff ff       	call   8048bb0 <__assert_fail@plt>

	/* Check ELF header */
	assert(memcmp(elf->e_ident, magic, 4) == 0);		// magic number
	assert(elf->e_ident[EI_CLASS] == ELFCLASS32);		// 32-bit architecture
	assert(elf->e_ident[EI_DATA] == ELFDATA2LSB);		// littel-endian
	assert(elf->e_ident[EI_VERSION] == EV_CURRENT);		// current version
 8049560:	68 17 f0 05 08       	push   $0x805f017
 8049565:	6a 1f                	push   $0x1f
 8049567:	68 a7 ee 05 08       	push   $0x805eea7
 804956c:	68 f8 ee 05 08       	push   $0x805eef8
 8049571:	e8 3a f6 ff ff       	call   8048bb0 <__assert_fail@plt>
	char magic[] = {ELFMAG0, ELFMAG1, ELFMAG2, ELFMAG3};

	/* Check ELF header */
	assert(memcmp(elf->e_ident, magic, 4) == 0);		// magic number
	assert(elf->e_ident[EI_CLASS] == ELFCLASS32);		// 32-bit architecture
	assert(elf->e_ident[EI_DATA] == ELFDATA2LSB);		// littel-endian
 8049576:	68 17 f0 05 08       	push   $0x805f017
 804957b:	6a 1e                	push   $0x1e
 804957d:	68 a7 ee 05 08       	push   $0x805eea7
 8049582:	68 e3 ee 05 08       	push   $0x805eee3
 8049587:	e8 24 f6 ff ff       	call   8048bb0 <__assert_fail@plt>
	Elf32_Ehdr *elf = (void *)buf;
	char magic[] = {ELFMAG0, ELFMAG1, ELFMAG2, ELFMAG3};

	/* Check ELF header */
	assert(memcmp(elf->e_ident, magic, 4) == 0);		// magic number
	assert(elf->e_ident[EI_CLASS] == ELFCLASS32);		// 32-bit architecture
 804958c:	68 17 f0 05 08       	push   $0x805f017
 8049591:	6a 1d                	push   $0x1d
 8049593:	68 a7 ee 05 08       	push   $0x805eea7
 8049598:	68 ce ee 05 08       	push   $0x805eece
 804959d:	e8 0e f6 ff ff       	call   8048bb0 <__assert_fail@plt>
	/* The first several bytes contain the ELF header. */
	Elf32_Ehdr *elf = (void *)buf;
	char magic[] = {ELFMAG0, ELFMAG1, ELFMAG2, ELFMAG3};

	/* Check ELF header */
	assert(memcmp(elf->e_ident, magic, 4) == 0);		// magic number
 80495a2:	68 17 f0 05 08       	push   $0x805f017
 80495a7:	6a 1c                	push   $0x1c
 80495a9:	68 a7 ee 05 08       	push   $0x805eea7
 80495ae:	68 94 ef 05 08       	push   $0x805ef94
 80495b3:	e8 f8 f5 ff ff       	call   8048bb0 <__assert_fail@plt>
	FILE *fp = fopen(exec_file, "rb");
	Assert(fp, "Can not open '%s'", exec_file);

	uint8_t buf[sizeof(Elf32_Ehdr)];
	ret = fread(buf, sizeof(Elf32_Ehdr), 1, fp);
	assert(ret == 1);
 80495b8:	68 17 f0 05 08       	push   $0x805f017
 80495bd:	6a 15                	push   $0x15
 80495bf:	68 a7 ee 05 08       	push   $0x805eea7
 80495c4:	68 ee ed 05 08       	push   $0x805edee
 80495c9:	e8 e2 f5 ff ff       	call   8048bb0 <__assert_fail@plt>
 80495ce:	66 90                	xchg   %ax,%ax

080495d0 <read_sym>:
	assert(strtab != NULL && symtab != NULL);

	fclose(fp);
}

uint32_t read_sym(char * str) {
 80495d0:	55                   	push   %ebp
 80495d1:	57                   	push   %edi
 80495d2:	56                   	push   %esi
 80495d3:	53                   	push   %ebx
 80495d4:	83 ec 1c             	sub    $0x1c,%esp
	int i;
	for(i = 0; i < nr_symtab_entry; i ++) {
 80495d7:	a1 30 5c 07 08       	mov    0x8075c30,%eax
	assert(strtab != NULL && symtab != NULL);

	fclose(fp);
}

uint32_t read_sym(char * str) {
 80495dc:	8b 7c 24 30          	mov    0x30(%esp),%edi
	int i;
	for(i = 0; i < nr_symtab_entry; i ++) {
 80495e0:	85 c0                	test   %eax,%eax
 80495e2:	89 44 24 0c          	mov    %eax,0xc(%esp)
 80495e6:	7e 48                	jle    8049630 <read_sym+0x60>
 80495e8:	8b 2d 38 5c 07 08    	mov    0x8075c38,%ebp
 80495ee:	8b 1d 34 5c 07 08    	mov    0x8075c34,%ebx
 80495f4:	31 f6                	xor    %esi,%esi
 80495f6:	eb 14                	jmp    804960c <read_sym+0x3c>
 80495f8:	90                   	nop
 80495f9:	8d b4 26 00 00 00 00 	lea    0x0(%esi,%eiz,1),%esi
 8049600:	83 c6 01             	add    $0x1,%esi
 8049603:	83 c3 10             	add    $0x10,%ebx
 8049606:	3b 74 24 0c          	cmp    0xc(%esp),%esi
 804960a:	74 24                	je     8049630 <read_sym+0x60>
		if(strcmp(strtab + symtab[i].st_name, str) == 0) {
 804960c:	8b 03                	mov    (%ebx),%eax
 804960e:	83 ec 08             	sub    $0x8,%esp
 8049611:	57                   	push   %edi
 8049612:	01 e8                	add    %ebp,%eax
 8049614:	50                   	push   %eax
 8049615:	e8 26 f3 ff ff       	call   8048940 <strcmp@plt>
 804961a:	83 c4 10             	add    $0x10,%esp
 804961d:	85 c0                	test   %eax,%eax
 804961f:	75 df                	jne    8049600 <read_sym+0x30>
			return symtab[i].st_value;
 8049621:	8b 43 04             	mov    0x4(%ebx),%eax
		}
	}
	return 0;
}
 8049624:	83 c4 1c             	add    $0x1c,%esp
 8049627:	5b                   	pop    %ebx
 8049628:	5e                   	pop    %esi
 8049629:	5f                   	pop    %edi
 804962a:	5d                   	pop    %ebp
 804962b:	c3                   	ret    
 804962c:	8d 74 26 00          	lea    0x0(%esi,%eiz,1),%esi
 8049630:	83 c4 1c             	add    $0x1c,%esp
	for(i = 0; i < nr_symtab_entry; i ++) {
		if(strcmp(strtab + symtab[i].st_name, str) == 0) {
			return symtab[i].st_value;
		}
	}
	return 0;
 8049633:	31 c0                	xor    %eax,%eax
}
 8049635:	5b                   	pop    %ebx
 8049636:	5e                   	pop    %esi
 8049637:	5f                   	pop    %edi
 8049638:	5d                   	pop    %ebp
 8049639:	c3                   	ret    
 804963a:	8d b6 00 00 00 00    	lea    0x0(%esi),%esi

08049640 <get_func_name>:

void get_func_name(char * fun_name, swaddr_t addr, int * flag) {
 8049640:	55                   	push   %ebp
 8049641:	57                   	push   %edi
 8049642:	56                   	push   %esi
 8049643:	53                   	push   %ebx
	int i;
	for(i = 0; i < nr_symtab_entry; i ++) {
 8049644:	31 f6                	xor    %esi,%esi
		}
	}
	return 0;
}

void get_func_name(char * fun_name, swaddr_t addr, int * flag) {
 8049646:	83 ec 0c             	sub    $0xc,%esp
	int i;
	for(i = 0; i < nr_symtab_entry; i ++) {
 8049649:	8b 3d 30 5c 07 08    	mov    0x8075c30,%edi
 804964f:	a1 34 5c 07 08       	mov    0x8075c34,%eax
		}
	}
	return 0;
}

void get_func_name(char * fun_name, swaddr_t addr, int * flag) {
 8049654:	8b 6c 24 24          	mov    0x24(%esp),%ebp
	int i;
	for(i = 0; i < nr_symtab_entry; i ++) {
 8049658:	85 ff                	test   %edi,%edi
 804965a:	8d 58 0c             	lea    0xc(%eax),%ebx
 804965d:	7f 13                	jg     8049672 <get_func_name+0x32>
 804965f:	eb 5f                	jmp    80496c0 <get_func_name+0x80>
 8049661:	8d b4 26 00 00 00 00 	lea    0x0(%esi,%eiz,1),%esi
 8049668:	83 c6 01             	add    $0x1,%esi
 804966b:	83 c3 10             	add    $0x10,%ebx
 804966e:	39 fe                	cmp    %edi,%esi
 8049670:	74 4e                	je     80496c0 <get_func_name+0x80>
		if((symtab[i].st_info & 0xf) != STT_FUNC) continue;
 8049672:	0f b6 03             	movzbl (%ebx),%eax
 8049675:	83 e0 0f             	and    $0xf,%eax
 8049678:	3c 02                	cmp    $0x2,%al
 804967a:	75 ec                	jne    8049668 <get_func_name+0x28>
		if((symtab[i].st_value <= addr) && 
 804967c:	8b 43 f8             	mov    -0x8(%ebx),%eax
 804967f:	39 e8                	cmp    %ebp,%eax
 8049681:	77 e5                	ja     8049668 <get_func_name+0x28>
				(symtab[i].st_value + symtab[i].st_size >= addr)) {
 8049683:	03 43 fc             	add    -0x4(%ebx),%eax

void get_func_name(char * fun_name, swaddr_t addr, int * flag) {
	int i;
	for(i = 0; i < nr_symtab_entry; i ++) {
		if((symtab[i].st_info & 0xf) != STT_FUNC) continue;
		if((symtab[i].st_value <= addr) && 
 8049686:	39 c5                	cmp    %eax,%ebp
 8049688:	77 de                	ja     8049668 <get_func_name+0x28>
				(symtab[i].st_value + symtab[i].st_size >= addr)) {
			strcpy(fun_name, strtab + symtab[i].st_name);
 804968a:	8b 43 f4             	mov    -0xc(%ebx),%eax
 804968d:	03 05 38 5c 07 08    	add    0x8075c38,%eax
 8049693:	83 ec 08             	sub    $0x8,%esp
	return 0;
}

void get_func_name(char * fun_name, swaddr_t addr, int * flag) {
	int i;
	for(i = 0; i < nr_symtab_entry; i ++) {
 8049696:	83 c6 01             	add    $0x1,%esi
 8049699:	83 c3 10             	add    $0x10,%ebx
		if((symtab[i].st_info & 0xf) != STT_FUNC) continue;
		if((symtab[i].st_value <= addr) && 
				(symtab[i].st_value + symtab[i].st_size >= addr)) {
			strcpy(fun_name, strtab + symtab[i].st_name);
 804969c:	50                   	push   %eax
 804969d:	ff 74 24 2c          	pushl  0x2c(%esp)
 80496a1:	e8 9a f3 ff ff       	call   8048a40 <strcpy@plt>
			*flag = 1;
 80496a6:	8b 44 24 38          	mov    0x38(%esp),%eax
 80496aa:	83 c4 10             	add    $0x10,%esp
	return 0;
}

void get_func_name(char * fun_name, swaddr_t addr, int * flag) {
	int i;
	for(i = 0; i < nr_symtab_entry; i ++) {
 80496ad:	39 fe                	cmp    %edi,%esi
		if((symtab[i].st_info & 0xf) != STT_FUNC) continue;
		if((symtab[i].st_value <= addr) && 
				(symtab[i].st_value + symtab[i].st_size >= addr)) {
			strcpy(fun_name, strtab + symtab[i].st_name);
			*flag = 1;
 80496af:	c7 00 01 00 00 00    	movl   $0x1,(%eax)
	return 0;
}

void get_func_name(char * fun_name, swaddr_t addr, int * flag) {
	int i;
	for(i = 0; i < nr_symtab_entry; i ++) {
 80496b5:	75 bb                	jne    8049672 <get_func_name+0x32>
 80496b7:	89 f6                	mov    %esi,%esi
 80496b9:	8d bc 27 00 00 00 00 	lea    0x0(%edi,%eiz,1),%edi
				(symtab[i].st_value + symtab[i].st_size >= addr)) {
			strcpy(fun_name, strtab + symtab[i].st_name);
			*flag = 1;
		}
	}
}
 80496c0:	83 c4 0c             	add    $0xc,%esp
 80496c3:	5b                   	pop    %ebx
 80496c4:	5e                   	pop    %esi
 80496c5:	5f                   	pop    %edi
 80496c6:	5d                   	pop    %ebp
 80496c7:	c3                   	ret    
 80496c8:	66 90                	xchg   %ax,%ax
 80496ca:	66 90                	xchg   %ax,%ax
 80496cc:	66 90                	xchg   %ax,%ax
 80496ce:	66 90                	xchg   %ax,%ax

080496d0 <cmd_q>:
	return 0;
}

static int cmd_q(char *args) {
	return -1;
}
 80496d0:	b8 ff ff ff ff       	mov    $0xffffffff,%eax
 80496d5:	c3                   	ret    
 80496d6:	8d 76 00             	lea    0x0(%esi),%esi
 80496d9:	8d bc 27 00 00 00 00 	lea    0x0(%edi,%eiz,1),%edi

080496e0 <cmd_bt>:
	int no = atoi(args);
	delete_wp(no);
	return 0;
}

static int cmd_bt(char *args) {
 80496e0:	55                   	push   %ebp
 80496e1:	57                   	push   %edi
 80496e2:	56                   	push   %esi
 80496e3:	53                   	push   %ebx
	swaddr_t addr = cpu.eip;
	uint32_t ebp = cpu.ebp;
	char fun_name[32];
	int i, flag, cnt = 0;
	while(ebp) {
 80496e4:	31 f6                	xor    %esi,%esi
	int no = atoi(args);
	delete_wp(no);
	return 0;
}

static int cmd_bt(char *args) {
 80496e6:	83 ec 4c             	sub    $0x4c,%esp
	swaddr_t addr = cpu.eip;
	uint32_t ebp = cpu.ebp;
 80496e9:	8b 1d d4 ae 8f 14    	mov    0x148faed4,%ebx
	delete_wp(no);
	return 0;
}

static int cmd_bt(char *args) {
	swaddr_t addr = cpu.eip;
 80496ef:	a1 e0 ae 8f 14       	mov    0x148faee0,%eax
 80496f4:	8d 6c 24 20          	lea    0x20(%esp),%ebp
	uint32_t ebp = cpu.ebp;
	char fun_name[32];
	int i, flag, cnt = 0;
	while(ebp) {
 80496f8:	85 db                	test   %ebx,%ebx
	delete_wp(no);
	return 0;
}

static int cmd_bt(char *args) {
	swaddr_t addr = cpu.eip;
 80496fa:	89 44 24 08          	mov    %eax,0x8(%esp)
	uint32_t ebp = cpu.ebp;
	char fun_name[32];
	int i, flag, cnt = 0;
	while(ebp) {
 80496fe:	0f 84 dc 00 00 00    	je     80497e0 <cmd_bt+0x100>
 8049704:	8d 74 26 00          	lea    0x0(%esi,%eiz,1),%esi
		flag = 0;
 8049708:	c7 44 24 1c 00 00 00 	movl   $0x0,0x1c(%esp)
 804970f:	00 
		get_func_name(fun_name, addr, &flag);
 8049710:	83 ec 04             	sub    $0x4,%esp
 8049713:	8d 44 24 20          	lea    0x20(%esp),%eax
 8049717:	50                   	push   %eax
 8049718:	ff 74 24 10          	pushl  0x10(%esp)
 804971c:	55                   	push   %ebp
 804971d:	e8 1e ff ff ff       	call   8049640 <get_func_name>
		if(!flag) {
 8049722:	83 c4 10             	add    $0x10,%esp
 8049725:	8b 44 24 1c          	mov    0x1c(%esp),%eax
 8049729:	85 c0                	test   %eax,%eax
 804972b:	0f 84 9f 00 00 00    	je     80497d0 <cmd_bt+0xf0>
			printf("the program haven't start yet.\n");
			return 0;
		}
		printf("#%d\t0x%x\tin %s()\n", cnt++, addr, fun_name);
 8049731:	8d 46 01             	lea    0x1(%esi),%eax
		if(strcmp(fun_name, "main") != 0) addr = swaddr_read(ebp + 4, 4);
 8049734:	bf b4 f0 05 08       	mov    $0x805f0b4,%edi
		get_func_name(fun_name, addr, &flag);
		if(!flag) {
			printf("the program haven't start yet.\n");
			return 0;
		}
		printf("#%d\t0x%x\tin %s()\n", cnt++, addr, fun_name);
 8049739:	89 44 24 0c          	mov    %eax,0xc(%esp)
 804973d:	55                   	push   %ebp
 804973e:	ff 74 24 0c          	pushl  0xc(%esp)
 8049742:	56                   	push   %esi
		if(strcmp(fun_name, "main") != 0) addr = swaddr_read(ebp + 4, 4);
 8049743:	89 ee                	mov    %ebp,%esi
		get_func_name(fun_name, addr, &flag);
		if(!flag) {
			printf("the program haven't start yet.\n");
			return 0;
		}
		printf("#%d\t0x%x\tin %s()\n", cnt++, addr, fun_name);
 8049745:	68 a2 f0 05 08       	push   $0x805f0a2
 804974a:	e8 01 f2 ff ff       	call   8048950 <printf@plt>
		if(strcmp(fun_name, "main") != 0) addr = swaddr_read(ebp + 4, 4);
 804974f:	b9 05 00 00 00       	mov    $0x5,%ecx
 8049754:	f3 a6                	repz cmpsb %es:(%edi),%ds:(%esi)
 8049756:	0f 97 c2             	seta   %dl
 8049759:	0f 92 c0             	setb   %al
 804975c:	83 c4 10             	add    $0x10,%esp
 804975f:	38 c2                	cmp    %al,%dl
 8049761:	75 55                	jne    80497b8 <cmd_bt+0xd8>
		get_func_name(fun_name, addr, &flag);
		if(!flag) {
			printf("the program haven't start yet.\n");
			return 0;
		}
		printf("#%d\t0x%x\tin %s()\n", cnt++, addr, fun_name);
 8049763:	be 02 00 00 00       	mov    $0x2,%esi
		if(strcmp(fun_name, "main") != 0) addr = swaddr_read(ebp + 4, 4);
		for(i = 0; i < 4; i ++) {
			printf("\t0x%08x", swaddr_read(ebp + ((i + 2) << 2), 4));
 8049768:	8d 04 b3             	lea    (%ebx,%esi,4),%eax
 804976b:	83 ec 08             	sub    $0x8,%esp
 804976e:	83 c6 01             	add    $0x1,%esi
 8049771:	6a 04                	push   $0x4
 8049773:	50                   	push   %eax
 8049774:	e8 e7 17 00 00       	call   804af60 <swaddr_read>
 8049779:	59                   	pop    %ecx
 804977a:	5f                   	pop    %edi
 804977b:	50                   	push   %eax
 804977c:	68 b9 f0 05 08       	push   $0x805f0b9
 8049781:	e8 ca f1 ff ff       	call   8048950 <printf@plt>
			printf("the program haven't start yet.\n");
			return 0;
		}
		printf("#%d\t0x%x\tin %s()\n", cnt++, addr, fun_name);
		if(strcmp(fun_name, "main") != 0) addr = swaddr_read(ebp + 4, 4);
		for(i = 0; i < 4; i ++) {
 8049786:	83 c4 10             	add    $0x10,%esp
 8049789:	83 fe 06             	cmp    $0x6,%esi
 804978c:	75 da                	jne    8049768 <cmd_bt+0x88>
			printf("\t0x%08x", swaddr_read(ebp + ((i + 2) << 2), 4));
		}
		printf("\n");
 804978e:	83 ec 0c             	sub    $0xc,%esp
 8049791:	6a 0a                	push   $0xa
 8049793:	e8 78 f3 ff ff       	call   8048b10 <putchar@plt>
		ebp = swaddr_read(ebp, 4);
 8049798:	58                   	pop    %eax
 8049799:	5a                   	pop    %edx
 804979a:	6a 04                	push   $0x4
 804979c:	53                   	push   %ebx
 804979d:	e8 be 17 00 00       	call   804af60 <swaddr_read>
static int cmd_bt(char *args) {
	swaddr_t addr = cpu.eip;
	uint32_t ebp = cpu.ebp;
	char fun_name[32];
	int i, flag, cnt = 0;
	while(ebp) {
 80497a2:	83 c4 10             	add    $0x10,%esp
 80497a5:	85 c0                	test   %eax,%eax
		if(strcmp(fun_name, "main") != 0) addr = swaddr_read(ebp + 4, 4);
		for(i = 0; i < 4; i ++) {
			printf("\t0x%08x", swaddr_read(ebp + ((i + 2) << 2), 4));
		}
		printf("\n");
		ebp = swaddr_read(ebp, 4);
 80497a7:	89 c3                	mov    %eax,%ebx
static int cmd_bt(char *args) {
	swaddr_t addr = cpu.eip;
	uint32_t ebp = cpu.ebp;
	char fun_name[32];
	int i, flag, cnt = 0;
	while(ebp) {
 80497a9:	74 35                	je     80497e0 <cmd_bt+0x100>
		get_func_name(fun_name, addr, &flag);
		if(!flag) {
			printf("the program haven't start yet.\n");
			return 0;
		}
		printf("#%d\t0x%x\tin %s()\n", cnt++, addr, fun_name);
 80497ab:	8b 74 24 0c          	mov    0xc(%esp),%esi
 80497af:	e9 54 ff ff ff       	jmp    8049708 <cmd_bt+0x28>
 80497b4:	8d 74 26 00          	lea    0x0(%esi,%eiz,1),%esi
		if(strcmp(fun_name, "main") != 0) addr = swaddr_read(ebp + 4, 4);
 80497b8:	8d 43 04             	lea    0x4(%ebx),%eax
 80497bb:	83 ec 08             	sub    $0x8,%esp
 80497be:	6a 04                	push   $0x4
 80497c0:	50                   	push   %eax
 80497c1:	e8 9a 17 00 00       	call   804af60 <swaddr_read>
 80497c6:	89 44 24 18          	mov    %eax,0x18(%esp)
 80497ca:	83 c4 10             	add    $0x10,%esp
 80497cd:	eb 94                	jmp    8049763 <cmd_bt+0x83>
 80497cf:	90                   	nop
	int i, flag, cnt = 0;
	while(ebp) {
		flag = 0;
		get_func_name(fun_name, addr, &flag);
		if(!flag) {
			printf("the program haven't start yet.\n");
 80497d0:	83 ec 0c             	sub    $0xc,%esp
 80497d3:	68 28 f0 05 08       	push   $0x805f028
 80497d8:	e8 83 f2 ff ff       	call   8048a60 <puts@plt>
			return 0;
 80497dd:	83 c4 10             	add    $0x10,%esp
		}
		printf("\n");
		ebp = swaddr_read(ebp, 4);
	}
	return 0;
}
 80497e0:	83 c4 4c             	add    $0x4c,%esp
 80497e3:	31 c0                	xor    %eax,%eax
 80497e5:	5b                   	pop    %ebx
 80497e6:	5e                   	pop    %esi
 80497e7:	5f                   	pop    %edi
 80497e8:	5d                   	pop    %ebp
 80497e9:	c3                   	ret    
 80497ea:	8d b6 00 00 00 00    	lea    0x0(%esi),%esi

080497f0 <cmd_d>:
static int cmd_w(char *args) {
	add_wp(args);
	return 0;
}

static int cmd_d(char *args) {
 80497f0:	83 ec 0c             	sub    $0xc,%esp
 80497f3:	8b 44 24 10          	mov    0x10(%esp),%eax
	if(args == 0) {
 80497f7:	85 c0                	test   %eax,%eax
 80497f9:	74 25                	je     8049820 <cmd_d+0x30>
#ifdef __USE_EXTERN_INLINES
__BEGIN_NAMESPACE_STD
__extern_inline int
__NTH (atoi (const char *__nptr))
{
  return (int) strtol (__nptr, (char **) NULL, 10);
 80497fb:	83 ec 04             	sub    $0x4,%esp
 80497fe:	6a 0a                	push   $0xa
 8049800:	6a 00                	push   $0x0
 8049802:	50                   	push   %eax
 8049803:	e8 98 f3 ff ff       	call   8048ba0 <strtol@plt>
		delete_all_wp();
		return 0;
	}
	int no = atoi(args);
	delete_wp(no);
 8049808:	89 04 24             	mov    %eax,(%esp)
 804980b:	e8 e0 06 00 00       	call   8049ef0 <delete_wp>
	return 0;
 8049810:	83 c4 10             	add    $0x10,%esp
}
 8049813:	31 c0                	xor    %eax,%eax
 8049815:	83 c4 0c             	add    $0xc,%esp
 8049818:	c3                   	ret    
 8049819:	8d b4 26 00 00 00 00 	lea    0x0(%esi,%eiz,1),%esi
	return 0;
}

static int cmd_d(char *args) {
	if(args == 0) {
		delete_all_wp();
 8049820:	e8 7b 07 00 00       	call   8049fa0 <delete_all_wp>
		return 0;
	}
	int no = atoi(args);
	delete_wp(no);
	return 0;
}
 8049825:	31 c0                	xor    %eax,%eax
 8049827:	83 c4 0c             	add    $0xc,%esp
 804982a:	c3                   	ret    
 804982b:	90                   	nop
 804982c:	8d 74 26 00          	lea    0x0(%esi,%eiz,1),%esi

08049830 <cmd_w>:
		return 0;
	}
	return 0;
}

static int cmd_w(char *args) {
 8049830:	83 ec 18             	sub    $0x18,%esp
	add_wp(args);
 8049833:	ff 74 24 1c          	pushl  0x1c(%esp)
 8049837:	e8 64 06 00 00       	call   8049ea0 <add_wp>
	return 0;
}
 804983c:	31 c0                	xor    %eax,%eax
 804983e:	83 c4 1c             	add    $0x1c,%esp
 8049841:	c3                   	ret    
 8049842:	8d b4 26 00 00 00 00 	lea    0x0(%esi,%eiz,1),%esi
 8049849:	8d bc 27 00 00 00 00 	lea    0x0(%edi,%eiz,1),%edi

08049850 <cmd_p>:
	}
	printf("\n");
	return 0;
}

static int cmd_p(char *args) {
 8049850:	83 ec 24             	sub    $0x24,%esp
	bool flag = true;
	int n = expr(args, &flag);
 8049853:	8d 44 24 17          	lea    0x17(%esp),%eax
	printf("\n");
	return 0;
}

static int cmd_p(char *args) {
	bool flag = true;
 8049857:	c6 44 24 17 01       	movb   $0x1,0x17(%esp)
	int n = expr(args, &flag);
 804985c:	50                   	push   %eax
 804985d:	ff 74 24 2c          	pushl  0x2c(%esp)
 8049861:	e8 7a 12 00 00       	call   804aae0 <expr>
	if(flag) printf("0x%x\n", n);
 8049866:	83 c4 10             	add    $0x10,%esp
 8049869:	80 7c 24 0f 00       	cmpb   $0x0,0xf(%esp)
 804986e:	75 20                	jne    8049890 <cmd_p+0x40>
	else {
		printf("not a correct expression.\n");
 8049870:	83 ec 0c             	sub    $0xc,%esp
 8049873:	68 c7 f0 05 08       	push   $0x805f0c7
 8049878:	e8 e3 f1 ff ff       	call   8048a60 <puts@plt>
		return 0;
 804987d:	83 c4 10             	add    $0x10,%esp
	}
	return 0;
}
 8049880:	31 c0                	xor    %eax,%eax
 8049882:	83 c4 1c             	add    $0x1c,%esp
 8049885:	c3                   	ret    
 8049886:	8d 76 00             	lea    0x0(%esi),%esi
 8049889:	8d bc 27 00 00 00 00 	lea    0x0(%edi,%eiz,1),%edi
}

static int cmd_p(char *args) {
	bool flag = true;
	int n = expr(args, &flag);
	if(flag) printf("0x%x\n", n);
 8049890:	83 ec 08             	sub    $0x8,%esp
 8049893:	50                   	push   %eax
 8049894:	68 c1 f0 05 08       	push   $0x805f0c1
 8049899:	e8 b2 f0 ff ff       	call   8048950 <printf@plt>
	else {
		printf("not a correct expression.\n");
		return 0;
	}
	return 0;
 804989e:	83 c4 10             	add    $0x10,%esp
}
 80498a1:	31 c0                	xor    %eax,%eax
 80498a3:	83 c4 1c             	add    $0x1c,%esp
 80498a6:	c3                   	ret    
 80498a7:	89 f6                	mov    %esi,%esi
 80498a9:	8d bc 27 00 00 00 00 	lea    0x0(%edi,%eiz,1),%edi

080498b0 <cmd_x>:
		print_wp_info();
	}
	return 0;
}

static int cmd_x(char *args) {
 80498b0:	57                   	push   %edi
 80498b1:	56                   	push   %esi
 80498b2:	53                   	push   %ebx
 80498b3:	83 ec 10             	sub    $0x10,%esp
 80498b6:	8b 74 24 20          	mov    0x20(%esp),%esi
	int i;
	int j = 0, n = 0, m = 0;
	bool flag = true;
 80498ba:	c6 44 24 0f 01       	movb   $0x1,0xf(%esp)
	while(args[j]!=' ') {
 80498bf:	80 3e 20             	cmpb   $0x20,(%esi)
 80498c2:	0f 84 c1 00 00 00    	je     8049989 <cmd_x+0xd9>
 80498c8:	31 c0                	xor    %eax,%eax
 80498ca:	8d b6 00 00 00 00    	lea    0x0(%esi),%esi
		j++;
 80498d0:	83 c0 01             	add    $0x1,%eax

static int cmd_x(char *args) {
	int i;
	int j = 0, n = 0, m = 0;
	bool flag = true;
	while(args[j]!=' ') {
 80498d3:	80 3c 06 20          	cmpb   $0x20,(%esi,%eax,1)
 80498d7:	75 f7                	jne    80498d0 <cmd_x+0x20>
 80498d9:	8d 58 01             	lea    0x1(%eax),%ebx
 80498dc:	83 ec 04             	sub    $0x4,%esp
 80498df:	6a 0a                	push   $0xa
 80498e1:	6a 00                	push   $0x0
 80498e3:	56                   	push   %esi
 80498e4:	e8 b7 f2 ff ff       	call   8048ba0 <strtol@plt>
 80498e9:	89 c7                	mov    %eax,%edi
		j++;
	}
	n = atoi(args);
	m = expr(args + j + 1, &flag);
 80498eb:	58                   	pop    %eax
 80498ec:	5a                   	pop    %edx
 80498ed:	8d 14 1e             	lea    (%esi,%ebx,1),%edx
 80498f0:	8d 44 24 17          	lea    0x17(%esp),%eax
 80498f4:	50                   	push   %eax
 80498f5:	52                   	push   %edx
 80498f6:	e8 e5 11 00 00       	call   804aae0 <expr>
	if(!flag) {
 80498fb:	83 c4 10             	add    $0x10,%esp
 80498fe:	80 7c 24 0f 00       	cmpb   $0x0,0xf(%esp)
 8049903:	74 6b                	je     8049970 <cmd_x+0xc0>
		printf("not a correct expression.\n");
		return 0;
	}
	for(i = 0; i < 4 * n; i += 4) {
 8049905:	c1 e7 02             	shl    $0x2,%edi
 8049908:	31 db                	xor    %ebx,%ebx
 804990a:	89 c6                	mov    %eax,%esi
 804990c:	85 ff                	test   %edi,%edi
 804990e:	7f 2d                	jg     804993d <cmd_x+0x8d>
 8049910:	eb 46                	jmp    8049958 <cmd_x+0xa8>
 8049912:	8d b6 00 00 00 00    	lea    0x0(%esi),%esi
		if((i & 15) == 0) printf("\n0x%08x:", m + i);
		printf(" 0x%08x", hwaddr_read(m + i, 4));
 8049918:	83 ec 08             	sub    $0x8,%esp
	m = expr(args + j + 1, &flag);
	if(!flag) {
		printf("not a correct expression.\n");
		return 0;
	}
	for(i = 0; i < 4 * n; i += 4) {
 804991b:	83 c3 04             	add    $0x4,%ebx
		if((i & 15) == 0) printf("\n0x%08x:", m + i);
		printf(" 0x%08x", hwaddr_read(m + i, 4));
 804991e:	6a 04                	push   $0x4
 8049920:	56                   	push   %esi
 8049921:	83 c6 04             	add    $0x4,%esi
 8049924:	e8 b7 15 00 00       	call   804aee0 <hwaddr_read>
 8049929:	5a                   	pop    %edx
 804992a:	59                   	pop    %ecx
 804992b:	50                   	push   %eax
 804992c:	68 ea f0 05 08       	push   $0x805f0ea
 8049931:	e8 1a f0 ff ff       	call   8048950 <printf@plt>
	m = expr(args + j + 1, &flag);
	if(!flag) {
		printf("not a correct expression.\n");
		return 0;
	}
	for(i = 0; i < 4 * n; i += 4) {
 8049936:	83 c4 10             	add    $0x10,%esp
 8049939:	39 fb                	cmp    %edi,%ebx
 804993b:	7d 1b                	jge    8049958 <cmd_x+0xa8>
		if((i & 15) == 0) printf("\n0x%08x:", m + i);
 804993d:	f6 c3 0f             	test   $0xf,%bl
 8049940:	75 d6                	jne    8049918 <cmd_x+0x68>
 8049942:	83 ec 08             	sub    $0x8,%esp
 8049945:	56                   	push   %esi
 8049946:	68 e1 f0 05 08       	push   $0x805f0e1
 804994b:	e8 00 f0 ff ff       	call   8048950 <printf@plt>
 8049950:	83 c4 10             	add    $0x10,%esp
 8049953:	eb c3                	jmp    8049918 <cmd_x+0x68>
 8049955:	8d 76 00             	lea    0x0(%esi),%esi
		printf(" 0x%08x", hwaddr_read(m + i, 4));
	}
	printf("\n");
 8049958:	83 ec 0c             	sub    $0xc,%esp
 804995b:	6a 0a                	push   $0xa
 804995d:	e8 ae f1 ff ff       	call   8048b10 <putchar@plt>
	return 0;
 8049962:	83 c4 10             	add    $0x10,%esp
}
 8049965:	31 c0                	xor    %eax,%eax
 8049967:	83 c4 10             	add    $0x10,%esp
 804996a:	5b                   	pop    %ebx
 804996b:	5e                   	pop    %esi
 804996c:	5f                   	pop    %edi
 804996d:	c3                   	ret    
 804996e:	66 90                	xchg   %ax,%ax
		j++;
	}
	n = atoi(args);
	m = expr(args + j + 1, &flag);
	if(!flag) {
		printf("not a correct expression.\n");
 8049970:	83 ec 0c             	sub    $0xc,%esp
 8049973:	68 c7 f0 05 08       	push   $0x805f0c7
 8049978:	e8 e3 f0 ff ff       	call   8048a60 <puts@plt>
		return 0;
 804997d:	83 c4 10             	add    $0x10,%esp
		if((i & 15) == 0) printf("\n0x%08x:", m + i);
		printf(" 0x%08x", hwaddr_read(m + i, 4));
	}
	printf("\n");
	return 0;
}
 8049980:	31 c0                	xor    %eax,%eax
 8049982:	83 c4 10             	add    $0x10,%esp
 8049985:	5b                   	pop    %ebx
 8049986:	5e                   	pop    %esi
 8049987:	5f                   	pop    %edi
 8049988:	c3                   	ret    

static int cmd_x(char *args) {
	int i;
	int j = 0, n = 0, m = 0;
	bool flag = true;
	while(args[j]!=' ') {
 8049989:	bb 01 00 00 00       	mov    $0x1,%ebx
 804998e:	e9 49 ff ff ff       	jmp    80498dc <cmd_x+0x2c>
 8049993:	8d b6 00 00 00 00    	lea    0x0(%esi),%esi
 8049999:	8d bc 27 00 00 00 00 	lea    0x0(%edi,%eiz,1),%edi

080499a0 <cmd_si>:

static int cmd_q(char *args) {
	return -1;
}

static int cmd_si(char *args) {
 80499a0:	83 ec 0c             	sub    $0xc,%esp
 80499a3:	8b 44 24 10          	mov    0x10(%esp),%eax
	if(args == NULL)cpu_exec(1);
 80499a7:	85 c0                	test   %eax,%eax
 80499a9:	74 25                	je     80499d0 <cmd_si+0x30>
 80499ab:	83 ec 04             	sub    $0x4,%esp
 80499ae:	6a 0a                	push   $0xa
 80499b0:	6a 00                	push   $0x0
 80499b2:	50                   	push   %eax
 80499b3:	e8 e8 f1 ff ff       	call   8048ba0 <strtol@plt>
	else cpu_exec(atoi(args));
 80499b8:	89 04 24             	mov    %eax,(%esp)
 80499bb:	e8 90 13 00 00       	call   804ad50 <cpu_exec>
 80499c0:	83 c4 10             	add    $0x10,%esp
	return 0;
}
 80499c3:	31 c0                	xor    %eax,%eax
 80499c5:	83 c4 0c             	add    $0xc,%esp
 80499c8:	c3                   	ret    
 80499c9:	8d b4 26 00 00 00 00 	lea    0x0(%esi,%eiz,1),%esi
static int cmd_q(char *args) {
	return -1;
}

static int cmd_si(char *args) {
	if(args == NULL)cpu_exec(1);
 80499d0:	83 ec 0c             	sub    $0xc,%esp
 80499d3:	6a 01                	push   $0x1
 80499d5:	e8 76 13 00 00       	call   804ad50 <cpu_exec>
 80499da:	83 c4 10             	add    $0x10,%esp
	else cpu_exec(atoi(args));
	return 0;
}
 80499dd:	31 c0                	xor    %eax,%eax
 80499df:	83 c4 0c             	add    $0xc,%esp
 80499e2:	c3                   	ret    
 80499e3:	8d b6 00 00 00 00    	lea    0x0(%esi),%esi
 80499e9:	8d bc 27 00 00 00 00 	lea    0x0(%edi,%eiz,1),%edi

080499f0 <cmd_c>:
	}

	return line_read;
}

static int cmd_c(char *args) {
 80499f0:	83 ec 18             	sub    $0x18,%esp
	cpu_exec(-1);
 80499f3:	6a ff                	push   $0xffffffff
 80499f5:	e8 56 13 00 00       	call   804ad50 <cpu_exec>
	return 0;
}
 80499fa:	31 c0                	xor    %eax,%eax
 80499fc:	83 c4 1c             	add    $0x1c,%esp
 80499ff:	c3                   	ret    

08049a00 <cmd_help>:

};

#define NR_CMD (sizeof(cmd_table) / sizeof(cmd_table[0]))

static int cmd_help(char *args) {
 8049a00:	55                   	push   %ebp
 8049a01:	57                   	push   %edi
 8049a02:	56                   	push   %esi
 8049a03:	53                   	push   %ebx
	/* extract the first argument */
	char *arg = strtok(NULL, " ");
	int i;

	if(arg == NULL) {
 8049a04:	31 db                	xor    %ebx,%ebx
 8049a06:	be 00 f2 05 08       	mov    $0x805f200,%esi

};

#define NR_CMD (sizeof(cmd_table) / sizeof(cmd_table[0]))

static int cmd_help(char *args) {
 8049a0b:	83 ec 14             	sub    $0x14,%esp
	/* extract the first argument */
	char *arg = strtok(NULL, " ");
 8049a0e:	68 a6 f6 05 08       	push   $0x805f6a6
 8049a13:	6a 00                	push   $0x0
 8049a15:	e8 46 f1 ff ff       	call   8048b60 <strtok@plt>
	int i;

	if(arg == NULL) {
 8049a1a:	83 c4 10             	add    $0x10,%esp
 8049a1d:	85 c0                	test   %eax,%eax

#define NR_CMD (sizeof(cmd_table) / sizeof(cmd_table[0]))

static int cmd_help(char *args) {
	/* extract the first argument */
	char *arg = strtok(NULL, " ");
 8049a1f:	89 c5                	mov    %eax,%ebp
	int i;

	if(arg == NULL) {
 8049a21:	74 6d                	je     8049a90 <cmd_help+0x90>
 8049a23:	90                   	nop
 8049a24:	8d 74 26 00          	lea    0x0(%esi,%eiz,1),%esi
			printf("%s - %s\n", cmd_table[i].name, cmd_table[i].description);
		}
	}
	else {
		for(i = 0; i < NR_CMD; i ++) {
			if(strcmp(arg, cmd_table[i].name) == 0) {
 8049a28:	8b 3e                	mov    (%esi),%edi
 8049a2a:	83 ec 08             	sub    $0x8,%esp
 8049a2d:	57                   	push   %edi
 8049a2e:	55                   	push   %ebp
 8049a2f:	e8 0c ef ff ff       	call   8048940 <strcmp@plt>
 8049a34:	83 c4 10             	add    $0x10,%esp
 8049a37:	85 c0                	test   %eax,%eax
 8049a39:	74 2d                	je     8049a68 <cmd_help+0x68>
		for(i = 0; i < NR_CMD; i ++) {
			printf("%s - %s\n", cmd_table[i].name, cmd_table[i].description);
		}
	}
	else {
		for(i = 0; i < NR_CMD; i ++) {
 8049a3b:	83 c3 01             	add    $0x1,%ebx
 8049a3e:	83 c6 0c             	add    $0xc,%esi
 8049a41:	83 fb 0a             	cmp    $0xa,%ebx
 8049a44:	75 e2                	jne    8049a28 <cmd_help+0x28>
			if(strcmp(arg, cmd_table[i].name) == 0) {
				printf("%s - %s\n", cmd_table[i].name, cmd_table[i].description);
				return 0;
			}
		}
		printf("Unknown command '%s'\n", arg);
 8049a46:	83 ec 08             	sub    $0x8,%esp
 8049a49:	55                   	push   %ebp
 8049a4a:	68 fb f0 05 08       	push   $0x805f0fb
 8049a4f:	e8 fc ee ff ff       	call   8048950 <printf@plt>
 8049a54:	83 c4 10             	add    $0x10,%esp
	}
	return 0;
}
 8049a57:	31 c0                	xor    %eax,%eax
 8049a59:	83 c4 0c             	add    $0xc,%esp
 8049a5c:	5b                   	pop    %ebx
 8049a5d:	5e                   	pop    %esi
 8049a5e:	5f                   	pop    %edi
 8049a5f:	5d                   	pop    %ebp
 8049a60:	c3                   	ret    
 8049a61:	8d b4 26 00 00 00 00 	lea    0x0(%esi,%eiz,1),%esi
		}
	}
	else {
		for(i = 0; i < NR_CMD; i ++) {
			if(strcmp(arg, cmd_table[i].name) == 0) {
				printf("%s - %s\n", cmd_table[i].name, cmd_table[i].description);
 8049a68:	8d 04 5b             	lea    (%ebx,%ebx,2),%eax
 8049a6b:	83 ec 04             	sub    $0x4,%esp
 8049a6e:	ff 34 85 04 f2 05 08 	pushl  0x805f204(,%eax,4)
 8049a75:	57                   	push   %edi
 8049a76:	68 f2 f0 05 08       	push   $0x805f0f2
 8049a7b:	e8 d0 ee ff ff       	call   8048950 <printf@plt>
				return 0;
 8049a80:	83 c4 10             	add    $0x10,%esp
			}
		}
		printf("Unknown command '%s'\n", arg);
	}
	return 0;
}
 8049a83:	31 c0                	xor    %eax,%eax
 8049a85:	83 c4 0c             	add    $0xc,%esp
 8049a88:	5b                   	pop    %ebx
 8049a89:	5e                   	pop    %esi
 8049a8a:	5f                   	pop    %edi
 8049a8b:	5d                   	pop    %ebp
 8049a8c:	c3                   	ret    
 8049a8d:	8d 76 00             	lea    0x0(%esi),%esi
 8049a90:	bb 04 f2 05 08       	mov    $0x805f204,%ebx
 8049a95:	8d 76 00             	lea    0x0(%esi),%esi
	int i;

	if(arg == NULL) {
		/* no argument given */
		for(i = 0; i < NR_CMD; i ++) {
			printf("%s - %s\n", cmd_table[i].name, cmd_table[i].description);
 8049a98:	83 ec 04             	sub    $0x4,%esp
 8049a9b:	ff 33                	pushl  (%ebx)
 8049a9d:	ff 73 fc             	pushl  -0x4(%ebx)
 8049aa0:	68 f2 f0 05 08       	push   $0x805f0f2
 8049aa5:	83 c3 0c             	add    $0xc,%ebx
 8049aa8:	e8 a3 ee ff ff       	call   8048950 <printf@plt>
	char *arg = strtok(NULL, " ");
	int i;

	if(arg == NULL) {
		/* no argument given */
		for(i = 0; i < NR_CMD; i ++) {
 8049aad:	83 c4 10             	add    $0x10,%esp
 8049ab0:	81 fb 7c f2 05 08    	cmp    $0x805f27c,%ebx
 8049ab6:	75 e0                	jne    8049a98 <cmd_help+0x98>
			}
		}
		printf("Unknown command '%s'\n", arg);
	}
	return 0;
}
 8049ab8:	83 c4 0c             	add    $0xc,%esp
 8049abb:	31 c0                	xor    %eax,%eax
 8049abd:	5b                   	pop    %ebx
 8049abe:	5e                   	pop    %esi
 8049abf:	5f                   	pop    %edi
 8049ac0:	5d                   	pop    %ebp
 8049ac1:	c3                   	ret    
 8049ac2:	8d b4 26 00 00 00 00 	lea    0x0(%esi,%eiz,1),%esi
 8049ac9:	8d bc 27 00 00 00 00 	lea    0x0(%edi,%eiz,1),%edi

08049ad0 <cmd_info>:
	if(args == NULL)cpu_exec(1);
	else cpu_exec(atoi(args));
	return 0;
}

static int cmd_info(char *args) {
 8049ad0:	53                   	push   %ebx
 8049ad1:	83 ec 08             	sub    $0x8,%esp
 8049ad4:	8b 44 24 10          	mov    0x10(%esp),%eax
	int i;
	if(args == NULL) {
 8049ad8:	85 c0                	test   %eax,%eax
 8049ada:	0f 84 e8 00 00 00    	je     8049bc8 <cmd_info+0xf8>
		printf("no input!");
		return 0;
	}
	if(args[0] == 'r') {
 8049ae0:	0f b6 00             	movzbl (%eax),%eax
 8049ae3:	3c 72                	cmp    $0x72,%al
 8049ae5:	74 19                	je     8049b00 <cmd_info+0x30>
		printf("OF = %d\n", cpu.OF);
		printf("CF = %d\n", cpu.CF);
		printf("SF = %d\n", cpu.SF);
		printf("ZF = %d\n", cpu.ZF);
	}
	else if(args[0] == 'w') {
 8049ae7:	3c 77                	cmp    $0x77,%al
 8049ae9:	0f 84 c9 00 00 00    	je     8049bb8 <cmd_info+0xe8>
		print_wp_info();
	}
	return 0;
}
 8049aef:	83 c4 08             	add    $0x8,%esp
 8049af2:	31 c0                	xor    %eax,%eax
 8049af4:	5b                   	pop    %ebx
 8049af5:	c3                   	ret    
 8049af6:	8d 76 00             	lea    0x0(%esi),%esi
 8049af9:	8d bc 27 00 00 00 00 	lea    0x0(%edi,%eiz,1),%edi
 8049b00:	31 db                	xor    %ebx,%ebx
		printf("no input!");
		return 0;
	}
	if(args[0] == 'r') {
		for(i = R_EAX; i <= R_EDI; i ++) {
			printf("%s = 0x%08x\n", regsl[i], reg_l(i));
 8049b02:	83 ec 04             	sub    $0x4,%esp
 8049b05:	ff 34 9d c0 ae 8f 14 	pushl  0x148faec0(,%ebx,4)
 8049b0c:	ff 34 9d c0 5b 07 08 	pushl  0x8075bc0(,%ebx,4)
 8049b13:	68 1b f1 05 08       	push   $0x805f11b
	if(args == NULL) {
		printf("no input!");
		return 0;
	}
	if(args[0] == 'r') {
		for(i = R_EAX; i <= R_EDI; i ++) {
 8049b18:	83 c3 01             	add    $0x1,%ebx
			printf("%s = 0x%08x\n", regsl[i], reg_l(i));
 8049b1b:	e8 30 ee ff ff       	call   8048950 <printf@plt>
	if(args == NULL) {
		printf("no input!");
		return 0;
	}
	if(args[0] == 'r') {
		for(i = R_EAX; i <= R_EDI; i ++) {
 8049b20:	83 c4 10             	add    $0x10,%esp
 8049b23:	83 fb 08             	cmp    $0x8,%ebx
 8049b26:	75 da                	jne    8049b02 <cmd_info+0x32>
			printf("%s = 0x%04x\n", regsw[i], reg_w(i));
		}
		for(i = R_AL; i <= R_BH; i ++) {
			printf("%s = 0x%02x\n", regsb[i], reg_b(i));
		}*/
		printf("PF = %d\n", cpu.PF);
 8049b28:	0f b6 05 e4 ae 8f 14 	movzbl 0x148faee4,%eax
 8049b2f:	83 ec 08             	sub    $0x8,%esp
 8049b32:	c0 e8 02             	shr    $0x2,%al
 8049b35:	83 e0 01             	and    $0x1,%eax
 8049b38:	50                   	push   %eax
 8049b39:	68 28 f1 05 08       	push   $0x805f128
 8049b3e:	e8 0d ee ff ff       	call   8048950 <printf@plt>
		printf("OF = %d\n", cpu.OF);
 8049b43:	58                   	pop    %eax
 8049b44:	0f b6 05 e5 ae 8f 14 	movzbl 0x148faee5,%eax
 8049b4b:	5a                   	pop    %edx
 8049b4c:	c0 e8 03             	shr    $0x3,%al
 8049b4f:	83 e0 01             	and    $0x1,%eax
 8049b52:	50                   	push   %eax
 8049b53:	68 31 f1 05 08       	push   $0x805f131
 8049b58:	e8 f3 ed ff ff       	call   8048950 <printf@plt>
		printf("CF = %d\n", cpu.CF);
 8049b5d:	0f b6 05 e4 ae 8f 14 	movzbl 0x148faee4,%eax
 8049b64:	59                   	pop    %ecx
 8049b65:	5b                   	pop    %ebx
 8049b66:	83 e0 01             	and    $0x1,%eax
 8049b69:	50                   	push   %eax
 8049b6a:	68 3a f1 05 08       	push   $0x805f13a
 8049b6f:	e8 dc ed ff ff       	call   8048950 <printf@plt>
		printf("SF = %d\n", cpu.SF);
 8049b74:	58                   	pop    %eax
 8049b75:	0f b6 05 e4 ae 8f 14 	movzbl 0x148faee4,%eax
 8049b7c:	5a                   	pop    %edx
 8049b7d:	c0 e8 07             	shr    $0x7,%al
 8049b80:	0f b6 c0             	movzbl %al,%eax
 8049b83:	50                   	push   %eax
 8049b84:	68 43 f1 05 08       	push   $0x805f143
 8049b89:	e8 c2 ed ff ff       	call   8048950 <printf@plt>
		printf("ZF = %d\n", cpu.ZF);
 8049b8e:	0f b6 05 e4 ae 8f 14 	movzbl 0x148faee4,%eax
 8049b95:	59                   	pop    %ecx
 8049b96:	5b                   	pop    %ebx
 8049b97:	c0 e8 06             	shr    $0x6,%al
 8049b9a:	83 e0 01             	and    $0x1,%eax
 8049b9d:	50                   	push   %eax
 8049b9e:	68 4c f1 05 08       	push   $0x805f14c
 8049ba3:	e8 a8 ed ff ff       	call   8048950 <printf@plt>
 8049ba8:	83 c4 10             	add    $0x10,%esp
	}
	else if(args[0] == 'w') {
		print_wp_info();
	}
	return 0;
}
 8049bab:	31 c0                	xor    %eax,%eax
 8049bad:	83 c4 08             	add    $0x8,%esp
 8049bb0:	5b                   	pop    %ebx
 8049bb1:	c3                   	ret    
 8049bb2:	8d b6 00 00 00 00    	lea    0x0(%esi),%esi
		printf("CF = %d\n", cpu.CF);
		printf("SF = %d\n", cpu.SF);
		printf("ZF = %d\n", cpu.ZF);
	}
	else if(args[0] == 'w') {
		print_wp_info();
 8049bb8:	e8 93 02 00 00       	call   8049e50 <print_wp_info>
	}
	return 0;
}
 8049bbd:	83 c4 08             	add    $0x8,%esp
 8049bc0:	31 c0                	xor    %eax,%eax
 8049bc2:	5b                   	pop    %ebx
 8049bc3:	c3                   	ret    
 8049bc4:	8d 74 26 00          	lea    0x0(%esi,%eiz,1),%esi
}

static int cmd_info(char *args) {
	int i;
	if(args == NULL) {
		printf("no input!");
 8049bc8:	83 ec 0c             	sub    $0xc,%esp
 8049bcb:	68 11 f1 05 08       	push   $0x805f111
 8049bd0:	e8 7b ed ff ff       	call   8048950 <printf@plt>
		return 0;
 8049bd5:	83 c4 10             	add    $0x10,%esp
 8049bd8:	e9 12 ff ff ff       	jmp    8049aef <cmd_info+0x1f>
 8049bdd:	8d 76 00             	lea    0x0(%esi),%esi

08049be0 <rl_gets>:
void get_func_name(char *, swaddr_t, int *);

void cpu_exec(uint32_t);

/* We use the ``readline'' library to provide more flexibility to read from stdin. */
char* rl_gets() {
 8049be0:	83 ec 0c             	sub    $0xc,%esp
	static char *line_read = NULL;

	if (line_read) {
 8049be3:	a1 3c 5c 07 08       	mov    0x8075c3c,%eax
 8049be8:	85 c0                	test   %eax,%eax
 8049bea:	74 16                	je     8049c02 <rl_gets+0x22>
		free(line_read);
 8049bec:	83 ec 0c             	sub    $0xc,%esp
 8049bef:	50                   	push   %eax
 8049bf0:	e8 8b ed ff ff       	call   8048980 <free@plt>
		line_read = NULL;
 8049bf5:	c7 05 3c 5c 07 08 00 	movl   $0x0,0x8075c3c
 8049bfc:	00 00 00 
 8049bff:	83 c4 10             	add    $0x10,%esp
	}

	line_read = readline("(nemu) ");
 8049c02:	83 ec 0c             	sub    $0xc,%esp
 8049c05:	68 55 f1 05 08       	push   $0x805f155
 8049c0a:	e8 f1 ed ff ff       	call   8048a00 <readline@plt>

	if (line_read && *line_read) {
 8049c0f:	83 c4 10             	add    $0x10,%esp
 8049c12:	85 c0                	test   %eax,%eax
	if (line_read) {
		free(line_read);
		line_read = NULL;
	}

	line_read = readline("(nemu) ");
 8049c14:	a3 3c 5c 07 08       	mov    %eax,0x8075c3c

	if (line_read && *line_read) {
 8049c19:	74 16                	je     8049c31 <rl_gets+0x51>
 8049c1b:	80 38 00             	cmpb   $0x0,(%eax)
 8049c1e:	74 11                	je     8049c31 <rl_gets+0x51>
		add_history(line_read);
 8049c20:	83 ec 0c             	sub    $0xc,%esp
 8049c23:	50                   	push   %eax
 8049c24:	e8 67 ed ff ff       	call   8048990 <add_history@plt>
 8049c29:	a1 3c 5c 07 08       	mov    0x8075c3c,%eax
 8049c2e:	83 c4 10             	add    $0x10,%esp
	}

	return line_read;
}
 8049c31:	83 c4 0c             	add    $0xc,%esp
 8049c34:	c3                   	ret    
 8049c35:	8d 74 26 00          	lea    0x0(%esi,%eiz,1),%esi
 8049c39:	8d bc 27 00 00 00 00 	lea    0x0(%edi,%eiz,1),%edi

08049c40 <ui_mainloop>:
		printf("Unknown command '%s'\n", arg);
	}
	return 0;
}

void ui_mainloop() {
 8049c40:	55                   	push   %ebp
 8049c41:	57                   	push   %edi
 8049c42:	56                   	push   %esi
 8049c43:	53                   	push   %ebx
 8049c44:	83 ec 0c             	sub    $0xc,%esp
 8049c47:	89 f6                	mov    %esi,%esi
 8049c49:	8d bc 27 00 00 00 00 	lea    0x0(%edi,%eiz,1),%edi
	while(1) {
		char *str = rl_gets();
 8049c50:	e8 8b ff ff ff       	call   8049be0 <rl_gets>
		char *str_end = str + strlen(str);
 8049c55:	83 ec 0c             	sub    $0xc,%esp
	return 0;
}

void ui_mainloop() {
	while(1) {
		char *str = rl_gets();
 8049c58:	89 c3                	mov    %eax,%ebx
		char *str_end = str + strlen(str);
 8049c5a:	50                   	push   %eax
 8049c5b:	e8 40 ee ff ff       	call   8048aa0 <strlen@plt>
 8049c60:	5a                   	pop    %edx
 8049c61:	59                   	pop    %ecx

		/* extract the first token as the command */
		char *cmd = strtok(str, " ");
 8049c62:	68 a6 f6 05 08       	push   $0x805f6a6
 8049c67:	53                   	push   %ebx
}

void ui_mainloop() {
	while(1) {
		char *str = rl_gets();
		char *str_end = str + strlen(str);
 8049c68:	89 c6                	mov    %eax,%esi

		/* extract the first token as the command */
		char *cmd = strtok(str, " ");
 8049c6a:	e8 f1 ee ff ff       	call   8048b60 <strtok@plt>
		if(cmd == NULL) { continue; }
 8049c6f:	83 c4 10             	add    $0x10,%esp
 8049c72:	85 c0                	test   %eax,%eax
	while(1) {
		char *str = rl_gets();
		char *str_end = str + strlen(str);

		/* extract the first token as the command */
		char *cmd = strtok(str, " ");
 8049c74:	89 c7                	mov    %eax,%edi
		if(cmd == NULL) { continue; }
 8049c76:	74 d8                	je     8049c50 <ui_mainloop+0x10>

		/* treat the remaining string as the arguments,
		 * which may need further parsing
		 */
		char *args = cmd + strlen(cmd) + 1;
 8049c78:	83 ec 0c             	sub    $0xc,%esp
}

void ui_mainloop() {
	while(1) {
		char *str = rl_gets();
		char *str_end = str + strlen(str);
 8049c7b:	01 f3                	add    %esi,%ebx
 8049c7d:	be 00 f2 05 08       	mov    $0x805f200,%esi
		if(cmd == NULL) { continue; }

		/* treat the remaining string as the arguments,
		 * which may need further parsing
		 */
		char *args = cmd + strlen(cmd) + 1;
 8049c82:	50                   	push   %eax
 8049c83:	e8 18 ee ff ff       	call   8048aa0 <strlen@plt>
 8049c88:	8d 6c 07 01          	lea    0x1(%edi,%eax,1),%ebp
 8049c8c:	83 c4 10             	add    $0x10,%esp
		if(args >= str_end) {
			args = NULL;
 8049c8f:	39 dd                	cmp    %ebx,%ebp
 8049c91:	19 c0                	sbb    %eax,%eax
 8049c93:	31 db                	xor    %ebx,%ebx
 8049c95:	21 c5                	and    %eax,%ebp
 8049c97:	89 f6                	mov    %esi,%esi
 8049c99:	8d bc 27 00 00 00 00 	lea    0x0(%edi,%eiz,1),%edi
		sdl_clear_event_queue();
#endif

		int i;
		for(i = 0; i < NR_CMD; i ++) {
			if(strcmp(cmd, cmd_table[i].name) == 0) {
 8049ca0:	83 ec 08             	sub    $0x8,%esp
 8049ca3:	ff 36                	pushl  (%esi)
 8049ca5:	57                   	push   %edi
 8049ca6:	e8 95 ec ff ff       	call   8048940 <strcmp@plt>
 8049cab:	83 c4 10             	add    $0x10,%esp
 8049cae:	85 c0                	test   %eax,%eax
 8049cb0:	74 1e                	je     8049cd0 <ui_mainloop+0x90>
		extern void sdl_clear_event_queue(void);
		sdl_clear_event_queue();
#endif

		int i;
		for(i = 0; i < NR_CMD; i ++) {
 8049cb2:	83 c3 01             	add    $0x1,%ebx
 8049cb5:	83 c6 0c             	add    $0xc,%esi
 8049cb8:	83 fb 0a             	cmp    $0xa,%ebx
 8049cbb:	75 e3                	jne    8049ca0 <ui_mainloop+0x60>
				if(cmd_table[i].handler(args) < 0) { return; }
				break;
			}
		}

		if(i == NR_CMD) { printf("Unknown command '%s'\n", cmd); }
 8049cbd:	83 ec 08             	sub    $0x8,%esp
 8049cc0:	57                   	push   %edi
 8049cc1:	68 fb f0 05 08       	push   $0x805f0fb
 8049cc6:	e8 85 ec ff ff       	call   8048950 <printf@plt>
 8049ccb:	83 c4 10             	add    $0x10,%esp
 8049cce:	eb 80                	jmp    8049c50 <ui_mainloop+0x10>
#endif

		int i;
		for(i = 0; i < NR_CMD; i ++) {
			if(strcmp(cmd, cmd_table[i].name) == 0) {
				if(cmd_table[i].handler(args) < 0) { return; }
 8049cd0:	83 ec 0c             	sub    $0xc,%esp
 8049cd3:	8d 04 5b             	lea    (%ebx,%ebx,2),%eax
 8049cd6:	55                   	push   %ebp
 8049cd7:	ff 14 85 08 f2 05 08 	call   *0x805f208(,%eax,4)
 8049cde:	83 c4 10             	add    $0x10,%esp
 8049ce1:	85 c0                	test   %eax,%eax
 8049ce3:	0f 89 67 ff ff ff    	jns    8049c50 <ui_mainloop+0x10>
			}
		}

		if(i == NR_CMD) { printf("Unknown command '%s'\n", cmd); }
	}
}
 8049ce9:	83 c4 0c             	add    $0xc,%esp
 8049cec:	5b                   	pop    %ebx
 8049ced:	5e                   	pop    %esi
 8049cee:	5f                   	pop    %edi
 8049cef:	5d                   	pop    %ebp
 8049cf0:	c3                   	ret    
 8049cf1:	66 90                	xchg   %ax,%ax
 8049cf3:	66 90                	xchg   %ax,%ax
 8049cf5:	66 90                	xchg   %ax,%ax
 8049cf7:	66 90                	xchg   %ax,%ax
 8049cf9:	66 90                	xchg   %ax,%ax
 8049cfb:	66 90                	xchg   %ax,%ax
 8049cfd:	66 90                	xchg   %ax,%ax
 8049cff:	90                   	nop

08049d00 <init_wp_list>:

static WP wp_list[NR_WP];
static WP *head, *free_;
static int wp_num = 0;

void init_wp_list() {
 8049d00:	b8 8c 5d 07 08       	mov    $0x8075d8c,%eax
	int i;
	for(i = 0; i < NR_WP; i ++) {
 8049d05:	31 d2                	xor    %edx,%edx
 8049d07:	89 f6                	mov    %esi,%esi
 8049d09:	8d bc 27 00 00 00 00 	lea    0x0(%edi,%eiz,1),%edi
		wp_list[i].NO = i;
 8049d10:	89 90 f4 fe ff ff    	mov    %edx,-0x10c(%eax)
		wp_list[i].next = &wp_list[i + 1];
 8049d16:	83 c2 01             	add    $0x1,%edx
 8049d19:	89 80 f8 fe ff ff    	mov    %eax,-0x108(%eax)
 8049d1f:	05 0c 01 00 00       	add    $0x10c,%eax
static WP *head, *free_;
static int wp_num = 0;

void init_wp_list() {
	int i;
	for(i = 0; i < NR_WP; i ++) {
 8049d24:	83 fa 20             	cmp    $0x20,%edx
 8049d27:	75 e7                	jne    8049d10 <init_wp_list+0x10>
		wp_list[i].NO = i;
		wp_list[i].next = &wp_list[i + 1];
	}
	wp_list[NR_WP - 1].next = NULL;
 8049d29:	c7 05 f8 7c 07 08 00 	movl   $0x0,0x8077cf8
 8049d30:	00 00 00 

	head = NULL;
 8049d33:	c7 05 48 5c 07 08 00 	movl   $0x0,0x8075c48
 8049d3a:	00 00 00 
	free_ = wp_list;
 8049d3d:	c7 05 44 5c 07 08 80 	movl   $0x8075c80,0x8075c44
 8049d44:	5c 07 08 
 8049d47:	c3                   	ret    
 8049d48:	90                   	nop
 8049d49:	8d b4 26 00 00 00 00 	lea    0x0(%esi,%eiz,1),%esi

08049d50 <new_wp>:
}

WP* new_wp() {
	WP *now = free_;
 8049d50:	a1 44 5c 07 08       	mov    0x8075c44,%eax
	
	if(free_ == NULL) {
 8049d55:	85 c0                	test   %eax,%eax
 8049d57:	74 18                	je     8049d71 <new_wp+0x21>
		printf("no more points!\n");
		assert(0);	
	}	

	free_ = (*free_).next;
 8049d59:	8b 50 04             	mov    0x4(%eax),%edx
 8049d5c:	89 15 44 5c 07 08    	mov    %edx,0x8075c44
	(*now).next = head;
 8049d62:	8b 15 48 5c 07 08    	mov    0x8075c48,%edx
	head = now;
 8049d68:	a3 48 5c 07 08       	mov    %eax,0x8075c48
		printf("no more points!\n");
		assert(0);	
	}	

	free_ = (*free_).next;
	(*now).next = head;
 8049d6d:	89 50 04             	mov    %edx,0x4(%eax)
	head = now;

	return now;
}
 8049d70:	c3                   	ret    

	head = NULL;
	free_ = wp_list;
}

WP* new_wp() {
 8049d71:	83 ec 18             	sub    $0x18,%esp
	WP *now = free_;
	
	if(free_ == NULL) {
		printf("no more points!\n");
 8049d74:	68 78 f2 05 08       	push   $0x805f278
 8049d79:	e8 e2 ec ff ff       	call   8048a60 <puts@plt>
		assert(0);	
 8049d7e:	68 14 f3 05 08       	push   $0x805f314
 8049d83:	6a 1b                	push   $0x1b
 8049d85:	68 e8 f2 05 08       	push   $0x805f2e8
 8049d8a:	68 20 ef 05 08       	push   $0x805ef20
 8049d8f:	e8 1c ee ff ff       	call   8048bb0 <__assert_fail@plt>
 8049d94:	8d b6 00 00 00 00    	lea    0x0(%esi),%esi
 8049d9a:	8d bf 00 00 00 00    	lea    0x0(%edi),%edi

08049da0 <free_wp>:
	head = now;

	return now;
}

void free_wp(WP *wp) {
 8049da0:	83 ec 0c             	sub    $0xc,%esp
 8049da3:	8b 4c 24 10          	mov    0x10(%esp),%ecx
	if(wp == NULL) {
 8049da7:	85 c9                	test   %ecx,%ecx
 8049da9:	74 77                	je     8049e22 <free_wp+0x82>
		printf("free a null ponit!\n");
		assert(0);
	}

	WP *now = head;
 8049dab:	8b 15 48 5c 07 08    	mov    0x8075c48,%edx

	if(wp == head) {
 8049db1:	39 d1                	cmp    %edx,%ecx
 8049db3:	75 11                	jne    8049dc6 <free_wp+0x26>
 8049db5:	eb 51                	jmp    8049e08 <free_wp+0x68>
 8049db7:	89 f6                	mov    %esi,%esi
 8049db9:	8d bc 27 00 00 00 00 	lea    0x0(%edi,%eiz,1),%edi
		free_ = wp;
		return;
	}

	while((*now).next != NULL) {
		if((*now).next == wp) {
 8049dc0:	39 c1                	cmp    %eax,%ecx
 8049dc2:	74 2c                	je     8049df0 <free_wp+0x50>
 8049dc4:	89 c2                	mov    %eax,%edx
		(*wp).next = free_;
		free_ = wp;
		return;
	}

	while((*now).next != NULL) {
 8049dc6:	8b 42 04             	mov    0x4(%edx),%eax
 8049dc9:	85 c0                	test   %eax,%eax
 8049dcb:	75 f3                	jne    8049dc0 <free_wp+0x20>
		}
		now = (*now).next;
	}

	if((*now).next == NULL) {
		printf("no this point\n");
 8049dcd:	83 ec 0c             	sub    $0xc,%esp
 8049dd0:	68 9b f2 05 08       	push   $0x805f29b
 8049dd5:	e8 86 ec ff ff       	call   8048a60 <puts@plt>
		assert(0);
 8049dda:	68 0c f3 05 08       	push   $0x805f30c
 8049ddf:	6a 40                	push   $0x40
 8049de1:	68 e8 f2 05 08       	push   $0x805f2e8
 8049de6:	68 20 ef 05 08       	push   $0x805ef20
 8049deb:	e8 c0 ed ff ff       	call   8048bb0 <__assert_fail@plt>
		return;
	}

	while((*now).next != NULL) {
		if((*now).next == wp) {
			(*now).next = (*wp).next;
 8049df0:	8b 41 04             	mov    0x4(%ecx),%eax
 8049df3:	89 42 04             	mov    %eax,0x4(%edx)
			(*wp).next = free_;
 8049df6:	a1 44 5c 07 08       	mov    0x8075c44,%eax
			free_ = wp;
 8049dfb:	89 0d 44 5c 07 08    	mov    %ecx,0x8075c44
	}

	while((*now).next != NULL) {
		if((*now).next == wp) {
			(*now).next = (*wp).next;
			(*wp).next = free_;
 8049e01:	89 41 04             	mov    %eax,0x4(%ecx)

	if((*now).next == NULL) {
		printf("no this point\n");
		assert(0);
	}
}
 8049e04:	83 c4 0c             	add    $0xc,%esp
 8049e07:	c3                   	ret    
	}

	WP *now = head;

	if(wp == head) {
		head = (*head).next;
 8049e08:	8b 41 04             	mov    0x4(%ecx),%eax
 8049e0b:	a3 48 5c 07 08       	mov    %eax,0x8075c48
		(*wp).next = free_;
 8049e10:	a1 44 5c 07 08       	mov    0x8075c44,%eax
		free_ = wp;
 8049e15:	89 0d 44 5c 07 08    	mov    %ecx,0x8075c44

	WP *now = head;

	if(wp == head) {
		head = (*head).next;
		(*wp).next = free_;
 8049e1b:	89 41 04             	mov    %eax,0x4(%ecx)

	if((*now).next == NULL) {
		printf("no this point\n");
		assert(0);
	}
}
 8049e1e:	83 c4 0c             	add    $0xc,%esp
 8049e21:	c3                   	ret    
	return now;
}

void free_wp(WP *wp) {
	if(wp == NULL) {
		printf("free a null ponit!\n");
 8049e22:	83 ec 0c             	sub    $0xc,%esp
 8049e25:	68 88 f2 05 08       	push   $0x805f288
 8049e2a:	e8 31 ec ff ff       	call   8048a60 <puts@plt>
		assert(0);
 8049e2f:	68 0c f3 05 08       	push   $0x805f30c
 8049e34:	6a 28                	push   $0x28
 8049e36:	68 e8 f2 05 08       	push   $0x805f2e8
 8049e3b:	68 20 ef 05 08       	push   $0x805ef20
 8049e40:	e8 6b ed ff ff       	call   8048bb0 <__assert_fail@plt>
 8049e45:	8d 74 26 00          	lea    0x0(%esi,%eiz,1),%esi
 8049e49:	8d bc 27 00 00 00 00 	lea    0x0(%edi,%eiz,1),%edi

08049e50 <print_wp_info>:
		printf("no this point\n");
		assert(0);
	}
}

void print_wp_info() {
 8049e50:	53                   	push   %ebx
 8049e51:	83 ec 14             	sub    $0x14,%esp
	WP* now = head;
 8049e54:	8b 1d 48 5c 07 08    	mov    0x8075c48,%ebx
	printf("Num\tValue\tExpr\n");
 8049e5a:	68 a9 f2 05 08       	push   $0x805f2a9
 8049e5f:	e8 fc eb ff ff       	call   8048a60 <puts@plt>
	while(now != NULL) {
 8049e64:	83 c4 10             	add    $0x10,%esp
 8049e67:	85 db                	test   %ebx,%ebx
 8049e69:	74 22                	je     8049e8d <print_wp_info+0x3d>
 8049e6b:	90                   	nop
 8049e6c:	8d 74 26 00          	lea    0x0(%esi,%eiz,1),%esi
		printf("%d\t%d\t%s\n", (*now).NO, (*now).v, (*now).expr);
 8049e70:	8d 43 0c             	lea    0xc(%ebx),%eax
 8049e73:	50                   	push   %eax
 8049e74:	ff 73 08             	pushl  0x8(%ebx)
 8049e77:	ff 33                	pushl  (%ebx)
 8049e79:	68 b8 f2 05 08       	push   $0x805f2b8
 8049e7e:	e8 cd ea ff ff       	call   8048950 <printf@plt>
		now = (*now).next;
 8049e83:	8b 5b 04             	mov    0x4(%ebx),%ebx
}

void print_wp_info() {
	WP* now = head;
	printf("Num\tValue\tExpr\n");
	while(now != NULL) {
 8049e86:	83 c4 10             	add    $0x10,%esp
 8049e89:	85 db                	test   %ebx,%ebx
 8049e8b:	75 e3                	jne    8049e70 <print_wp_info+0x20>
		printf("%d\t%d\t%s\n", (*now).NO, (*now).v, (*now).expr);
		now = (*now).next;
	}
}
 8049e8d:	83 c4 08             	add    $0x8,%esp
 8049e90:	5b                   	pop    %ebx
 8049e91:	c3                   	ret    
 8049e92:	8d b4 26 00 00 00 00 	lea    0x0(%esi,%eiz,1),%esi
 8049e99:	8d bc 27 00 00 00 00 	lea    0x0(%edi,%eiz,1),%edi

08049ea0 <add_wp>:

void add_wp(char *args) {
 8049ea0:	56                   	push   %esi
 8049ea1:	53                   	push   %ebx
 8049ea2:	83 ec 14             	sub    $0x14,%esp
	bool flag = true;
 8049ea5:	c6 44 24 0f 01       	movb   $0x1,0xf(%esp)
	WP *now = new_wp();
 8049eaa:	e8 a1 fe ff ff       	call   8049d50 <new_wp>
 8049eaf:	89 c3                	mov    %eax,%ebx
	(*now).NO = wp_num ++;
 8049eb1:	a1 40 5c 07 08       	mov    0x8075c40,%eax
	strcpy((*now).expr, args);
 8049eb6:	83 ec 08             	sub    $0x8,%esp
 8049eb9:	8d 73 0c             	lea    0xc(%ebx),%esi
}

void add_wp(char *args) {
	bool flag = true;
	WP *now = new_wp();
	(*now).NO = wp_num ++;
 8049ebc:	89 03                	mov    %eax,(%ebx)
 8049ebe:	8d 50 01             	lea    0x1(%eax),%edx
	strcpy((*now).expr, args);
 8049ec1:	ff 74 24 28          	pushl  0x28(%esp)
 8049ec5:	56                   	push   %esi
}

void add_wp(char *args) {
	bool flag = true;
	WP *now = new_wp();
	(*now).NO = wp_num ++;
 8049ec6:	89 15 40 5c 07 08    	mov    %edx,0x8075c40
	strcpy((*now).expr, args);
 8049ecc:	e8 6f eb ff ff       	call   8048a40 <strcpy@plt>
	(*now).v = expr((*now).expr, &flag);
 8049ed1:	58                   	pop    %eax
 8049ed2:	5a                   	pop    %edx
 8049ed3:	8d 44 24 17          	lea    0x17(%esp),%eax
 8049ed7:	50                   	push   %eax
 8049ed8:	56                   	push   %esi
 8049ed9:	e8 02 0c 00 00       	call   804aae0 <expr>
 8049ede:	89 43 08             	mov    %eax,0x8(%ebx)
}
 8049ee1:	83 c4 24             	add    $0x24,%esp
 8049ee4:	5b                   	pop    %ebx
 8049ee5:	5e                   	pop    %esi
 8049ee6:	c3                   	ret    
 8049ee7:	89 f6                	mov    %esi,%esi
 8049ee9:	8d bc 27 00 00 00 00 	lea    0x0(%edi,%eiz,1),%edi

08049ef0 <delete_wp>:

void delete_wp(int no) {
	WP *now = head;
 8049ef0:	a1 48 5c 07 08       	mov    0x8075c48,%eax
	(*now).NO = wp_num ++;
	strcpy((*now).expr, args);
	(*now).v = expr((*now).expr, &flag);
}

void delete_wp(int no) {
 8049ef5:	8b 54 24 04          	mov    0x4(%esp),%edx
	WP *now = head;
	while(now != NULL) {
 8049ef9:	85 c0                	test   %eax,%eax
 8049efb:	75 0a                	jne    8049f07 <delete_wp+0x17>
 8049efd:	eb 19                	jmp    8049f18 <delete_wp+0x28>
 8049eff:	90                   	nop
		if((*now).NO == no) {
			free_wp(now);
			return;
		}
		now = (*now).next;
 8049f00:	8b 40 04             	mov    0x4(%eax),%eax
	(*now).v = expr((*now).expr, &flag);
}

void delete_wp(int no) {
	WP *now = head;
	while(now != NULL) {
 8049f03:	85 c0                	test   %eax,%eax
 8049f05:	74 11                	je     8049f18 <delete_wp+0x28>
		if((*now).NO == no) {
 8049f07:	39 10                	cmp    %edx,(%eax)
 8049f09:	75 f5                	jne    8049f00 <delete_wp+0x10>
			free_wp(now);
 8049f0b:	89 44 24 04          	mov    %eax,0x4(%esp)
 8049f0f:	e9 8c fe ff ff       	jmp    8049da0 <free_wp>
 8049f14:	8d 74 26 00          	lea    0x0(%esi,%eiz,1),%esi
			return;
		}
		now = (*now).next;
	}
	printf("no this number's point\n");
 8049f18:	c7 44 24 04 c2 f2 05 	movl   $0x805f2c2,0x4(%esp)
 8049f1f:	08 
 8049f20:	e9 3b eb ff ff       	jmp    8048a60 <puts@plt>
 8049f25:	8d 74 26 00          	lea    0x0(%esi,%eiz,1),%esi
 8049f29:	8d bc 27 00 00 00 00 	lea    0x0(%edi,%eiz,1),%edi

08049f30 <check_wp>:
}

void check_wp(bool *fl) {
 8049f30:	57                   	push   %edi
 8049f31:	56                   	push   %esi
 8049f32:	53                   	push   %ebx
 8049f33:	83 ec 10             	sub    $0x10,%esp
	WP *now = head;
 8049f36:	8b 1d 48 5c 07 08    	mov    0x8075c48,%ebx
 8049f3c:	8d 7c 24 0f          	lea    0xf(%esp),%edi
	while(now != NULL) {
 8049f40:	85 db                	test   %ebx,%ebx
 8049f42:	75 13                	jne    8049f57 <check_wp+0x27>
 8049f44:	eb 46                	jmp    8049f8c <check_wp+0x5c>
 8049f46:	8d 76 00             	lea    0x0(%esi),%esi
 8049f49:	8d bc 27 00 00 00 00 	lea    0x0(%edi,%eiz,1),%edi
			*fl = false;
			(*now).v = t;
			printf("%d: %s = %d\n", (*now).NO, (*now).expr, t);
			break;
		}
		now = (*now).next;
 8049f50:	8b 5b 04             	mov    0x4(%ebx),%ebx
	printf("no this number's point\n");
}

void check_wp(bool *fl) {
	WP *now = head;
	while(now != NULL) {
 8049f53:	85 db                	test   %ebx,%ebx
 8049f55:	74 35                	je     8049f8c <check_wp+0x5c>
		bool flag =true;
		uint32_t t = expr((*now).expr, &flag);
 8049f57:	8d 73 0c             	lea    0xc(%ebx),%esi
}

void check_wp(bool *fl) {
	WP *now = head;
	while(now != NULL) {
		bool flag =true;
 8049f5a:	c6 44 24 0f 01       	movb   $0x1,0xf(%esp)
		uint32_t t = expr((*now).expr, &flag);
 8049f5f:	83 ec 08             	sub    $0x8,%esp
 8049f62:	57                   	push   %edi
 8049f63:	56                   	push   %esi
 8049f64:	e8 77 0b 00 00       	call   804aae0 <expr>
		if(t != (*now).v) {
 8049f69:	83 c4 10             	add    $0x10,%esp
 8049f6c:	39 43 08             	cmp    %eax,0x8(%ebx)
 8049f6f:	74 df                	je     8049f50 <check_wp+0x20>
			*fl = false;
 8049f71:	8b 54 24 20          	mov    0x20(%esp),%edx
 8049f75:	c6 02 00             	movb   $0x0,(%edx)
			(*now).v = t;
 8049f78:	89 43 08             	mov    %eax,0x8(%ebx)
			printf("%d: %s = %d\n", (*now).NO, (*now).expr, t);
 8049f7b:	50                   	push   %eax
 8049f7c:	56                   	push   %esi
 8049f7d:	ff 33                	pushl  (%ebx)
 8049f7f:	68 d9 f2 05 08       	push   $0x805f2d9
 8049f84:	e8 c7 e9 ff ff       	call   8048950 <printf@plt>
			break;
 8049f89:	83 c4 10             	add    $0x10,%esp
		}
		now = (*now).next;
	}
}
 8049f8c:	83 c4 10             	add    $0x10,%esp
 8049f8f:	5b                   	pop    %ebx
 8049f90:	5e                   	pop    %esi
 8049f91:	5f                   	pop    %edi
 8049f92:	c3                   	ret    
 8049f93:	8d b6 00 00 00 00    	lea    0x0(%esi),%esi
 8049f99:	8d bc 27 00 00 00 00 	lea    0x0(%edi,%eiz,1),%edi

08049fa0 <delete_all_wp>:

void delete_all_wp() {
	while(head != NULL) {
 8049fa0:	a1 48 5c 07 08       	mov    0x8075c48,%eax
 8049fa5:	85 c0                	test   %eax,%eax
 8049fa7:	74 1f                	je     8049fc8 <delete_all_wp+0x28>
		}
		now = (*now).next;
	}
}

void delete_all_wp() {
 8049fa9:	83 ec 0c             	sub    $0xc,%esp
 8049fac:	8d 74 26 00          	lea    0x0(%esi,%eiz,1),%esi
	while(head != NULL) {
		free_wp(head);
 8049fb0:	83 ec 0c             	sub    $0xc,%esp
 8049fb3:	50                   	push   %eax
 8049fb4:	e8 e7 fd ff ff       	call   8049da0 <free_wp>
		now = (*now).next;
	}
}

void delete_all_wp() {
	while(head != NULL) {
 8049fb9:	a1 48 5c 07 08       	mov    0x8075c48,%eax
 8049fbe:	83 c4 10             	add    $0x10,%esp
 8049fc1:	85 c0                	test   %eax,%eax
 8049fc3:	75 eb                	jne    8049fb0 <delete_all_wp+0x10>
		free_wp(head);
	}
}
 8049fc5:	83 c4 0c             	add    $0xc,%esp
 8049fc8:	f3 c3                	repz ret 
 8049fca:	66 90                	xchg   %ax,%ax
 8049fcc:	66 90                	xchg   %ax,%ax
 8049fce:	66 90                	xchg   %ax,%ax

08049fd0 <init_regex>:
static regex_t re[NR_REGEX];

/* Rules are used for many times.
 * Therefore we compile them only once before any usage.
 */
void init_regex() {
 8049fd0:	57                   	push   %edi
 8049fd1:	56                   	push   %esi
 8049fd2:	be 00 7e 07 08       	mov    $0x8077e00,%esi
 8049fd7:	53                   	push   %ebx
 8049fd8:	31 db                	xor    %ebx,%ebx
 8049fda:	83 c4 80             	add    $0xffffff80,%esp
 8049fdd:	eb 10                	jmp    8049fef <init_regex+0x1f>
 8049fdf:	90                   	nop
	int i;
	char error_msg[128];
	int ret;

	for(i = 0; i < NR_REGEX; i ++) {
 8049fe0:	83 c3 01             	add    $0x1,%ebx
 8049fe3:	83 c6 20             	add    $0x20,%esi
 8049fe6:	83 fb 1c             	cmp    $0x1c,%ebx
 8049fe9:	0f 84 91 00 00 00    	je     804a080 <init_regex+0xb0>
		ret = regcomp(&re[i], rules[i].regex, REG_EXTENDED);
 8049fef:	8b 3c dd c0 f5 05 08 	mov    0x805f5c0(,%ebx,8),%edi
 8049ff6:	83 ec 04             	sub    $0x4,%esp
 8049ff9:	6a 01                	push   $0x1
 8049ffb:	57                   	push   %edi
 8049ffc:	56                   	push   %esi
 8049ffd:	e8 7e eb ff ff       	call   8048b80 <regcomp@plt>
		if(ret != 0) {
 804a002:	83 c4 10             	add    $0x10,%esp
 804a005:	85 c0                	test   %eax,%eax
 804a007:	74 d7                	je     8049fe0 <init_regex+0x10>
			regerror(ret, &re[i], error_msg, 128);
 804a009:	68 80 00 00 00       	push   $0x80
 804a00e:	8d 5c 24 04          	lea    0x4(%esp),%ebx
 804a012:	53                   	push   %ebx
 804a013:	56                   	push   %esi
 804a014:	50                   	push   %eax
 804a015:	e8 06 eb ff ff       	call   8048b20 <regerror@plt>
			Assert(ret == 0, "regex compilation failed: %s\n%s", error_msg, rules[i].regex);
 804a01a:	58                   	pop    %eax
 804a01b:	ff 35 20 5c 07 08    	pushl  0x8075c20
 804a021:	e8 3a e9 ff ff       	call   8048960 <fflush@plt>
 804a026:	ff 35 00 5c 07 08    	pushl  0x8075c00
 804a02c:	6a 07                	push   $0x7
 804a02e:	6a 01                	push   $0x1
 804a030:	68 92 ed 05 08       	push   $0x805ed92
 804a035:	e8 d6 e9 ff ff       	call   8048a10 <fwrite@plt>
 804a03a:	83 c4 20             	add    $0x20,%esp
 804a03d:	57                   	push   %edi
 804a03e:	53                   	push   %ebx
 804a03f:	68 4c f4 05 08       	push   $0x805f44c
 804a044:	ff 35 00 5c 07 08    	pushl  0x8075c00
 804a04a:	e8 71 ea ff ff       	call   8048ac0 <fprintf@plt>
 804a04f:	ff 35 00 5c 07 08    	pushl  0x8075c00
 804a055:	6a 05                	push   $0x5
 804a057:	6a 01                	push   $0x1
 804a059:	68 b1 ed 05 08       	push   $0x805edb1
 804a05e:	e8 ad e9 ff ff       	call   8048a10 <fwrite@plt>
 804a063:	83 c4 20             	add    $0x20,%esp
 804a066:	68 ad f5 05 08       	push   $0x805f5ad
 804a06b:	6a 4a                	push   $0x4a
 804a06d:	68 4a f3 05 08       	push   $0x805f34a
 804a072:	68 68 f3 05 08       	push   $0x805f368
 804a077:	e8 34 eb ff ff       	call   8048bb0 <__assert_fail@plt>
 804a07c:	8d 74 26 00          	lea    0x0(%esi,%eiz,1),%esi
		}
	}
}
 804a080:	83 ec 80             	sub    $0xffffff80,%esp
 804a083:	5b                   	pop    %ebx
 804a084:	5e                   	pop    %esi
 804a085:	5f                   	pop    %edi
 804a086:	c3                   	ret    
 804a087:	89 f6                	mov    %esi,%esi
 804a089:	8d bc 27 00 00 00 00 	lea    0x0(%edi,%eiz,1),%edi

0804a090 <not_a_num>:
} Token;

Token tokens[32];
int nr_token;

bool not_a_num(uint32_t p) {
 804a090:	8b 44 24 04          	mov    0x4(%esp),%eax
		if(tokens[p].type != NUM && tokens[p].type != ONUM && tokens[p].type != HNUM && tokens[p].type != '$' && tokens[p].type != VAR) {
 804a094:	8d 04 c0             	lea    (%eax,%eax,8),%eax
 804a097:	8b 14 85 c0 83 0c 08 	mov    0x80c83c0(,%eax,4),%edx
 804a09e:	81 fa 0d 01 00 00    	cmp    $0x10d,%edx
 804a0a4:	0f 95 c1             	setne  %cl
 804a0a7:	83 fa 24             	cmp    $0x24,%edx
 804a0aa:	0f 95 c0             	setne  %al
 804a0ad:	81 ea 02 01 00 00    	sub    $0x102,%edx
 804a0b3:	21 c8                	and    %ecx,%eax
 804a0b5:	83 fa 02             	cmp    $0x2,%edx
 804a0b8:	0f 97 c2             	seta   %dl
 804a0bb:	21 d0                	and    %edx,%eax
			return true;
		}
		else return false;
}
 804a0bd:	c3                   	ret    
 804a0be:	66 90                	xchg   %ax,%ax

0804a0c0 <check_parentheses>:
	}

	return true; 
}

bool check_parentheses(uint32_t p, uint32_t q, bool *success) {
 804a0c0:	56                   	push   %esi
 804a0c1:	53                   	push   %ebx
 804a0c2:	83 ec 04             	sub    $0x4,%esp
 804a0c5:	8b 54 24 10          	mov    0x10(%esp),%edx
 804a0c9:	8b 4c 24 14          	mov    0x14(%esp),%ecx
	int i = 0, j = 0;
	bool flag = true;
	if(p >= q) {
 804a0cd:	39 ca                	cmp    %ecx,%edx
 804a0cf:	0f 83 aa 00 00 00    	jae    804a17f <check_parentheses+0xbf>
		printf("there are something goes wrong\n");
		assert(0);
	}
	if(tokens[p].type != '(' || tokens[q].type != ')')return false;
 804a0d5:	8d 1c d2             	lea    (%edx,%edx,8),%ebx
 804a0d8:	31 c0                	xor    %eax,%eax
 804a0da:	83 3c 9d c0 83 0c 08 	cmpl   $0x28,0x80c83c0(,%ebx,4)
 804a0e1:	28 
 804a0e2:	74 0c                	je     804a0f0 <check_parentheses+0x30>
		printf("brackets not match!\n");
		*success = false;
		return true;
	}
	return flag;
}
 804a0e4:	83 c4 04             	add    $0x4,%esp
 804a0e7:	5b                   	pop    %ebx
 804a0e8:	5e                   	pop    %esi
 804a0e9:	c3                   	ret    
 804a0ea:	8d b6 00 00 00 00    	lea    0x0(%esi),%esi
	bool flag = true;
	if(p >= q) {
		printf("there are something goes wrong\n");
		assert(0);
	}
	if(tokens[p].type != '(' || tokens[q].type != ')')return false;
 804a0f0:	8d 1c c9             	lea    (%ecx,%ecx,8),%ebx
 804a0f3:	c1 e3 02             	shl    $0x2,%ebx
 804a0f6:	83 bb c0 83 0c 08 29 	cmpl   $0x29,0x80c83c0(%ebx)
 804a0fd:	75 e5                	jne    804a0e4 <check_parentheses+0x24>
	for(i = p + 1; i < q; i++) {
 804a0ff:	83 c2 01             	add    $0x1,%edx
 804a102:	39 d1                	cmp    %edx,%ecx
 804a104:	76 6f                	jbe    804a175 <check_parentheses+0xb5>
 804a106:	8d 04 d2             	lea    (%edx,%edx,8),%eax
 804a109:	81 c3 c0 83 0c 08    	add    $0x80c83c0,%ebx
 804a10f:	31 f6                	xor    %esi,%esi
 804a111:	8d 14 85 c0 83 0c 08 	lea    0x80c83c0(,%eax,4),%edx
 804a118:	b8 01 00 00 00       	mov    $0x1,%eax
 804a11d:	eb 0d                	jmp    804a12c <check_parentheses+0x6c>
 804a11f:	90                   	nop
		if(tokens[i].type == '(') {
			j++;
		}
		else if(tokens[i].type == ')') {
 804a120:	83 f9 29             	cmp    $0x29,%ecx
 804a123:	74 3b                	je     804a160 <check_parentheses+0xa0>
 804a125:	83 c2 24             	add    $0x24,%edx
	if(p >= q) {
		printf("there are something goes wrong\n");
		assert(0);
	}
	if(tokens[p].type != '(' || tokens[q].type != ')')return false;
	for(i = p + 1; i < q; i++) {
 804a128:	39 da                	cmp    %ebx,%edx
 804a12a:	74 11                	je     804a13d <check_parentheses+0x7d>
		if(tokens[i].type == '(') {
 804a12c:	8b 0a                	mov    (%edx),%ecx
 804a12e:	83 f9 28             	cmp    $0x28,%ecx
 804a131:	75 ed                	jne    804a120 <check_parentheses+0x60>
 804a133:	83 c2 24             	add    $0x24,%edx
			j++;
 804a136:	83 c6 01             	add    $0x1,%esi
	if(p >= q) {
		printf("there are something goes wrong\n");
		assert(0);
	}
	if(tokens[p].type != '(' || tokens[q].type != ')')return false;
	for(i = p + 1; i < q; i++) {
 804a139:	39 da                	cmp    %ebx,%edx
 804a13b:	75 ef                	jne    804a12c <check_parentheses+0x6c>
			j--;
			if(j < 0) flag = false;
			if(j < -1) *success = false;
		}
	}
	if(j != 0) {
 804a13d:	85 f6                	test   %esi,%esi
 804a13f:	74 a3                	je     804a0e4 <check_parentheses+0x24>
		printf("brackets not match!\n");
 804a141:	83 ec 0c             	sub    $0xc,%esp
 804a144:	68 71 f3 05 08       	push   $0x805f371
 804a149:	e8 12 e9 ff ff       	call   8048a60 <puts@plt>
		*success = false;
 804a14e:	8b 44 24 28          	mov    0x28(%esp),%eax
		return true;
 804a152:	83 c4 10             	add    $0x10,%esp
			if(j < -1) *success = false;
		}
	}
	if(j != 0) {
		printf("brackets not match!\n");
		*success = false;
 804a155:	c6 00 00             	movb   $0x0,(%eax)
		return true;
 804a158:	b8 01 00 00 00       	mov    $0x1,%eax
 804a15d:	eb 85                	jmp    804a0e4 <check_parentheses+0x24>
 804a15f:	90                   	nop
		if(tokens[i].type == '(') {
			j++;
		}
		else if(tokens[i].type == ')') {
			j--;
			if(j < 0) flag = false;
 804a160:	83 ee 01             	sub    $0x1,%esi
 804a163:	79 c0                	jns    804a125 <check_parentheses+0x65>
			if(j < -1) *success = false;
 804a165:	83 fe ff             	cmp    $0xffffffff,%esi
 804a168:	74 3b                	je     804a1a5 <check_parentheses+0xe5>
 804a16a:	8b 44 24 18          	mov    0x18(%esp),%eax
 804a16e:	c6 00 00             	movb   $0x0,(%eax)
		if(tokens[i].type == '(') {
			j++;
		}
		else if(tokens[i].type == ')') {
			j--;
			if(j < 0) flag = false;
 804a171:	31 c0                	xor    %eax,%eax
 804a173:	eb b0                	jmp    804a125 <check_parentheses+0x65>
	return true; 
}

bool check_parentheses(uint32_t p, uint32_t q, bool *success) {
	int i = 0, j = 0;
	bool flag = true;
 804a175:	b8 01 00 00 00       	mov    $0x1,%eax
	if(j != 0) {
		printf("brackets not match!\n");
		*success = false;
		return true;
	}
	return flag;
 804a17a:	e9 65 ff ff ff       	jmp    804a0e4 <check_parentheses+0x24>

bool check_parentheses(uint32_t p, uint32_t q, bool *success) {
	int i = 0, j = 0;
	bool flag = true;
	if(p >= q) {
		printf("there are something goes wrong\n");
 804a17f:	83 ec 0c             	sub    $0xc,%esp
 804a182:	68 6c f4 05 08       	push   $0x805f46c
 804a187:	e8 d4 e8 ff ff       	call   8048a60 <puts@plt>
		assert(0);
 804a18c:	68 9b f5 05 08       	push   $0x805f59b
 804a191:	68 90 00 00 00       	push   $0x90
 804a196:	68 4a f3 05 08       	push   $0x805f34a
 804a19b:	68 20 ef 05 08       	push   $0x805ef20
 804a1a0:	e8 0b ea ff ff       	call   8048bb0 <__assert_fail@plt>
		if(tokens[i].type == '(') {
			j++;
		}
		else if(tokens[i].type == ')') {
			j--;
			if(j < 0) flag = false;
 804a1a5:	31 c0                	xor    %eax,%eax
 804a1a7:	e9 79 ff ff ff       	jmp    804a125 <check_parentheses+0x65>
 804a1ac:	8d 74 26 00          	lea    0x0(%esi,%eiz,1),%esi

0804a1b0 <relax>:
		return true;
	}
	return flag;
}

uint32_t relax(uint32_t i, uint32_t v, uint32_t *la, uint32_t *pr) {
 804a1b0:	53                   	push   %ebx
 804a1b1:	8b 44 24 14          	mov    0x14(%esp),%eax
 804a1b5:	8b 54 24 0c          	mov    0xc(%esp),%edx
	if(v >= *pr) {
 804a1b9:	39 10                	cmp    %edx,(%eax)
 804a1bb:	77 0c                	ja     804a1c9 <relax+0x19>
		*la = i;
 804a1bd:	8b 4c 24 10          	mov    0x10(%esp),%ecx
 804a1c1:	8b 5c 24 08          	mov    0x8(%esp),%ebx
 804a1c5:	89 19                	mov    %ebx,(%ecx)
		*pr = v;
 804a1c7:	89 10                	mov    %edx,(%eax)
	}
	return 0;
}
 804a1c9:	31 c0                	xor    %eax,%eax
 804a1cb:	5b                   	pop    %ebx
 804a1cc:	c3                   	ret    
 804a1cd:	8d 76 00             	lea    0x0(%esi),%esi

0804a1d0 <relax1>:

uint32_t relax1(uint32_t i, uint32_t v, uint32_t *la, uint32_t *pr) {
 804a1d0:	53                   	push   %ebx
 804a1d1:	8b 44 24 14          	mov    0x14(%esp),%eax
 804a1d5:	8b 54 24 0c          	mov    0xc(%esp),%edx
	if(v > *pr) {
 804a1d9:	39 10                	cmp    %edx,(%eax)
 804a1db:	73 0c                	jae    804a1e9 <relax1+0x19>
		*la = i;
 804a1dd:	8b 4c 24 10          	mov    0x10(%esp),%ecx
 804a1e1:	8b 5c 24 08          	mov    0x8(%esp),%ebx
 804a1e5:	89 19                	mov    %ebx,(%ecx)
		*pr = v;
 804a1e7:	89 10                	mov    %edx,(%eax)
	}
	return 0;
}
 804a1e9:	31 c0                	xor    %eax,%eax
 804a1eb:	5b                   	pop    %ebx
 804a1ec:	c3                   	ret    
 804a1ed:	8d 76 00             	lea    0x0(%esi),%esi

0804a1f0 <find_the_last_operator>:

uint32_t find_the_last_operator(uint32_t p,uint32_t q) {
 804a1f0:	55                   	push   %ebp
 804a1f1:	57                   	push   %edi
 804a1f2:	56                   	push   %esi
 804a1f3:	53                   	push   %ebx
 804a1f4:	83 ec 08             	sub    $0x8,%esp
 804a1f7:	8b 74 24 20          	mov    0x20(%esp),%esi
	uint32_t i, j = 0, *la = 0, *pr = 0;
	uint32_t las = 0, pri = 0;
	la = &las;
	pr = &pri;
	for(i = p; i <= q; i ++) {
 804a1fb:	39 74 24 1c          	cmp    %esi,0x1c(%esp)
 804a1ff:	0f 87 6e 03 00 00    	ja     804a573 <find_the_last_operator+0x383>
 804a205:	8b 44 24 1c          	mov    0x1c(%esp),%eax
 804a209:	31 ff                	xor    %edi,%edi
 804a20b:	31 ed                	xor    %ebp,%ebp
 804a20d:	31 c9                	xor    %ecx,%ecx
 804a20f:	8d 04 c0             	lea    (%eax,%eax,8),%eax
 804a212:	8d 14 85 9c 83 0c 08 	lea    0x80c839c(,%eax,4),%edx
 804a219:	8b 44 24 1c          	mov    0x1c(%esp),%eax
 804a21d:	8d 76 00             	lea    0x0(%esi),%esi
		if(tokens[i].type == '(') j++;
 804a220:	8b 5a 24             	mov    0x24(%edx),%ebx
 804a223:	83 fb 28             	cmp    $0x28,%ebx
 804a226:	74 68                	je     804a290 <find_the_last_operator+0xa0>
		else if(tokens[i].type == ')') j--;
 804a228:	83 fb 29             	cmp    $0x29,%ebx
 804a22b:	74 73                	je     804a2a0 <find_the_last_operator+0xb0>
		else if(j == 0) {
 804a22d:	85 c9                	test   %ecx,%ecx
 804a22f:	75 47                	jne    804a278 <find_the_last_operator+0x88>
			switch(tokens[i].type) {
 804a231:	83 fb 7c             	cmp    $0x7c,%ebx
 804a234:	0f 84 16 03 00 00    	je     804a550 <find_the_last_operator+0x360>
 804a23a:	7f 7c                	jg     804a2b8 <find_the_last_operator+0xc8>
 804a23c:	83 fb 2d             	cmp    $0x2d,%ebx
 804a23f:	0f 84 bb 02 00 00    	je     804a500 <find_the_last_operator+0x310>
 804a245:	0f 8f 2d 01 00 00    	jg     804a378 <find_the_last_operator+0x188>
 804a24b:	83 fb 26             	cmp    $0x26,%ebx
 804a24e:	0f 84 84 02 00 00    	je     804a4d8 <find_the_last_operator+0x2e8>
 804a254:	0f 8e de 01 00 00    	jle    804a438 <find_the_last_operator+0x248>
 804a25a:	83 fb 2a             	cmp    $0x2a,%ebx
 804a25d:	0f 84 5d 01 00 00    	je     804a3c0 <find_the_last_operator+0x1d0>
 804a263:	83 fb 2b             	cmp    $0x2b,%ebx
 804a266:	75 10                	jne    804a278 <find_the_last_operator+0x88>
	}
	return flag;
}

uint32_t relax(uint32_t i, uint32_t v, uint32_t *la, uint32_t *pr) {
	if(v >= *pr) {
 804a268:	83 ff 04             	cmp    $0x4,%edi
 804a26b:	77 0b                	ja     804a278 <find_the_last_operator+0x88>
 804a26d:	89 c5                	mov    %eax,%ebp
		*la = i;
		*pr = v;
 804a26f:	bf 04 00 00 00       	mov    $0x4,%edi
 804a274:	8d 74 26 00          	lea    0x0(%esi,%eiz,1),%esi
uint32_t find_the_last_operator(uint32_t p,uint32_t q) {
	uint32_t i, j = 0, *la = 0, *pr = 0;
	uint32_t las = 0, pri = 0;
	la = &las;
	pr = &pri;
	for(i = p; i <= q; i ++) {
 804a278:	83 c0 01             	add    $0x1,%eax
 804a27b:	83 c2 24             	add    $0x24,%edx
 804a27e:	39 c6                	cmp    %eax,%esi
 804a280:	73 9e                	jae    804a220 <find_the_last_operator+0x30>
					break;
			}
		}
	}
	return *la;
}
 804a282:	83 c4 08             	add    $0x8,%esp
 804a285:	89 e8                	mov    %ebp,%eax
 804a287:	5b                   	pop    %ebx
 804a288:	5e                   	pop    %esi
 804a289:	5f                   	pop    %edi
 804a28a:	5d                   	pop    %ebp
 804a28b:	c3                   	ret    
 804a28c:	8d 74 26 00          	lea    0x0(%esi,%eiz,1),%esi
uint32_t find_the_last_operator(uint32_t p,uint32_t q) {
	uint32_t i, j = 0, *la = 0, *pr = 0;
	uint32_t las = 0, pri = 0;
	la = &las;
	pr = &pri;
	for(i = p; i <= q; i ++) {
 804a290:	83 c0 01             	add    $0x1,%eax
		if(tokens[i].type == '(') j++;
 804a293:	83 c1 01             	add    $0x1,%ecx
 804a296:	83 c2 24             	add    $0x24,%edx
uint32_t find_the_last_operator(uint32_t p,uint32_t q) {
	uint32_t i, j = 0, *la = 0, *pr = 0;
	uint32_t las = 0, pri = 0;
	la = &las;
	pr = &pri;
	for(i = p; i <= q; i ++) {
 804a299:	39 c6                	cmp    %eax,%esi
 804a29b:	73 83                	jae    804a220 <find_the_last_operator+0x30>
 804a29d:	eb e3                	jmp    804a282 <find_the_last_operator+0x92>
 804a29f:	90                   	nop
 804a2a0:	83 c0 01             	add    $0x1,%eax
		if(tokens[i].type == '(') j++;
		else if(tokens[i].type == ')') j--;
 804a2a3:	83 e9 01             	sub    $0x1,%ecx
 804a2a6:	83 c2 24             	add    $0x24,%edx
uint32_t find_the_last_operator(uint32_t p,uint32_t q) {
	uint32_t i, j = 0, *la = 0, *pr = 0;
	uint32_t las = 0, pri = 0;
	la = &las;
	pr = &pri;
	for(i = p; i <= q; i ++) {
 804a2a9:	39 c6                	cmp    %eax,%esi
 804a2ab:	0f 83 6f ff ff ff    	jae    804a220 <find_the_last_operator+0x30>
 804a2b1:	eb cf                	jmp    804a282 <find_the_last_operator+0x92>
 804a2b3:	90                   	nop
 804a2b4:	8d 74 26 00          	lea    0x0(%esi,%eiz,1),%esi
		if(tokens[i].type == '(') j++;
		else if(tokens[i].type == ')') j--;
		else if(j == 0) {
			switch(tokens[i].type) {
 804a2b8:	81 fb 07 01 00 00    	cmp    $0x107,%ebx
 804a2be:	74 20                	je     804a2e0 <find_the_last_operator+0xf0>
 804a2c0:	7f 66                	jg     804a328 <find_the_last_operator+0x138>
 804a2c2:	81 fb 01 01 00 00    	cmp    $0x101,%ebx
 804a2c8:	74 36                	je     804a300 <find_the_last_operator+0x110>
 804a2ca:	0f 8e a8 01 00 00    	jle    804a478 <find_the_last_operator+0x288>
 804a2d0:	81 fb 05 01 00 00    	cmp    $0x105,%ebx
 804a2d6:	74 28                	je     804a300 <find_the_last_operator+0x110>
 804a2d8:	81 fb 06 01 00 00    	cmp    $0x106,%ebx
 804a2de:	75 98                	jne    804a278 <find_the_last_operator+0x88>
	}
	return flag;
}

uint32_t relax(uint32_t i, uint32_t v, uint32_t *la, uint32_t *pr) {
	if(v >= *pr) {
 804a2e0:	83 ff 06             	cmp    $0x6,%edi
 804a2e3:	77 93                	ja     804a278 <find_the_last_operator+0x88>
 804a2e5:	89 c5                	mov    %eax,%ebp
uint32_t find_the_last_operator(uint32_t p,uint32_t q) {
	uint32_t i, j = 0, *la = 0, *pr = 0;
	uint32_t las = 0, pri = 0;
	la = &las;
	pr = &pri;
	for(i = p; i <= q; i ++) {
 804a2e7:	83 c0 01             	add    $0x1,%eax
 804a2ea:	83 c2 24             	add    $0x24,%edx
 804a2ed:	39 c6                	cmp    %eax,%esi
}

uint32_t relax(uint32_t i, uint32_t v, uint32_t *la, uint32_t *pr) {
	if(v >= *pr) {
		*la = i;
		*pr = v;
 804a2ef:	bf 06 00 00 00       	mov    $0x6,%edi
uint32_t find_the_last_operator(uint32_t p,uint32_t q) {
	uint32_t i, j = 0, *la = 0, *pr = 0;
	uint32_t las = 0, pri = 0;
	la = &las;
	pr = &pri;
	for(i = p; i <= q; i ++) {
 804a2f4:	0f 83 26 ff ff ff    	jae    804a220 <find_the_last_operator+0x30>
 804a2fa:	eb 86                	jmp    804a282 <find_the_last_operator+0x92>
 804a2fc:	8d 74 26 00          	lea    0x0(%esi,%eiz,1),%esi
	}
	return flag;
}

uint32_t relax(uint32_t i, uint32_t v, uint32_t *la, uint32_t *pr) {
	if(v >= *pr) {
 804a300:	83 ff 07             	cmp    $0x7,%edi
 804a303:	0f 87 6f ff ff ff    	ja     804a278 <find_the_last_operator+0x88>
 804a309:	89 c5                	mov    %eax,%ebp
uint32_t find_the_last_operator(uint32_t p,uint32_t q) {
	uint32_t i, j = 0, *la = 0, *pr = 0;
	uint32_t las = 0, pri = 0;
	la = &las;
	pr = &pri;
	for(i = p; i <= q; i ++) {
 804a30b:	83 c0 01             	add    $0x1,%eax
 804a30e:	83 c2 24             	add    $0x24,%edx
 804a311:	39 c6                	cmp    %eax,%esi
}

uint32_t relax(uint32_t i, uint32_t v, uint32_t *la, uint32_t *pr) {
	if(v >= *pr) {
		*la = i;
		*pr = v;
 804a313:	bf 07 00 00 00       	mov    $0x7,%edi
uint32_t find_the_last_operator(uint32_t p,uint32_t q) {
	uint32_t i, j = 0, *la = 0, *pr = 0;
	uint32_t las = 0, pri = 0;
	la = &las;
	pr = &pri;
	for(i = p; i <= q; i ++) {
 804a318:	0f 83 02 ff ff ff    	jae    804a220 <find_the_last_operator+0x30>
 804a31e:	e9 5f ff ff ff       	jmp    804a282 <find_the_last_operator+0x92>
 804a323:	90                   	nop
 804a324:	8d 74 26 00          	lea    0x0(%esi,%eiz,1),%esi
		if(tokens[i].type == '(') j++;
		else if(tokens[i].type == ')') j--;
		else if(j == 0) {
			switch(tokens[i].type) {
 804a328:	81 fb 09 01 00 00    	cmp    $0x109,%ebx
 804a32e:	0f 84 7c 01 00 00    	je     804a4b0 <find_the_last_operator+0x2c0>
 804a334:	0f 8c 4e 01 00 00    	jl     804a488 <find_the_last_operator+0x298>
 804a33a:	81 fb 0b 01 00 00    	cmp    $0x10b,%ebx
 804a340:	74 0c                	je     804a34e <find_the_last_operator+0x15e>
 804a342:	81 fb 0c 01 00 00    	cmp    $0x10c,%ebx
 804a348:	0f 85 2a ff ff ff    	jne    804a278 <find_the_last_operator+0x88>
	}
	return flag;
}

uint32_t relax(uint32_t i, uint32_t v, uint32_t *la, uint32_t *pr) {
	if(v >= *pr) {
 804a34e:	83 ff 05             	cmp    $0x5,%edi
 804a351:	0f 87 21 ff ff ff    	ja     804a278 <find_the_last_operator+0x88>
 804a357:	89 c5                	mov    %eax,%ebp
uint32_t find_the_last_operator(uint32_t p,uint32_t q) {
	uint32_t i, j = 0, *la = 0, *pr = 0;
	uint32_t las = 0, pri = 0;
	la = &las;
	pr = &pri;
	for(i = p; i <= q; i ++) {
 804a359:	83 c0 01             	add    $0x1,%eax
 804a35c:	83 c2 24             	add    $0x24,%edx
 804a35f:	39 c6                	cmp    %eax,%esi
}

uint32_t relax(uint32_t i, uint32_t v, uint32_t *la, uint32_t *pr) {
	if(v >= *pr) {
		*la = i;
		*pr = v;
 804a361:	bf 05 00 00 00       	mov    $0x5,%edi
uint32_t find_the_last_operator(uint32_t p,uint32_t q) {
	uint32_t i, j = 0, *la = 0, *pr = 0;
	uint32_t las = 0, pri = 0;
	la = &las;
	pr = &pri;
	for(i = p; i <= q; i ++) {
 804a366:	0f 83 b4 fe ff ff    	jae    804a220 <find_the_last_operator+0x30>
 804a36c:	e9 11 ff ff ff       	jmp    804a282 <find_the_last_operator+0x92>
 804a371:	8d b4 26 00 00 00 00 	lea    0x0(%esi,%eiz,1),%esi
		if(tokens[i].type == '(') j++;
		else if(tokens[i].type == ')') j--;
		else if(j == 0) {
			switch(tokens[i].type) {
 804a378:	83 fb 3c             	cmp    $0x3c,%ebx
 804a37b:	0f 84 5f ff ff ff    	je     804a2e0 <find_the_last_operator+0xf0>
 804a381:	0f 8e c1 00 00 00    	jle    804a448 <find_the_last_operator+0x258>
 804a387:	83 fb 3e             	cmp    $0x3e,%ebx
 804a38a:	0f 84 50 ff ff ff    	je     804a2e0 <find_the_last_operator+0xf0>
 804a390:	83 fb 5e             	cmp    $0x5e,%ebx
 804a393:	0f 85 df fe ff ff    	jne    804a278 <find_the_last_operator+0x88>
	}
	return flag;
}

uint32_t relax(uint32_t i, uint32_t v, uint32_t *la, uint32_t *pr) {
	if(v >= *pr) {
 804a399:	83 ff 09             	cmp    $0x9,%edi
 804a39c:	0f 87 d6 fe ff ff    	ja     804a278 <find_the_last_operator+0x88>
 804a3a2:	89 c5                	mov    %eax,%ebp
uint32_t find_the_last_operator(uint32_t p,uint32_t q) {
	uint32_t i, j = 0, *la = 0, *pr = 0;
	uint32_t las = 0, pri = 0;
	la = &las;
	pr = &pri;
	for(i = p; i <= q; i ++) {
 804a3a4:	83 c0 01             	add    $0x1,%eax
 804a3a7:	83 c2 24             	add    $0x24,%edx
 804a3aa:	39 c6                	cmp    %eax,%esi
}

uint32_t relax(uint32_t i, uint32_t v, uint32_t *la, uint32_t *pr) {
	if(v >= *pr) {
		*la = i;
		*pr = v;
 804a3ac:	bf 09 00 00 00       	mov    $0x9,%edi
uint32_t find_the_last_operator(uint32_t p,uint32_t q) {
	uint32_t i, j = 0, *la = 0, *pr = 0;
	uint32_t las = 0, pri = 0;
	la = &las;
	pr = &pri;
	for(i = p; i <= q; i ++) {
 804a3b1:	0f 83 69 fe ff ff    	jae    804a220 <find_the_last_operator+0x30>
 804a3b7:	e9 c6 fe ff ff       	jmp    804a282 <find_the_last_operator+0x92>
 804a3bc:	8d 74 26 00          	lea    0x0(%esi,%eiz,1),%esi
					break;
				case '/':
					relax(i, 3, la, pr);
					break;
				case '*':
					if(i != p && (!not_a_num(i-1) || tokens[i-1].type == ')')) relax(i, 4, la, pr);
 804a3c0:	3b 44 24 1c          	cmp    0x1c(%esp),%eax
 804a3c4:	74 4b                	je     804a411 <find_the_last_operator+0x221>

Token tokens[32];
int nr_token;

bool not_a_num(uint32_t p) {
		if(tokens[p].type != NUM && tokens[p].type != ONUM && tokens[p].type != HNUM && tokens[p].type != '$' && tokens[p].type != VAR) {
 804a3c6:	8b 1a                	mov    (%edx),%ebx
					break;
				case '/':
					relax(i, 3, la, pr);
					break;
				case '*':
					if(i != p && (!not_a_num(i-1) || tokens[i-1].type == ')')) relax(i, 4, la, pr);
 804a3c8:	83 fb 29             	cmp    $0x29,%ebx
 804a3cb:	89 1c 24             	mov    %ebx,(%esp)
 804a3ce:	0f 94 44 24 06       	sete   0x6(%esp)

Token tokens[32];
int nr_token;

bool not_a_num(uint32_t p) {
		if(tokens[p].type != NUM && tokens[p].type != ONUM && tokens[p].type != HNUM && tokens[p].type != '$' && tokens[p].type != VAR) {
 804a3d3:	81 fb 0d 01 00 00    	cmp    $0x10d,%ebx
 804a3d9:	0f 95 44 24 07       	setne  0x7(%esp)
 804a3de:	83 3c 24 24          	cmpl   $0x24,(%esp)
 804a3e2:	0f b6 5c 24 07       	movzbl 0x7(%esp),%ebx
 804a3e7:	0f 95 44 24 07       	setne  0x7(%esp)
 804a3ec:	22 5c 24 07          	and    0x7(%esp),%bl
 804a3f0:	88 5c 24 07          	mov    %bl,0x7(%esp)
 804a3f4:	8b 1c 24             	mov    (%esp),%ebx
 804a3f7:	81 eb 02 01 00 00    	sub    $0x102,%ebx
 804a3fd:	83 fb 02             	cmp    $0x2,%ebx
 804a400:	0f 97 c3             	seta   %bl
 804a403:	22 5c 24 07          	and    0x7(%esp),%bl
					break;
				case '/':
					relax(i, 3, la, pr);
					break;
				case '*':
					if(i != p && (!not_a_num(i-1) || tokens[i-1].type == ')')) relax(i, 4, la, pr);
 804a407:	38 5c 24 06          	cmp    %bl,0x6(%esp)
 804a40b:	0f 83 57 fe ff ff    	jae    804a268 <find_the_last_operator+0x78>
	}
	return 0;
}

uint32_t relax1(uint32_t i, uint32_t v, uint32_t *la, uint32_t *pr) {
	if(v > *pr) {
 804a411:	83 ff 01             	cmp    $0x1,%edi
 804a414:	0f 87 5e fe ff ff    	ja     804a278 <find_the_last_operator+0x88>
 804a41a:	89 c5                	mov    %eax,%ebp
uint32_t find_the_last_operator(uint32_t p,uint32_t q) {
	uint32_t i, j = 0, *la = 0, *pr = 0;
	uint32_t las = 0, pri = 0;
	la = &las;
	pr = &pri;
	for(i = p; i <= q; i ++) {
 804a41c:	83 c0 01             	add    $0x1,%eax
 804a41f:	83 c2 24             	add    $0x24,%edx
 804a422:	39 c6                	cmp    %eax,%esi
}

uint32_t relax1(uint32_t i, uint32_t v, uint32_t *la, uint32_t *pr) {
	if(v > *pr) {
		*la = i;
		*pr = v;
 804a424:	bf 02 00 00 00       	mov    $0x2,%edi
uint32_t find_the_last_operator(uint32_t p,uint32_t q) {
	uint32_t i, j = 0, *la = 0, *pr = 0;
	uint32_t las = 0, pri = 0;
	la = &las;
	pr = &pri;
	for(i = p; i <= q; i ++) {
 804a429:	0f 83 f1 fd ff ff    	jae    804a220 <find_the_last_operator+0x30>
 804a42f:	e9 4e fe ff ff       	jmp    804a282 <find_the_last_operator+0x92>
 804a434:	8d 74 26 00          	lea    0x0(%esi,%eiz,1),%esi
		if(tokens[i].type == '(') j++;
		else if(tokens[i].type == ')') j--;
		else if(j == 0) {
			switch(tokens[i].type) {
 804a438:	83 fb 21             	cmp    $0x21,%ebx
 804a43b:	74 d4                	je     804a411 <find_the_last_operator+0x221>
 804a43d:	e9 36 fe ff ff       	jmp    804a278 <find_the_last_operator+0x88>
 804a442:	8d b6 00 00 00 00    	lea    0x0(%esi),%esi
 804a448:	83 fb 2f             	cmp    $0x2f,%ebx
 804a44b:	0f 85 27 fe ff ff    	jne    804a278 <find_the_last_operator+0x88>
	}
	return flag;
}

uint32_t relax(uint32_t i, uint32_t v, uint32_t *la, uint32_t *pr) {
	if(v >= *pr) {
 804a451:	83 ff 03             	cmp    $0x3,%edi
 804a454:	0f 87 1e fe ff ff    	ja     804a278 <find_the_last_operator+0x88>
 804a45a:	89 c5                	mov    %eax,%ebp
uint32_t find_the_last_operator(uint32_t p,uint32_t q) {
	uint32_t i, j = 0, *la = 0, *pr = 0;
	uint32_t las = 0, pri = 0;
	la = &las;
	pr = &pri;
	for(i = p; i <= q; i ++) {
 804a45c:	83 c0 01             	add    $0x1,%eax
 804a45f:	83 c2 24             	add    $0x24,%edx
 804a462:	39 c6                	cmp    %eax,%esi
}

uint32_t relax(uint32_t i, uint32_t v, uint32_t *la, uint32_t *pr) {
	if(v >= *pr) {
		*la = i;
		*pr = v;
 804a464:	bf 03 00 00 00       	mov    $0x3,%edi
uint32_t find_the_last_operator(uint32_t p,uint32_t q) {
	uint32_t i, j = 0, *la = 0, *pr = 0;
	uint32_t las = 0, pri = 0;
	la = &las;
	pr = &pri;
	for(i = p; i <= q; i ++) {
 804a469:	0f 83 b1 fd ff ff    	jae    804a220 <find_the_last_operator+0x30>
 804a46f:	e9 0e fe ff ff       	jmp    804a282 <find_the_last_operator+0x92>
 804a474:	8d 74 26 00          	lea    0x0(%esi,%eiz,1),%esi
		if(tokens[i].type == '(') j++;
		else if(tokens[i].type == ')') j--;
		else if(j == 0) {
			switch(tokens[i].type) {
 804a478:	83 fb 7e             	cmp    $0x7e,%ebx
 804a47b:	74 94                	je     804a411 <find_the_last_operator+0x221>
 804a47d:	e9 f6 fd ff ff       	jmp    804a278 <find_the_last_operator+0x88>
 804a482:	8d b6 00 00 00 00    	lea    0x0(%esi),%esi
	}
	return flag;
}

uint32_t relax(uint32_t i, uint32_t v, uint32_t *la, uint32_t *pr) {
	if(v >= *pr) {
 804a488:	83 ff 0b             	cmp    $0xb,%edi
 804a48b:	0f 87 e7 fd ff ff    	ja     804a278 <find_the_last_operator+0x88>
 804a491:	89 c5                	mov    %eax,%ebp
uint32_t find_the_last_operator(uint32_t p,uint32_t q) {
	uint32_t i, j = 0, *la = 0, *pr = 0;
	uint32_t las = 0, pri = 0;
	la = &las;
	pr = &pri;
	for(i = p; i <= q; i ++) {
 804a493:	83 c0 01             	add    $0x1,%eax
 804a496:	83 c2 24             	add    $0x24,%edx
 804a499:	39 c6                	cmp    %eax,%esi
}

uint32_t relax(uint32_t i, uint32_t v, uint32_t *la, uint32_t *pr) {
	if(v >= *pr) {
		*la = i;
		*pr = v;
 804a49b:	bf 0b 00 00 00       	mov    $0xb,%edi
uint32_t find_the_last_operator(uint32_t p,uint32_t q) {
	uint32_t i, j = 0, *la = 0, *pr = 0;
	uint32_t las = 0, pri = 0;
	la = &las;
	pr = &pri;
	for(i = p; i <= q; i ++) {
 804a4a0:	0f 83 7a fd ff ff    	jae    804a220 <find_the_last_operator+0x30>
 804a4a6:	e9 d7 fd ff ff       	jmp    804a282 <find_the_last_operator+0x92>
 804a4ab:	90                   	nop
 804a4ac:	8d 74 26 00          	lea    0x0(%esi,%eiz,1),%esi
	}
	return flag;
}

uint32_t relax(uint32_t i, uint32_t v, uint32_t *la, uint32_t *pr) {
	if(v >= *pr) {
 804a4b0:	83 ff 0c             	cmp    $0xc,%edi
 804a4b3:	0f 87 bf fd ff ff    	ja     804a278 <find_the_last_operator+0x88>
 804a4b9:	89 c5                	mov    %eax,%ebp
uint32_t find_the_last_operator(uint32_t p,uint32_t q) {
	uint32_t i, j = 0, *la = 0, *pr = 0;
	uint32_t las = 0, pri = 0;
	la = &las;
	pr = &pri;
	for(i = p; i <= q; i ++) {
 804a4bb:	83 c0 01             	add    $0x1,%eax
 804a4be:	83 c2 24             	add    $0x24,%edx
 804a4c1:	39 c6                	cmp    %eax,%esi
}

uint32_t relax(uint32_t i, uint32_t v, uint32_t *la, uint32_t *pr) {
	if(v >= *pr) {
		*la = i;
		*pr = v;
 804a4c3:	bf 0c 00 00 00       	mov    $0xc,%edi
uint32_t find_the_last_operator(uint32_t p,uint32_t q) {
	uint32_t i, j = 0, *la = 0, *pr = 0;
	uint32_t las = 0, pri = 0;
	la = &las;
	pr = &pri;
	for(i = p; i <= q; i ++) {
 804a4c8:	0f 83 52 fd ff ff    	jae    804a220 <find_the_last_operator+0x30>
 804a4ce:	e9 af fd ff ff       	jmp    804a282 <find_the_last_operator+0x92>
 804a4d3:	90                   	nop
 804a4d4:	8d 74 26 00          	lea    0x0(%esi,%eiz,1),%esi
	}
	return flag;
}

uint32_t relax(uint32_t i, uint32_t v, uint32_t *la, uint32_t *pr) {
	if(v >= *pr) {
 804a4d8:	83 ff 08             	cmp    $0x8,%edi
 804a4db:	0f 87 97 fd ff ff    	ja     804a278 <find_the_last_operator+0x88>
 804a4e1:	89 c5                	mov    %eax,%ebp
uint32_t find_the_last_operator(uint32_t p,uint32_t q) {
	uint32_t i, j = 0, *la = 0, *pr = 0;
	uint32_t las = 0, pri = 0;
	la = &las;
	pr = &pri;
	for(i = p; i <= q; i ++) {
 804a4e3:	83 c0 01             	add    $0x1,%eax
 804a4e6:	83 c2 24             	add    $0x24,%edx
 804a4e9:	39 c6                	cmp    %eax,%esi
}

uint32_t relax(uint32_t i, uint32_t v, uint32_t *la, uint32_t *pr) {
	if(v >= *pr) {
		*la = i;
		*pr = v;
 804a4eb:	bf 08 00 00 00       	mov    $0x8,%edi
uint32_t find_the_last_operator(uint32_t p,uint32_t q) {
	uint32_t i, j = 0, *la = 0, *pr = 0;
	uint32_t las = 0, pri = 0;
	la = &las;
	pr = &pri;
	for(i = p; i <= q; i ++) {
 804a4f0:	0f 83 2a fd ff ff    	jae    804a220 <find_the_last_operator+0x30>
 804a4f6:	e9 87 fd ff ff       	jmp    804a282 <find_the_last_operator+0x92>
 804a4fb:	90                   	nop
 804a4fc:	8d 74 26 00          	lea    0x0(%esi,%eiz,1),%esi
					break;
				case '+':
					relax(i, 4, la, pr);
					break;
				case '-':
					if(i != p && (!not_a_num(i-1) || tokens[i-1].type == ')')) relax(i, 4, la, pr);
 804a500:	3b 44 24 1c          	cmp    0x1c(%esp),%eax
 804a504:	0f 84 07 ff ff ff    	je     804a411 <find_the_last_operator+0x221>

Token tokens[32];
int nr_token;

bool not_a_num(uint32_t p) {
		if(tokens[p].type != NUM && tokens[p].type != ONUM && tokens[p].type != HNUM && tokens[p].type != '$' && tokens[p].type != VAR) {
 804a50a:	81 3a 0d 01 00 00    	cmpl   $0x10d,(%edx)
 804a510:	0f 95 04 24          	setne  (%esp)
 804a514:	83 3a 24             	cmpl   $0x24,(%edx)
 804a517:	0f 95 c3             	setne  %bl
 804a51a:	22 1c 24             	and    (%esp),%bl
 804a51d:	88 1c 24             	mov    %bl,(%esp)
 804a520:	8b 1a                	mov    (%edx),%ebx
 804a522:	81 eb 02 01 00 00    	sub    $0x102,%ebx
 804a528:	83 fb 02             	cmp    $0x2,%ebx
 804a52b:	0f 97 c3             	seta   %bl
 804a52e:	22 1c 24             	and    (%esp),%bl
					break;
				case '+':
					relax(i, 4, la, pr);
					break;
				case '-':
					if(i != p && (!not_a_num(i-1) || tokens[i-1].type == ')')) relax(i, 4, la, pr);
 804a531:	83 3a 29             	cmpl   $0x29,(%edx)
 804a534:	0f 94 04 24          	sete   (%esp)
 804a538:	3a 1c 24             	cmp    (%esp),%bl
 804a53b:	0f 87 d0 fe ff ff    	ja     804a411 <find_the_last_operator+0x221>
 804a541:	e9 22 fd ff ff       	jmp    804a268 <find_the_last_operator+0x78>
 804a546:	8d 76 00             	lea    0x0(%esi),%esi
 804a549:	8d bc 27 00 00 00 00 	lea    0x0(%edi,%eiz,1),%edi
	}
	return flag;
}

uint32_t relax(uint32_t i, uint32_t v, uint32_t *la, uint32_t *pr) {
	if(v >= *pr) {
 804a550:	83 ff 0a             	cmp    $0xa,%edi
 804a553:	0f 87 1f fd ff ff    	ja     804a278 <find_the_last_operator+0x88>
 804a559:	89 c5                	mov    %eax,%ebp
uint32_t find_the_last_operator(uint32_t p,uint32_t q) {
	uint32_t i, j = 0, *la = 0, *pr = 0;
	uint32_t las = 0, pri = 0;
	la = &las;
	pr = &pri;
	for(i = p; i <= q; i ++) {
 804a55b:	83 c0 01             	add    $0x1,%eax
 804a55e:	83 c2 24             	add    $0x24,%edx
 804a561:	39 c6                	cmp    %eax,%esi
}

uint32_t relax(uint32_t i, uint32_t v, uint32_t *la, uint32_t *pr) {
	if(v >= *pr) {
		*la = i;
		*pr = v;
 804a563:	bf 0a 00 00 00       	mov    $0xa,%edi
uint32_t find_the_last_operator(uint32_t p,uint32_t q) {
	uint32_t i, j = 0, *la = 0, *pr = 0;
	uint32_t las = 0, pri = 0;
	la = &las;
	pr = &pri;
	for(i = p; i <= q; i ++) {
 804a568:	0f 83 b2 fc ff ff    	jae    804a220 <find_the_last_operator+0x30>
 804a56e:	e9 0f fd ff ff       	jmp    804a282 <find_the_last_operator+0x92>
	return 0;
}

uint32_t find_the_last_operator(uint32_t p,uint32_t q) {
	uint32_t i, j = 0, *la = 0, *pr = 0;
	uint32_t las = 0, pri = 0;
 804a573:	31 ed                	xor    %ebp,%ebp
 804a575:	e9 08 fd ff ff       	jmp    804a282 <find_the_last_operator+0x92>
 804a57a:	8d b6 00 00 00 00    	lea    0x0(%esi),%esi

0804a580 <eval>:
		}
	}
	return *la;
}

uint32_t eval(uint32_t p, uint32_t q, bool *success) {
 804a580:	55                   	push   %ebp
 804a581:	57                   	push   %edi
 804a582:	56                   	push   %esi
 804a583:	53                   	push   %ebx
 804a584:	83 ec 1c             	sub    $0x1c,%esp
 804a587:	8b 5c 24 30          	mov    0x30(%esp),%ebx
 804a58b:	8b 74 24 34          	mov    0x34(%esp),%esi
 804a58f:	8b 7c 24 38          	mov    0x38(%esp),%edi
	int i;
	uint32_t op, val1, val2, ret;
	if(p > q) {
 804a593:	39 f3                	cmp    %esi,%ebx
 804a595:	77 34                	ja     804a5cb <eval+0x4b>
 804a597:	89 f6                	mov    %esi,%esi
 804a599:	8d bc 27 00 00 00 00 	lea    0x0(%edi,%eiz,1),%edi
		/* Bad expression */
		printf("p is less then q\n");
		*success = false;
		return 0;
	}
	else if(p == q) { 
 804a5a0:	0f 84 12 01 00 00    	je     804a6b8 <eval+0x138>
					   printf("dont have this number!\n");
					   *success = false;
					   return 0;
		}
	}
	else if(check_parentheses(p, q, success) == true) {
 804a5a6:	83 ec 04             	sub    $0x4,%esp
 804a5a9:	57                   	push   %edi
 804a5aa:	56                   	push   %esi
 804a5ab:	53                   	push   %ebx
 804a5ac:	e8 0f fb ff ff       	call   804a0c0 <check_parentheses>
 804a5b1:	83 c4 10             	add    $0x10,%esp
 804a5b4:	3c 01                	cmp    $0x1,%al
 804a5b6:	75 38                	jne    804a5f0 <eval+0x70>
		if(!(*success)) {
 804a5b8:	80 3f 00             	cmpb   $0x0,(%edi)
 804a5bb:	0f 84 e7 00 00 00    	je     804a6a8 <eval+0x128>
			return 0;
		}
		return eval(p + 1, q - 1, success); 
 804a5c1:	83 ee 01             	sub    $0x1,%esi
 804a5c4:	83 c3 01             	add    $0x1,%ebx
}

uint32_t eval(uint32_t p, uint32_t q, bool *success) {
	int i;
	uint32_t op, val1, val2, ret;
	if(p > q) {
 804a5c7:	39 de                	cmp    %ebx,%esi
 804a5c9:	73 d5                	jae    804a5a0 <eval+0x20>
		/* Bad expression */
		printf("p is less then q\n");
 804a5cb:	83 ec 0c             	sub    $0xc,%esp
		*success = false;
		return 0;
 804a5ce:	31 db                	xor    %ebx,%ebx
uint32_t eval(uint32_t p, uint32_t q, bool *success) {
	int i;
	uint32_t op, val1, val2, ret;
	if(p > q) {
		/* Bad expression */
		printf("p is less then q\n");
 804a5d0:	68 85 f3 05 08       	push   $0x805f385
 804a5d5:	e8 86 e4 ff ff       	call   8048a60 <puts@plt>
		*success = false;
 804a5da:	c6 07 00             	movb   $0x0,(%edi)
		return 0;
 804a5dd:	83 c4 10             	add    $0x10,%esp
						*success = false;
						return 0;
			}
		}
	}
}
 804a5e0:	83 c4 1c             	add    $0x1c,%esp
 804a5e3:	89 d8                	mov    %ebx,%eax
 804a5e5:	5b                   	pop    %ebx
 804a5e6:	5e                   	pop    %esi
 804a5e7:	5f                   	pop    %edi
 804a5e8:	5d                   	pop    %ebp
 804a5e9:	c3                   	ret    
 804a5ea:	8d b6 00 00 00 00    	lea    0x0(%esi),%esi
			return 0;
		}
		return eval(p + 1, q - 1, success); 
	}
	else {
		op = find_the_last_operator(p, q);
 804a5f0:	83 ec 08             	sub    $0x8,%esp
 804a5f3:	56                   	push   %esi
 804a5f4:	53                   	push   %ebx
 804a5f5:	e8 f6 fb ff ff       	call   804a1f0 <find_the_last_operator>
 804a5fa:	83 c4 10             	add    $0x10,%esp
		if(op != p && (!not_a_num(op-1) || tokens[op-1].type == ')')) {
 804a5fd:	39 d8                	cmp    %ebx,%eax
			return 0;
		}
		return eval(p + 1, q - 1, success); 
	}
	else {
		op = find_the_last_operator(p, q);
 804a5ff:	89 c5                	mov    %eax,%ebp
		if(op != p && (!not_a_num(op-1) || tokens[op-1].type == ')')) {
 804a601:	74 42                	je     804a645 <eval+0xc5>
 804a603:	8d 48 ff             	lea    -0x1(%eax),%ecx

Token tokens[32];
int nr_token;

bool not_a_num(uint32_t p) {
		if(tokens[p].type != NUM && tokens[p].type != ONUM && tokens[p].type != HNUM && tokens[p].type != '$' && tokens[p].type != VAR) {
 804a606:	8d 04 c9             	lea    (%ecx,%ecx,8),%eax
 804a609:	8b 14 85 c0 83 0c 08 	mov    0x80c83c0(,%eax,4),%edx
		}
		return eval(p + 1, q - 1, success); 
	}
	else {
		op = find_the_last_operator(p, q);
		if(op != p && (!not_a_num(op-1) || tokens[op-1].type == ')')) {
 804a610:	83 fa 29             	cmp    $0x29,%edx
 804a613:	0f 94 44 24 08       	sete   0x8(%esp)

Token tokens[32];
int nr_token;

bool not_a_num(uint32_t p) {
		if(tokens[p].type != NUM && tokens[p].type != ONUM && tokens[p].type != HNUM && tokens[p].type != '$' && tokens[p].type != VAR) {
 804a618:	81 fa 0d 01 00 00    	cmp    $0x10d,%edx
 804a61e:	0f 95 44 24 0f       	setne  0xf(%esp)
 804a623:	83 fa 24             	cmp    $0x24,%edx
 804a626:	0f 95 c0             	setne  %al
 804a629:	22 44 24 0f          	and    0xf(%esp),%al
 804a62d:	81 ea 02 01 00 00    	sub    $0x102,%edx
 804a633:	83 fa 02             	cmp    $0x2,%edx
 804a636:	0f 97 c2             	seta   %dl
 804a639:	21 d0                	and    %edx,%eax
		}
		return eval(p + 1, q - 1, success); 
	}
	else {
		op = find_the_last_operator(p, q);
		if(op != p && (!not_a_num(op-1) || tokens[op-1].type == ')')) {
 804a63b:	38 44 24 08          	cmp    %al,0x8(%esp)
 804a63f:	0f 83 e6 00 00 00    	jae    804a72b <eval+0x1ab>
						*success = false;
						return 0;
			}
		}
		else {
			val2 = eval(op + 1, q, success);
 804a645:	8d 45 01             	lea    0x1(%ebp),%eax
 804a648:	83 ec 04             	sub    $0x4,%esp
 804a64b:	57                   	push   %edi
 804a64c:	56                   	push   %esi
 804a64d:	50                   	push   %eax
 804a64e:	e8 2d ff ff ff       	call   804a580 <eval>
			if(!(*success)) return 0;
 804a653:	83 c4 10             	add    $0x10,%esp
 804a656:	80 3f 00             	cmpb   $0x0,(%edi)
 804a659:	74 4d                	je     804a6a8 <eval+0x128>
			switch(tokens[op].type) {
 804a65b:	8d 54 ed 00          	lea    0x0(%ebp,%ebp,8),%edx
 804a65f:	8b 14 95 c0 83 0c 08 	mov    0x80c83c0(,%edx,4),%edx
 804a666:	83 fa 2a             	cmp    $0x2a,%edx
 804a669:	0f 84 f2 02 00 00    	je     804a961 <eval+0x3e1>
 804a66f:	0f 8e 03 02 00 00    	jle    804a878 <eval+0x2f8>
				case '-': return -val2;
 804a675:	89 c3                	mov    %eax,%ebx
 804a677:	f7 db                	neg    %ebx
			}
		}
		else {
			val2 = eval(op + 1, q, success);
			if(!(*success)) return 0;
			switch(tokens[op].type) {
 804a679:	83 fa 2d             	cmp    $0x2d,%edx
 804a67c:	0f 84 5e ff ff ff    	je     804a5e0 <eval+0x60>
				case '-': return -val2;
				case '*': return hwaddr_read(val2, 4);
				case '!': return !val2;
				case '~': return ~val2;
 804a682:	f7 d0                	not    %eax
			}
		}
		else {
			val2 = eval(op + 1, q, success);
			if(!(*success)) return 0;
			switch(tokens[op].type) {
 804a684:	83 fa 7e             	cmp    $0x7e,%edx
				case '-': return -val2;
				case '*': return hwaddr_read(val2, 4);
				case '!': return !val2;
				case '~': return ~val2;
 804a687:	89 c3                	mov    %eax,%ebx
			}
		}
		else {
			val2 = eval(op + 1, q, success);
			if(!(*success)) return 0;
			switch(tokens[op].type) {
 804a689:	0f 84 51 ff ff ff    	je     804a5e0 <eval+0x60>
				case '-': return -val2;
				case '*': return hwaddr_read(val2, 4);
				case '!': return !val2;
				case '~': return ~val2;
				default:
						printf("the operator deosn't implemented.\n");
 804a68f:	83 ec 0c             	sub    $0xc,%esp
 804a692:	68 8c f4 05 08       	push   $0x805f48c
 804a697:	e8 c4 e3 ff ff       	call   8048a60 <puts@plt>
						*success = false;
 804a69c:	c6 07 00             	movb   $0x0,(%edi)
						return 0;
 804a69f:	83 c4 10             	add    $0x10,%esp
 804a6a2:	8d b6 00 00 00 00    	lea    0x0(%esi),%esi
			}
		}
	}
}
 804a6a8:	83 c4 1c             	add    $0x1c,%esp
				case '!': return !val2;
				case '~': return ~val2;
				default:
						printf("the operator deosn't implemented.\n");
						*success = false;
						return 0;
 804a6ab:	31 db                	xor    %ebx,%ebx
			}
		}
	}
}
 804a6ad:	89 d8                	mov    %ebx,%eax
 804a6af:	5b                   	pop    %ebx
 804a6b0:	5e                   	pop    %esi
 804a6b1:	5f                   	pop    %edi
 804a6b2:	5d                   	pop    %ebp
 804a6b3:	c3                   	ret    
 804a6b4:	8d 74 26 00          	lea    0x0(%esi,%eiz,1),%esi

Token tokens[32];
int nr_token;

bool not_a_num(uint32_t p) {
		if(tokens[p].type != NUM && tokens[p].type != ONUM && tokens[p].type != HNUM && tokens[p].type != '$' && tokens[p].type != VAR) {
 804a6b8:	8d 04 db             	lea    (%ebx,%ebx,8),%eax
 804a6bb:	8b 04 85 c0 83 0c 08 	mov    0x80c83c0(,%eax,4),%eax
 804a6c2:	3d 0d 01 00 00       	cmp    $0x10d,%eax
 804a6c7:	0f 95 c1             	setne  %cl
 804a6ca:	83 f8 24             	cmp    $0x24,%eax
 804a6cd:	0f 95 c2             	setne  %dl
 804a6d0:	84 d1                	test   %dl,%cl
 804a6d2:	74 25                	je     804a6f9 <eval+0x179>
 804a6d4:	8d 90 fe fe ff ff    	lea    -0x102(%eax),%edx
 804a6da:	83 fa 02             	cmp    $0x2,%edx
 804a6dd:	76 1a                	jbe    804a6f9 <eval+0x179>
		*success = false;
		return 0;
	}
	else if(p == q) { 
		if(not_a_num(p)){
			printf("not a number!\n");
 804a6df:	83 ec 0c             	sub    $0xc,%esp
			*success = false;
			return 0;
 804a6e2:	31 db                	xor    %ebx,%ebx
		*success = false;
		return 0;
	}
	else if(p == q) { 
		if(not_a_num(p)){
			printf("not a number!\n");
 804a6e4:	68 da f3 05 08       	push   $0x805f3da
 804a6e9:	e8 72 e3 ff ff       	call   8048a60 <puts@plt>
			*success = false;
 804a6ee:	c6 07 00             	movb   $0x0,(%edi)
			return 0;
 804a6f1:	83 c4 10             	add    $0x10,%esp
 804a6f4:	e9 e7 fe ff ff       	jmp    804a5e0 <eval+0x60>
		}
		switch(tokens[p].type) {
 804a6f9:	3d 03 01 00 00       	cmp    $0x103,%eax
 804a6fe:	0f 84 0a 01 00 00    	je     804a80e <eval+0x28e>
 804a704:	0f 8f b6 00 00 00    	jg     804a7c0 <eval+0x240>
 804a70a:	83 f8 24             	cmp    $0x24,%eax
 804a70d:	0f 84 94 01 00 00    	je     804a8a7 <eval+0x327>
 804a713:	3d 02 01 00 00       	cmp    $0x102,%eax
 804a718:	0f 85 6f 01 00 00    	jne    804a88d <eval+0x30d>
			case NUM: return strtol(tokens[p].str, NULL, 10); 
 804a71e:	c7 44 24 38 0a 00 00 	movl   $0xa,0x38(%esp)
 804a725:	00 
 804a726:	e9 eb 00 00 00       	jmp    804a816 <eval+0x296>
		return eval(p + 1, q - 1, success); 
	}
	else {
		op = find_the_last_operator(p, q);
		if(op != p && (!not_a_num(op-1) || tokens[op-1].type == ')')) {
			val1 = eval(p, op - 1, success);
 804a72b:	83 ec 04             	sub    $0x4,%esp
 804a72e:	57                   	push   %edi
 804a72f:	51                   	push   %ecx
 804a730:	53                   	push   %ebx
 804a731:	e8 4a fe ff ff       	call   804a580 <eval>
 804a736:	89 44 24 18          	mov    %eax,0x18(%esp)
			val2 = eval(op + 1, q, success);
 804a73a:	8d 45 01             	lea    0x1(%ebp),%eax
 804a73d:	83 c4 0c             	add    $0xc,%esp
 804a740:	57                   	push   %edi
 804a741:	56                   	push   %esi
 804a742:	50                   	push   %eax
 804a743:	e8 38 fe ff ff       	call   804a580 <eval>
			if(!(*success)) return 0;
 804a748:	83 c4 10             	add    $0x10,%esp
 804a74b:	80 3f 00             	cmpb   $0x0,(%edi)
	}
	else {
		op = find_the_last_operator(p, q);
		if(op != p && (!not_a_num(op-1) || tokens[op-1].type == ')')) {
			val1 = eval(p, op - 1, success);
			val2 = eval(op + 1, q, success);
 804a74e:	89 c1                	mov    %eax,%ecx
			if(!(*success)) return 0;
 804a750:	0f 84 52 ff ff ff    	je     804a6a8 <eval+0x128>
			switch(tokens[op].type) {
 804a756:	8d 44 ed 00          	lea    0x0(%ebp,%ebp,8),%eax
 804a75a:	8b 54 24 08          	mov    0x8(%esp),%edx
 804a75e:	8b 04 85 c0 83 0c 08 	mov    0x80c83c0(,%eax,4),%eax
 804a765:	83 f8 5e             	cmp    $0x5e,%eax
 804a768:	0f 84 30 03 00 00    	je     804aa9e <eval+0x51e>
 804a76e:	0f 8e c4 00 00 00    	jle    804a838 <eval+0x2b8>
 804a774:	3d 07 01 00 00       	cmp    $0x107,%eax
 804a779:	0f 84 28 03 00 00    	je     804aaa7 <eval+0x527>
 804a77f:	0f 8f f4 01 00 00    	jg     804a979 <eval+0x3f9>
 804a785:	3d 01 01 00 00       	cmp    $0x101,%eax
 804a78a:	0f 84 38 03 00 00    	je     804aac8 <eval+0x548>
 804a790:	0f 8e 1d 03 00 00    	jle    804aab3 <eval+0x533>
 804a796:	3d 05 01 00 00       	cmp    $0x105,%eax
 804a79b:	0f 84 e5 02 00 00    	je     804aa86 <eval+0x506>
				case RS: return val1 >> val2;
				case '%': return val1 % val2;
				case '<': return val1 < val2;
				case '>': return val1 > val2;
				case NOT_LE: return val1 >= val2;
				case NOT_LA: return val1 <= val2;
 804a7a1:	31 db                	xor    %ebx,%ebx
 804a7a3:	39 ca                	cmp    %ecx,%edx
 804a7a5:	0f 96 c3             	setbe  %bl
		op = find_the_last_operator(p, q);
		if(op != p && (!not_a_num(op-1) || tokens[op-1].type == ')')) {
			val1 = eval(p, op - 1, success);
			val2 = eval(op + 1, q, success);
			if(!(*success)) return 0;
			switch(tokens[op].type) {
 804a7a8:	3d 06 01 00 00       	cmp    $0x106,%eax
 804a7ad:	0f 84 2d fe ff ff    	je     804a5e0 <eval+0x60>
 804a7b3:	e9 d7 fe ff ff       	jmp    804a68f <eval+0x10f>
 804a7b8:	90                   	nop
 804a7b9:	8d b4 26 00 00 00 00 	lea    0x0(%esi,%eiz,1),%esi
		if(not_a_num(p)){
			printf("not a number!\n");
			*success = false;
			return 0;
		}
		switch(tokens[p].type) {
 804a7c0:	3d 04 01 00 00       	cmp    $0x104,%eax
 804a7c5:	0f 84 89 01 00 00    	je     804a954 <eval+0x3d4>
 804a7cb:	3d 0d 01 00 00       	cmp    $0x10d,%eax
 804a7d0:	0f 85 b7 00 00 00    	jne    804a88d <eval+0x30d>
						  if(strcmp("eip", tokens[p].str+1) == 0) return cpu.eip;
						  printf("register name wrong.\n");
						  *success = false;
						  return 0;
			case VAR:
						  ret = read_sym(tokens[p].str);
 804a7d6:	8d 04 db             	lea    (%ebx,%ebx,8),%eax
 804a7d9:	83 ec 0c             	sub    $0xc,%esp
 804a7dc:	8d 04 85 c4 83 0c 08 	lea    0x80c83c4(,%eax,4),%eax
 804a7e3:	50                   	push   %eax
 804a7e4:	e8 e7 ed ff ff       	call   80495d0 <read_sym>
						  if(ret) return ret;
 804a7e9:	83 c4 10             	add    $0x10,%esp
 804a7ec:	85 c0                	test   %eax,%eax
 804a7ee:	89 c3                	mov    %eax,%ebx
 804a7f0:	0f 85 ea fd ff ff    	jne    804a5e0 <eval+0x60>
						  printf("dont have this variable\n");
 804a7f6:	83 ec 0c             	sub    $0xc,%esp
 804a7f9:	68 ab f3 05 08       	push   $0x805f3ab
 804a7fe:	e8 5d e2 ff ff       	call   8048a60 <puts@plt>
						  *success = false;
 804a803:	c6 07 00             	movb   $0x0,(%edi)
						  return 0;
 804a806:	83 c4 10             	add    $0x10,%esp
 804a809:	e9 d2 fd ff ff       	jmp    804a5e0 <eval+0x60>
			return 0;
		}
		switch(tokens[p].type) {
			case NUM: return strtol(tokens[p].str, NULL, 10); 
			case ONUM: return strtol(tokens[p].str, NULL, 8); 
			case HNUM: return strtol(tokens[p].str, NULL, 16); 
 804a80e:	c7 44 24 38 10 00 00 	movl   $0x10,0x38(%esp)
 804a815:	00 
			*success = false;
			return 0;
		}
		switch(tokens[p].type) {
			case NUM: return strtol(tokens[p].str, NULL, 10); 
			case ONUM: return strtol(tokens[p].str, NULL, 8); 
 804a816:	8d 04 db             	lea    (%ebx,%ebx,8),%eax
 804a819:	c7 44 24 34 00 00 00 	movl   $0x0,0x34(%esp)
 804a820:	00 
 804a821:	8d 04 85 c4 83 0c 08 	lea    0x80c83c4(,%eax,4),%eax
 804a828:	89 44 24 30          	mov    %eax,0x30(%esp)
						*success = false;
						return 0;
			}
		}
	}
}
 804a82c:	83 c4 1c             	add    $0x1c,%esp
 804a82f:	5b                   	pop    %ebx
 804a830:	5e                   	pop    %esi
 804a831:	5f                   	pop    %edi
 804a832:	5d                   	pop    %ebp
			*success = false;
			return 0;
		}
		switch(tokens[p].type) {
			case NUM: return strtol(tokens[p].str, NULL, 10); 
			case ONUM: return strtol(tokens[p].str, NULL, 8); 
 804a833:	e9 68 e3 ff ff       	jmp    8048ba0 <strtol@plt>
		op = find_the_last_operator(p, q);
		if(op != p && (!not_a_num(op-1) || tokens[op-1].type == ')')) {
			val1 = eval(p, op - 1, success);
			val2 = eval(op + 1, q, success);
			if(!(*success)) return 0;
			switch(tokens[op].type) {
 804a838:	83 f8 2b             	cmp    $0x2b,%eax
 804a83b:	0f 84 3d 02 00 00    	je     804aa7e <eval+0x4fe>
 804a841:	0f 8e 66 01 00 00    	jle    804a9ad <eval+0x42d>
 804a847:	83 f8 2f             	cmp    $0x2f,%eax
 804a84a:	0f 84 f8 01 00 00    	je     804aa48 <eval+0x4c8>
 804a850:	0f 8e da 01 00 00    	jle    804aa30 <eval+0x4b0>
 804a856:	83 f8 3c             	cmp    $0x3c,%eax
 804a859:	0f 84 33 02 00 00    	je     804aa92 <eval+0x512>
				case '^': return val1 ^ val2;
				case LS: return val1 << val2;
				case RS: return val1 >> val2;
				case '%': return val1 % val2;
				case '<': return val1 < val2;
				case '>': return val1 > val2;
 804a85f:	31 db                	xor    %ebx,%ebx
 804a861:	39 ca                	cmp    %ecx,%edx
 804a863:	0f 97 c3             	seta   %bl
		op = find_the_last_operator(p, q);
		if(op != p && (!not_a_num(op-1) || tokens[op-1].type == ')')) {
			val1 = eval(p, op - 1, success);
			val2 = eval(op + 1, q, success);
			if(!(*success)) return 0;
			switch(tokens[op].type) {
 804a866:	83 f8 3e             	cmp    $0x3e,%eax
 804a869:	0f 84 71 fd ff ff    	je     804a5e0 <eval+0x60>
 804a86f:	e9 1b fe ff ff       	jmp    804a68f <eval+0x10f>
 804a874:	8d 74 26 00          	lea    0x0(%esi,%eiz,1),%esi
			val2 = eval(op + 1, q, success);
			if(!(*success)) return 0;
			switch(tokens[op].type) {
				case '-': return -val2;
				case '*': return hwaddr_read(val2, 4);
				case '!': return !val2;
 804a878:	31 db                	xor    %ebx,%ebx
 804a87a:	85 c0                	test   %eax,%eax
 804a87c:	0f 94 c3             	sete   %bl
			}
		}
		else {
			val2 = eval(op + 1, q, success);
			if(!(*success)) return 0;
			switch(tokens[op].type) {
 804a87f:	83 fa 21             	cmp    $0x21,%edx
 804a882:	0f 84 58 fd ff ff    	je     804a5e0 <eval+0x60>
 804a888:	e9 02 fe ff ff       	jmp    804a68f <eval+0x10f>
						  if(ret) return ret;
						  printf("dont have this variable\n");
						  *success = false;
						  return 0;
			default:
					   printf("dont have this number!\n");
 804a88d:	83 ec 0c             	sub    $0xc,%esp
					   *success = false;
					   return 0;
 804a890:	31 db                	xor    %ebx,%ebx
						  if(ret) return ret;
						  printf("dont have this variable\n");
						  *success = false;
						  return 0;
			default:
					   printf("dont have this number!\n");
 804a892:	68 c3 f3 05 08       	push   $0x805f3c3
 804a897:	e8 c4 e1 ff ff       	call   8048a60 <puts@plt>
					   *success = false;
 804a89c:	c6 07 00             	movb   $0x0,(%edi)
					   return 0;
 804a89f:	83 c4 10             	add    $0x10,%esp
 804a8a2:	e9 39 fd ff ff       	jmp    804a5e0 <eval+0x60>
 804a8a7:	8d 04 db             	lea    (%ebx,%ebx,8),%eax
		if(not_a_num(p)){
			printf("not a number!\n");
			*success = false;
			return 0;
		}
		switch(tokens[p].type) {
 804a8aa:	31 db                	xor    %ebx,%ebx
 804a8ac:	8d 2c 85 c1 83 0c 08 	lea    0x80c83c1(,%eax,4),%ebp
 804a8b3:	8d 75 04             	lea    0x4(%ebp),%esi
 804a8b6:	8d 76 00             	lea    0x0(%esi),%esi
 804a8b9:	8d bc 27 00 00 00 00 	lea    0x0(%edi,%eiz,1),%edi
			case NUM: return strtol(tokens[p].str, NULL, 10); 
			case ONUM: return strtol(tokens[p].str, NULL, 8); 
			case HNUM: return strtol(tokens[p].str, NULL, 16); 
			case '$':
						  for(i = R_EAX; i <= R_EDI; i ++) {
							  if(strcmp(regsl[i], tokens[p].str+1) == 0) {
 804a8c0:	83 ec 08             	sub    $0x8,%esp
 804a8c3:	56                   	push   %esi
 804a8c4:	ff 34 9d c0 5b 07 08 	pushl  0x8075bc0(,%ebx,4)
 804a8cb:	e8 70 e0 ff ff       	call   8048940 <strcmp@plt>
 804a8d0:	83 c4 10             	add    $0x10,%esp
 804a8d3:	85 c0                	test   %eax,%eax
 804a8d5:	0f 84 fe 00 00 00    	je     804a9d9 <eval+0x459>
		switch(tokens[p].type) {
			case NUM: return strtol(tokens[p].str, NULL, 10); 
			case ONUM: return strtol(tokens[p].str, NULL, 8); 
			case HNUM: return strtol(tokens[p].str, NULL, 16); 
			case '$':
						  for(i = R_EAX; i <= R_EDI; i ++) {
 804a8db:	83 c3 01             	add    $0x1,%ebx
 804a8de:	83 fb 08             	cmp    $0x8,%ebx
 804a8e1:	75 dd                	jne    804a8c0 <eval+0x340>
 804a8e3:	30 db                	xor    %bl,%bl
 804a8e5:	8d 76 00             	lea    0x0(%esi),%esi
							  if(strcmp(regsl[i], tokens[p].str+1) == 0) {
								  return reg_l(i);
							  }
						  }
						  for(i = R_AX; i <= R_DI; i ++) {
							  if(strcmp(regsw[i], tokens[p].str+1) == 0) {
 804a8e8:	83 ec 08             	sub    $0x8,%esp
 804a8eb:	56                   	push   %esi
 804a8ec:	ff 34 9d a0 5b 07 08 	pushl  0x8075ba0(,%ebx,4)
 804a8f3:	e8 48 e0 ff ff       	call   8048940 <strcmp@plt>
 804a8f8:	83 c4 10             	add    $0x10,%esp
 804a8fb:	85 c0                	test   %eax,%eax
 804a8fd:	0f 84 e2 00 00 00    	je     804a9e5 <eval+0x465>
						  for(i = R_EAX; i <= R_EDI; i ++) {
							  if(strcmp(regsl[i], tokens[p].str+1) == 0) {
								  return reg_l(i);
							  }
						  }
						  for(i = R_AX; i <= R_DI; i ++) {
 804a903:	83 c3 01             	add    $0x1,%ebx
 804a906:	83 fb 08             	cmp    $0x8,%ebx
 804a909:	75 dd                	jne    804a8e8 <eval+0x368>
 804a90b:	30 db                	xor    %bl,%bl
							  if(strcmp(regsw[i], tokens[p].str+1) == 0) {
								  return reg_w(i);
							  }
						  }
						  for(i = R_AL; i <= R_BH; i ++) {
							  if(strcmp(regsb[i], tokens[p].str+1) == 0) {
 804a90d:	83 ec 08             	sub    $0x8,%esp
 804a910:	56                   	push   %esi
 804a911:	ff 34 9d 80 5b 07 08 	pushl  0x8075b80(,%ebx,4)
 804a918:	e8 23 e0 ff ff       	call   8048940 <strcmp@plt>
 804a91d:	83 c4 10             	add    $0x10,%esp
 804a920:	85 c0                	test   %eax,%eax
 804a922:	0f 84 f3 00 00 00    	je     804aa1b <eval+0x49b>
						  for(i = R_AX; i <= R_DI; i ++) {
							  if(strcmp(regsw[i], tokens[p].str+1) == 0) {
								  return reg_w(i);
							  }
						  }
						  for(i = R_AL; i <= R_BH; i ++) {
 804a928:	83 c3 01             	add    $0x1,%ebx
 804a92b:	83 fb 08             	cmp    $0x8,%ebx
 804a92e:	75 dd                	jne    804a90d <eval+0x38d>
							  if(strcmp(regsb[i], tokens[p].str+1) == 0) {
								  return reg_b(i);
							  }
						  }
						  if(strcmp("eip", tokens[p].str+1) == 0) return cpu.eip;
 804a930:	80 7d 04 65          	cmpb   $0x65,0x4(%ebp)
 804a934:	0f 84 b8 00 00 00    	je     804a9f2 <eval+0x472>
						  printf("register name wrong.\n");
 804a93a:	83 ec 0c             	sub    $0xc,%esp
						  *success = false;
						  return 0;
 804a93d:	31 db                	xor    %ebx,%ebx
							  if(strcmp(regsb[i], tokens[p].str+1) == 0) {
								  return reg_b(i);
							  }
						  }
						  if(strcmp("eip", tokens[p].str+1) == 0) return cpu.eip;
						  printf("register name wrong.\n");
 804a93f:	68 96 f3 05 08       	push   $0x805f396
 804a944:	e8 17 e1 ff ff       	call   8048a60 <puts@plt>
						  *success = false;
 804a949:	c6 07 00             	movb   $0x0,(%edi)
						  return 0;
 804a94c:	83 c4 10             	add    $0x10,%esp
 804a94f:	e9 8c fc ff ff       	jmp    804a5e0 <eval+0x60>
			*success = false;
			return 0;
		}
		switch(tokens[p].type) {
			case NUM: return strtol(tokens[p].str, NULL, 10); 
			case ONUM: return strtol(tokens[p].str, NULL, 8); 
 804a954:	c7 44 24 38 08 00 00 	movl   $0x8,0x38(%esp)
 804a95b:	00 
 804a95c:	e9 b5 fe ff ff       	jmp    804a816 <eval+0x296>
		else {
			val2 = eval(op + 1, q, success);
			if(!(*success)) return 0;
			switch(tokens[op].type) {
				case '-': return -val2;
				case '*': return hwaddr_read(val2, 4);
 804a961:	c7 44 24 34 04 00 00 	movl   $0x4,0x34(%esp)
 804a968:	00 
 804a969:	89 44 24 30          	mov    %eax,0x30(%esp)
						*success = false;
						return 0;
			}
		}
	}
}
 804a96d:	83 c4 1c             	add    $0x1c,%esp
 804a970:	5b                   	pop    %ebx
 804a971:	5e                   	pop    %esi
 804a972:	5f                   	pop    %edi
 804a973:	5d                   	pop    %ebp
		else {
			val2 = eval(op + 1, q, success);
			if(!(*success)) return 0;
			switch(tokens[op].type) {
				case '-': return -val2;
				case '*': return hwaddr_read(val2, 4);
 804a974:	e9 67 05 00 00       	jmp    804aee0 <hwaddr_read>
		op = find_the_last_operator(p, q);
		if(op != p && (!not_a_num(op-1) || tokens[op-1].type == ')')) {
			val1 = eval(p, op - 1, success);
			val2 = eval(op + 1, q, success);
			if(!(*success)) return 0;
			switch(tokens[op].type) {
 804a979:	3d 09 01 00 00       	cmp    $0x109,%eax
 804a97e:	0f 84 e4 00 00 00    	je     804aa68 <eval+0x4e8>
 804a984:	0f 8c cb 00 00 00    	jl     804aa55 <eval+0x4d5>
				case '&': return val1 & val2;
				case '|': return val1 | val2;
				case AND: return val1 && val2;
				case OR: return val1 || val2;
				case '^': return val1 ^ val2;
				case LS: return val1 << val2;
 804a98a:	89 d3                	mov    %edx,%ebx
 804a98c:	d3 e3                	shl    %cl,%ebx
		op = find_the_last_operator(p, q);
		if(op != p && (!not_a_num(op-1) || tokens[op-1].type == ')')) {
			val1 = eval(p, op - 1, success);
			val2 = eval(op + 1, q, success);
			if(!(*success)) return 0;
			switch(tokens[op].type) {
 804a98e:	3d 0b 01 00 00       	cmp    $0x10b,%eax
 804a993:	0f 84 47 fc ff ff    	je     804a5e0 <eval+0x60>
				case '|': return val1 | val2;
				case AND: return val1 && val2;
				case OR: return val1 || val2;
				case '^': return val1 ^ val2;
				case LS: return val1 << val2;
				case RS: return val1 >> val2;
 804a999:	d3 ea                	shr    %cl,%edx
		op = find_the_last_operator(p, q);
		if(op != p && (!not_a_num(op-1) || tokens[op-1].type == ')')) {
			val1 = eval(p, op - 1, success);
			val2 = eval(op + 1, q, success);
			if(!(*success)) return 0;
			switch(tokens[op].type) {
 804a99b:	3d 0c 01 00 00       	cmp    $0x10c,%eax
				case '|': return val1 | val2;
				case AND: return val1 && val2;
				case OR: return val1 || val2;
				case '^': return val1 ^ val2;
				case LS: return val1 << val2;
				case RS: return val1 >> val2;
 804a9a0:	89 d3                	mov    %edx,%ebx
		op = find_the_last_operator(p, q);
		if(op != p && (!not_a_num(op-1) || tokens[op-1].type == ')')) {
			val1 = eval(p, op - 1, success);
			val2 = eval(op + 1, q, success);
			if(!(*success)) return 0;
			switch(tokens[op].type) {
 804a9a2:	0f 84 38 fc ff ff    	je     804a5e0 <eval+0x60>
 804a9a8:	e9 e2 fc ff ff       	jmp    804a68f <eval+0x10f>
				case '+': return val1 + val2;
				case '-': return val1 - val2;
				case '*': return val1 * val2;
				case '/': return val1 / val2;
				case '&': return val1 & val2;
 804a9ad:	89 cb                	mov    %ecx,%ebx
 804a9af:	21 d3                	and    %edx,%ebx
		op = find_the_last_operator(p, q);
		if(op != p && (!not_a_num(op-1) || tokens[op-1].type == ')')) {
			val1 = eval(p, op - 1, success);
			val2 = eval(op + 1, q, success);
			if(!(*success)) return 0;
			switch(tokens[op].type) {
 804a9b1:	83 f8 26             	cmp    $0x26,%eax
 804a9b4:	0f 84 26 fc ff ff    	je     804a5e0 <eval+0x60>
 804a9ba:	83 f8 2a             	cmp    $0x2a,%eax
 804a9bd:	0f 84 b1 00 00 00    	je     804aa74 <eval+0x4f4>
 804a9c3:	83 f8 25             	cmp    $0x25,%eax
 804a9c6:	0f 85 c3 fc ff ff    	jne    804a68f <eval+0x10f>
				case AND: return val1 && val2;
				case OR: return val1 || val2;
				case '^': return val1 ^ val2;
				case LS: return val1 << val2;
				case RS: return val1 >> val2;
				case '%': return val1 % val2;
 804a9cc:	89 d0                	mov    %edx,%eax
 804a9ce:	31 d2                	xor    %edx,%edx
 804a9d0:	f7 f1                	div    %ecx
 804a9d2:	89 d3                	mov    %edx,%ebx
 804a9d4:	e9 07 fc ff ff       	jmp    804a5e0 <eval+0x60>
			case ONUM: return strtol(tokens[p].str, NULL, 8); 
			case HNUM: return strtol(tokens[p].str, NULL, 16); 
			case '$':
						  for(i = R_EAX; i <= R_EDI; i ++) {
							  if(strcmp(regsl[i], tokens[p].str+1) == 0) {
								  return reg_l(i);
 804a9d9:	8b 1c 9d c0 ae 8f 14 	mov    0x148faec0(,%ebx,4),%ebx
 804a9e0:	e9 fb fb ff ff       	jmp    804a5e0 <eval+0x60>
							  }
						  }
						  for(i = R_AX; i <= R_DI; i ++) {
							  if(strcmp(regsw[i], tokens[p].str+1) == 0) {
								  return reg_w(i);
 804a9e5:	0f b7 1c 9d c0 ae 8f 	movzwl 0x148faec0(,%ebx,4),%ebx
 804a9ec:	14 
 804a9ed:	e9 ee fb ff ff       	jmp    804a5e0 <eval+0x60>
						  for(i = R_AL; i <= R_BH; i ++) {
							  if(strcmp(regsb[i], tokens[p].str+1) == 0) {
								  return reg_b(i);
							  }
						  }
						  if(strcmp("eip", tokens[p].str+1) == 0) return cpu.eip;
 804a9f2:	80 7e 01 69          	cmpb   $0x69,0x1(%esi)
 804a9f6:	0f 85 3e ff ff ff    	jne    804a93a <eval+0x3ba>
 804a9fc:	80 7e 02 70          	cmpb   $0x70,0x2(%esi)
 804aa00:	0f 85 34 ff ff ff    	jne    804a93a <eval+0x3ba>
 804aa06:	80 7e 03 00          	cmpb   $0x0,0x3(%esi)
 804aa0a:	0f 85 2a ff ff ff    	jne    804a93a <eval+0x3ba>
 804aa10:	8b 1d e0 ae 8f 14    	mov    0x148faee0,%ebx
 804aa16:	e9 c5 fb ff ff       	jmp    804a5e0 <eval+0x60>
								  return reg_w(i);
							  }
						  }
						  for(i = R_AL; i <= R_BH; i ++) {
							  if(strcmp(regsb[i], tokens[p].str+1) == 0) {
								  return reg_b(i);
 804aa1b:	89 d8                	mov    %ebx,%eax
 804aa1d:	c1 fb 02             	sar    $0x2,%ebx
 804aa20:	83 e0 03             	and    $0x3,%eax
 804aa23:	0f b6 9c 83 c0 ae 8f 	movzbl 0x148faec0(%ebx,%eax,4),%ebx
 804aa2a:	14 
 804aa2b:	e9 b0 fb ff ff       	jmp    804a5e0 <eval+0x60>
			val1 = eval(p, op - 1, success);
			val2 = eval(op + 1, q, success);
			if(!(*success)) return 0;
			switch(tokens[op].type) {
				case '+': return val1 + val2;
				case '-': return val1 - val2;
 804aa30:	29 ca                	sub    %ecx,%edx
		op = find_the_last_operator(p, q);
		if(op != p && (!not_a_num(op-1) || tokens[op-1].type == ')')) {
			val1 = eval(p, op - 1, success);
			val2 = eval(op + 1, q, success);
			if(!(*success)) return 0;
			switch(tokens[op].type) {
 804aa32:	83 f8 2d             	cmp    $0x2d,%eax
				case '+': return val1 + val2;
				case '-': return val1 - val2;
 804aa35:	89 d3                	mov    %edx,%ebx
		op = find_the_last_operator(p, q);
		if(op != p && (!not_a_num(op-1) || tokens[op-1].type == ')')) {
			val1 = eval(p, op - 1, success);
			val2 = eval(op + 1, q, success);
			if(!(*success)) return 0;
			switch(tokens[op].type) {
 804aa37:	0f 84 a3 fb ff ff    	je     804a5e0 <eval+0x60>
 804aa3d:	e9 4d fc ff ff       	jmp    804a68f <eval+0x10f>
 804aa42:	8d b6 00 00 00 00    	lea    0x0(%esi),%esi
				case '+': return val1 + val2;
				case '-': return val1 - val2;
				case '*': return val1 * val2;
				case '/': return val1 / val2;
 804aa48:	89 d0                	mov    %edx,%eax
 804aa4a:	31 d2                	xor    %edx,%edx
 804aa4c:	f7 f1                	div    %ecx
 804aa4e:	89 c3                	mov    %eax,%ebx
 804aa50:	e9 8b fb ff ff       	jmp    804a5e0 <eval+0x60>
				case '&': return val1 & val2;
				case '|': return val1 | val2;
				case AND: return val1 && val2;
 804aa55:	85 c9                	test   %ecx,%ecx
 804aa57:	0f 95 c0             	setne  %al
 804aa5a:	31 db                	xor    %ebx,%ebx
 804aa5c:	85 d2                	test   %edx,%edx
 804aa5e:	0f 95 c3             	setne  %bl
 804aa61:	21 c3                	and    %eax,%ebx
 804aa63:	e9 78 fb ff ff       	jmp    804a5e0 <eval+0x60>
				case OR: return val1 || val2;
 804aa68:	31 db                	xor    %ebx,%ebx
 804aa6a:	09 d1                	or     %edx,%ecx
 804aa6c:	0f 95 c3             	setne  %bl
 804aa6f:	e9 6c fb ff ff       	jmp    804a5e0 <eval+0x60>
			val2 = eval(op + 1, q, success);
			if(!(*success)) return 0;
			switch(tokens[op].type) {
				case '+': return val1 + val2;
				case '-': return val1 - val2;
				case '*': return val1 * val2;
 804aa74:	0f af ca             	imul   %edx,%ecx
 804aa77:	89 cb                	mov    %ecx,%ebx
 804aa79:	e9 62 fb ff ff       	jmp    804a5e0 <eval+0x60>
		if(op != p && (!not_a_num(op-1) || tokens[op-1].type == ')')) {
			val1 = eval(p, op - 1, success);
			val2 = eval(op + 1, q, success);
			if(!(*success)) return 0;
			switch(tokens[op].type) {
				case '+': return val1 + val2;
 804aa7e:	8d 1c 11             	lea    (%ecx,%edx,1),%ebx
 804aa81:	e9 5a fb ff ff       	jmp    804a5e0 <eval+0x60>
				case '%': return val1 % val2;
				case '<': return val1 < val2;
				case '>': return val1 > val2;
				case NOT_LE: return val1 >= val2;
				case NOT_LA: return val1 <= val2;
				case NOT_EQ: return val1 != val2;
 804aa86:	31 db                	xor    %ebx,%ebx
 804aa88:	39 ca                	cmp    %ecx,%edx
 804aa8a:	0f 95 c3             	setne  %bl
 804aa8d:	e9 4e fb ff ff       	jmp    804a5e0 <eval+0x60>
				case OR: return val1 || val2;
				case '^': return val1 ^ val2;
				case LS: return val1 << val2;
				case RS: return val1 >> val2;
				case '%': return val1 % val2;
				case '<': return val1 < val2;
 804aa92:	31 db                	xor    %ebx,%ebx
 804aa94:	39 ca                	cmp    %ecx,%edx
 804aa96:	0f 92 c3             	setb   %bl
 804aa99:	e9 42 fb ff ff       	jmp    804a5e0 <eval+0x60>
				case '/': return val1 / val2;
				case '&': return val1 & val2;
				case '|': return val1 | val2;
				case AND: return val1 && val2;
				case OR: return val1 || val2;
				case '^': return val1 ^ val2;
 804aa9e:	31 d1                	xor    %edx,%ecx
 804aaa0:	89 cb                	mov    %ecx,%ebx
 804aaa2:	e9 39 fb ff ff       	jmp    804a5e0 <eval+0x60>
				case LS: return val1 << val2;
				case RS: return val1 >> val2;
				case '%': return val1 % val2;
				case '<': return val1 < val2;
				case '>': return val1 > val2;
				case NOT_LE: return val1 >= val2;
 804aaa7:	31 db                	xor    %ebx,%ebx
 804aaa9:	39 ca                	cmp    %ecx,%edx
 804aaab:	0f 93 c3             	setae  %bl
 804aaae:	e9 2d fb ff ff       	jmp    804a5e0 <eval+0x60>
				case '+': return val1 + val2;
				case '-': return val1 - val2;
				case '*': return val1 * val2;
				case '/': return val1 / val2;
				case '&': return val1 & val2;
				case '|': return val1 | val2;
 804aab3:	09 d1                	or     %edx,%ecx
		op = find_the_last_operator(p, q);
		if(op != p && (!not_a_num(op-1) || tokens[op-1].type == ')')) {
			val1 = eval(p, op - 1, success);
			val2 = eval(op + 1, q, success);
			if(!(*success)) return 0;
			switch(tokens[op].type) {
 804aab5:	83 f8 7c             	cmp    $0x7c,%eax
				case '+': return val1 + val2;
				case '-': return val1 - val2;
				case '*': return val1 * val2;
				case '/': return val1 / val2;
				case '&': return val1 & val2;
				case '|': return val1 | val2;
 804aab8:	89 cb                	mov    %ecx,%ebx
		op = find_the_last_operator(p, q);
		if(op != p && (!not_a_num(op-1) || tokens[op-1].type == ')')) {
			val1 = eval(p, op - 1, success);
			val2 = eval(op + 1, q, success);
			if(!(*success)) return 0;
			switch(tokens[op].type) {
 804aaba:	0f 84 20 fb ff ff    	je     804a5e0 <eval+0x60>
 804aac0:	e9 ca fb ff ff       	jmp    804a68f <eval+0x10f>
 804aac5:	8d 76 00             	lea    0x0(%esi),%esi
				case '<': return val1 < val2;
				case '>': return val1 > val2;
				case NOT_LE: return val1 >= val2;
				case NOT_LA: return val1 <= val2;
				case NOT_EQ: return val1 != val2;
				case EQ: return val1 == val2;
 804aac8:	31 db                	xor    %ebx,%ebx
 804aaca:	39 ca                	cmp    %ecx,%edx
 804aacc:	0f 94 c3             	sete   %bl
 804aacf:	e9 0c fb ff ff       	jmp    804a5e0 <eval+0x60>
 804aad4:	8d b6 00 00 00 00    	lea    0x0(%esi),%esi
 804aada:	8d bf 00 00 00 00    	lea    0x0(%edi),%edi

0804aae0 <expr>:
			}
		}
	}
}

uint32_t expr(char *e, bool *success) {
 804aae0:	55                   	push   %ebp
 804aae1:	57                   	push   %edi
 804aae2:	56                   	push   %esi
 804aae3:	53                   	push   %ebx
 804aae4:	83 ec 2c             	sub    $0x2c,%esp
static bool make_token(char *e) {
	int position = 0;
	int i;
	regmatch_t pmatch;
	
	nr_token = 0;
 804aae7:	c7 05 80 83 0c 08 00 	movl   $0x0,0x80c8380
 804aaee:	00 00 00 
 804aaf1:	8d 74 24 18          	lea    0x18(%esp),%esi
		}
		else return false;
}

static bool make_token(char *e) {
	int position = 0;
 804aaf5:	c7 44 24 08 00 00 00 	movl   $0x0,0x8(%esp)
 804aafc:	00 
	int i;
	regmatch_t pmatch;
	
	nr_token = 0;

	while(e[position] != '\0') {
 804aafd:	8b 5c 24 08          	mov    0x8(%esp),%ebx
 804ab01:	03 5c 24 40          	add    0x40(%esp),%ebx
 804ab05:	80 3b 00             	cmpb   $0x0,(%ebx)
 804ab08:	0f 84 58 01 00 00    	je     804ac66 <expr+0x186>
 804ab0e:	bf 00 7e 07 08       	mov    $0x8077e00,%edi
 804ab13:	31 ed                	xor    %ebp,%ebp
 804ab15:	8d 76 00             	lea    0x0(%esi),%esi
		/* Try all rules one by one. */
		for(i = 0; i < NR_REGEX; i ++) {
			if(regexec(&re[i], e + position, 1, &pmatch, 0) == 0 && pmatch.rm_so == 0) {
 804ab18:	83 ec 0c             	sub    $0xc,%esp
 804ab1b:	6a 00                	push   $0x0
 804ab1d:	56                   	push   %esi
 804ab1e:	6a 01                	push   $0x1
 804ab20:	53                   	push   %ebx
 804ab21:	57                   	push   %edi
 804ab22:	e8 19 e0 ff ff       	call   8048b40 <regexec@plt>
 804ab27:	83 c4 20             	add    $0x20,%esp
 804ab2a:	85 c0                	test   %eax,%eax
 804ab2c:	75 08                	jne    804ab36 <expr+0x56>
 804ab2e:	8b 44 24 18          	mov    0x18(%esp),%eax
 804ab32:	85 c0                	test   %eax,%eax
 804ab34:	74 42                	je     804ab78 <expr+0x98>
	
	nr_token = 0;

	while(e[position] != '\0') {
		/* Try all rules one by one. */
		for(i = 0; i < NR_REGEX; i ++) {
 804ab36:	83 c5 01             	add    $0x1,%ebp
 804ab39:	83 c7 20             	add    $0x20,%edi
 804ab3c:	83 fd 1c             	cmp    $0x1c,%ebp
 804ab3f:	75 d7                	jne    804ab18 <expr+0x38>
				break;
			}
		}

		if(i == NR_REGEX) {
			printf("no match at position %d\n%s\n%*.s^\n", position, e, position, "");
 804ab41:	83 ec 0c             	sub    $0xc,%esp
 804ab44:	68 10 f1 05 08       	push   $0x805f110
 804ab49:	8b 44 24 18          	mov    0x18(%esp),%eax
 804ab4d:	50                   	push   %eax
 804ab4e:	ff 74 24 54          	pushl  0x54(%esp)
 804ab52:	50                   	push   %eax
 804ab53:	68 44 f5 05 08       	push   $0x805f544
 804ab58:	e8 f3 dd ff ff       	call   8048950 <printf@plt>
	}
}

uint32_t expr(char *e, bool *success) {
	if(!make_token(e)) {
		*success = false;
 804ab5d:	8b 44 24 64          	mov    0x64(%esp),%eax
		return 0;
 804ab61:	83 c4 20             	add    $0x20,%esp
	}
}

uint32_t expr(char *e, bool *success) {
	if(!make_token(e)) {
		*success = false;
 804ab64:	c6 00 00             	movb   $0x0,(%eax)
		return 0;
	}

	/* TODO: Insert codes to evaluate the expression. */
	return eval(0, nr_token-1, success);
}
 804ab67:	83 c4 2c             	add    $0x2c,%esp
}

uint32_t expr(char *e, bool *success) {
	if(!make_token(e)) {
		*success = false;
		return 0;
 804ab6a:	31 c0                	xor    %eax,%eax
	}

	/* TODO: Insert codes to evaluate the expression. */
	return eval(0, nr_token-1, success);
}
 804ab6c:	5b                   	pop    %ebx
 804ab6d:	5e                   	pop    %esi
 804ab6e:	5f                   	pop    %edi
 804ab6f:	5d                   	pop    %ebp
 804ab70:	c3                   	ret    
 804ab71:	8d b4 26 00 00 00 00 	lea    0x0(%esi,%eiz,1),%esi
	while(e[position] != '\0') {
		/* Try all rules one by one. */
		for(i = 0; i < NR_REGEX; i ++) {
			if(regexec(&re[i], e + position, 1, &pmatch, 0) == 0 && pmatch.rm_so == 0) {
				char *substr_start = e + position;
				int substr_len = pmatch.rm_eo;
 804ab78:	8b 7c 24 1c          	mov    0x1c(%esp),%edi

				Log("match rules[%d] = \"%s\" at position %d with len %d: %.*s", i, rules[i].regex, position, substr_len, substr_len, substr_start);
 804ab7c:	8b 14 ed c0 f5 05 08 	mov    0x805f5c0(,%ebp,8),%edx
 804ab83:	83 ec 04             	sub    $0x4,%esp
 804ab86:	53                   	push   %ebx
 804ab87:	57                   	push   %edi
 804ab88:	57                   	push   %edi
 804ab89:	ff 74 24 18          	pushl  0x18(%esp)
 804ab8d:	52                   	push   %edx
 804ab8e:	89 54 24 24          	mov    %edx,0x24(%esp)
 804ab92:	55                   	push   %ebp
 804ab93:	68 80 f5 05 08       	push   $0x805f580
 804ab98:	6a 6c                	push   $0x6c
 804ab9a:	68 4a f3 05 08       	push   $0x805f34a
 804ab9f:	68 b0 f4 05 08       	push   $0x805f4b0
 804aba4:	ff 35 20 5c 07 08    	pushl  0x8075c20
 804abaa:	e8 11 df ff ff       	call   8048ac0 <fprintf@plt>
 804abaf:	83 c4 24             	add    $0x24,%esp
 804abb2:	ff 35 20 5c 07 08    	pushl  0x8075c20
 804abb8:	e8 a3 dd ff ff       	call   8048960 <fflush@plt>
 804abbd:	83 c4 0c             	add    $0xc,%esp
 804abc0:	53                   	push   %ebx
 804abc1:	57                   	push   %edi
 804abc2:	57                   	push   %edi
 804abc3:	ff 74 24 18          	pushl  0x18(%esp)
 804abc7:	8b 54 24 20          	mov    0x20(%esp),%edx
 804abcb:	52                   	push   %edx
 804abcc:	55                   	push   %ebp
 804abcd:	68 80 f5 05 08       	push   $0x805f580
 804abd2:	6a 6c                	push   $0x6c
 804abd4:	68 4a f3 05 08       	push   $0x805f34a
 804abd9:	68 00 f5 05 08       	push   $0x805f500
 804abde:	ff 35 28 5c 07 08    	pushl  0x8075c28
 804abe4:	e8 d7 de ff ff       	call   8048ac0 <fprintf@plt>
 804abe9:	83 c4 24             	add    $0x24,%esp
 804abec:	ff 35 28 5c 07 08    	pushl  0x8075c28
 804abf2:	e8 69 dd ff ff       	call   8048960 <fflush@plt>
				/* TODO: Now a new token is recognized with rules[i]. Add codes
				 * to record the token in the array ``tokens''. For certain 
				 * types of tokens, some extra actions should be performed.
				 */

				switch(rules[i].token_type) {
 804abf7:	8b 04 ed c4 f5 05 08 	mov    0x805f5c4(,%ebp,8),%eax
			if(regexec(&re[i], e + position, 1, &pmatch, 0) == 0 && pmatch.rm_so == 0) {
				char *substr_start = e + position;
				int substr_len = pmatch.rm_eo;

				Log("match rules[%d] = \"%s\" at position %d with len %d: %.*s", i, rules[i].regex, position, substr_len, substr_len, substr_start);
				position += substr_len;
 804abfe:	01 7c 24 18          	add    %edi,0x18(%esp)
				/* TODO: Now a new token is recognized with rules[i]. Add codes
				 * to record the token in the array ``tokens''. For certain 
				 * types of tokens, some extra actions should be performed.
				 */

				switch(rules[i].token_type) {
 804ac02:	83 c4 10             	add    $0x10,%esp
 804ac05:	3d 00 01 00 00       	cmp    $0x100,%eax
 804ac0a:	0f 84 ed fe ff ff    	je     804aafd <expr+0x1d>
					case NOTYPE: break;
					default: 
						tokens[nr_token].type = rules[i].token_type;
 804ac10:	8b 2d 80 83 0c 08    	mov    0x80c8380,%ebp
						strncpy(tokens[nr_token].str, substr_start, substr_len);
 804ac16:	83 ec 04             	sub    $0x4,%esp
 804ac19:	57                   	push   %edi
 804ac1a:	53                   	push   %ebx
				 */

				switch(rules[i].token_type) {
					case NOTYPE: break;
					default: 
						tokens[nr_token].type = rules[i].token_type;
 804ac1b:	8d 4c ed 00          	lea    0x0(%ebp,%ebp,8),%ecx
						strncpy(tokens[nr_token].str, substr_start, substr_len);
						tokens[nr_token].str[substr_len] = '\0';
						nr_token++;
 804ac1f:	83 c5 01             	add    $0x1,%ebp
				 */

				switch(rules[i].token_type) {
					case NOTYPE: break;
					default: 
						tokens[nr_token].type = rules[i].token_type;
 804ac22:	8d 14 8d 00 00 00 00 	lea    0x0(,%ecx,4),%edx
 804ac29:	89 04 8d c0 83 0c 08 	mov    %eax,0x80c83c0(,%ecx,4)
						strncpy(tokens[nr_token].str, substr_start, substr_len);
 804ac30:	8d 82 c4 83 0c 08    	lea    0x80c83c4(%edx),%eax
 804ac36:	89 54 24 18          	mov    %edx,0x18(%esp)
 804ac3a:	50                   	push   %eax
 804ac3b:	e8 f0 de ff ff       	call   8048b30 <strncpy@plt>
						tokens[nr_token].str[substr_len] = '\0';
 804ac40:	8b 54 24 1c          	mov    0x1c(%esp),%edx
						nr_token++;
 804ac44:	83 c4 10             	add    $0x10,%esp
	int i;
	regmatch_t pmatch;
	
	nr_token = 0;

	while(e[position] != '\0') {
 804ac47:	8b 5c 24 08          	mov    0x8(%esp),%ebx
 804ac4b:	03 5c 24 40          	add    0x40(%esp),%ebx
					case NOTYPE: break;
					default: 
						tokens[nr_token].type = rules[i].token_type;
						strncpy(tokens[nr_token].str, substr_start, substr_len);
						tokens[nr_token].str[substr_len] = '\0';
						nr_token++;
 804ac4f:	89 2d 80 83 0c 08    	mov    %ebp,0x80c8380
				switch(rules[i].token_type) {
					case NOTYPE: break;
					default: 
						tokens[nr_token].type = rules[i].token_type;
						strncpy(tokens[nr_token].str, substr_start, substr_len);
						tokens[nr_token].str[substr_len] = '\0';
 804ac55:	c6 84 17 c4 83 0c 08 	movb   $0x0,0x80c83c4(%edi,%edx,1)
 804ac5c:	00 
	int i;
	regmatch_t pmatch;
	
	nr_token = 0;

	while(e[position] != '\0') {
 804ac5d:	80 3b 00             	cmpb   $0x0,(%ebx)
 804ac60:	0f 85 a8 fe ff ff    	jne    804ab0e <expr+0x2e>
		*success = false;
		return 0;
	}

	/* TODO: Insert codes to evaluate the expression. */
	return eval(0, nr_token-1, success);
 804ac66:	a1 80 83 0c 08       	mov    0x80c8380,%eax
 804ac6b:	83 ec 04             	sub    $0x4,%esp
 804ac6e:	ff 74 24 48          	pushl  0x48(%esp)
 804ac72:	83 e8 01             	sub    $0x1,%eax
 804ac75:	50                   	push   %eax
 804ac76:	6a 00                	push   $0x0
 804ac78:	e8 03 f9 ff ff       	call   804a580 <eval>
 804ac7d:	83 c4 10             	add    $0x10,%esp
}
 804ac80:	83 c4 2c             	add    $0x2c,%esp
 804ac83:	5b                   	pop    %ebx
 804ac84:	5e                   	pop    %esi
 804ac85:	5f                   	pop    %edi
 804ac86:	5d                   	pop    %ebp
 804ac87:	c3                   	ret    
 804ac88:	66 90                	xchg   %ax,%ax
 804ac8a:	66 90                	xchg   %ax,%ax
 804ac8c:	66 90                	xchg   %ax,%ax
 804ac8e:	66 90                	xchg   %ax,%ax

0804ac90 <print_bin_instr>:
char asm_buf[128];

/* Used with exception handling. */
jmp_buf jbuf;

void print_bin_instr(swaddr_t eip, int len) {
 804ac90:	55                   	push   %ebp
 804ac91:	57                   	push   %edi
 804ac92:	56                   	push   %esi
 804ac93:	53                   	push   %ebx
 804ac94:	83 ec 10             	sub    $0x10,%esp
 804ac97:	8b 5c 24 24          	mov    0x24(%esp),%ebx
 804ac9b:	8b 6c 24 28          	mov    0x28(%esp),%ebp
	int i;
	int l = sprintf(asm_buf, "%8x:   ", eip);
 804ac9f:	53                   	push   %ebx
 804aca0:	68 a0 f6 05 08       	push   $0x805f6a0
 804aca5:	68 80 89 0c 08       	push   $0x80c8980
 804acaa:	e8 e1 de ff ff       	call   8048b90 <sprintf@plt>
	for(i = 0; i < len; i ++) {
 804acaf:	83 c4 10             	add    $0x10,%esp
 804acb2:	85 ed                	test   %ebp,%ebp
/* Used with exception handling. */
jmp_buf jbuf;

void print_bin_instr(swaddr_t eip, int len) {
	int i;
	int l = sprintf(asm_buf, "%8x:   ", eip);
 804acb4:	89 c6                	mov    %eax,%esi
	for(i = 0; i < len; i ++) {
 804acb6:	7e 34                	jle    804acec <print_bin_instr+0x5c>
 804acb8:	8d 3c 2b             	lea    (%ebx,%ebp,1),%edi
 804acbb:	90                   	nop
 804acbc:	8d 74 26 00          	lea    0x0(%esi,%eiz,1),%esi

/* All function defined with 'make_helper' return the length of the operation. */
#define make_helper(name) int name(swaddr_t eip)

static inline uint32_t instr_fetch(swaddr_t addr, size_t len) {
	return swaddr_read(addr, len);
 804acc0:	83 ec 08             	sub    $0x8,%esp
 804acc3:	6a 01                	push   $0x1
 804acc5:	53                   	push   %ebx
 804acc6:	83 c3 01             	add    $0x1,%ebx
 804acc9:	e8 92 02 00 00       	call   804af60 <swaddr_read>
		l += sprintf(asm_buf + l, "%02x ", instr_fetch(eip + i, 1));
 804acce:	83 c4 0c             	add    $0xc,%esp
 804acd1:	50                   	push   %eax
 804acd2:	8d 86 80 89 0c 08    	lea    0x80c8980(%esi),%eax
 804acd8:	68 a8 f6 05 08       	push   $0x805f6a8
 804acdd:	50                   	push   %eax
 804acde:	e8 ad de ff ff       	call   8048b90 <sprintf@plt>
jmp_buf jbuf;

void print_bin_instr(swaddr_t eip, int len) {
	int i;
	int l = sprintf(asm_buf, "%8x:   ", eip);
	for(i = 0; i < len; i ++) {
 804ace3:	83 c4 10             	add    $0x10,%esp
		l += sprintf(asm_buf + l, "%02x ", instr_fetch(eip + i, 1));
 804ace6:	01 c6                	add    %eax,%esi
jmp_buf jbuf;

void print_bin_instr(swaddr_t eip, int len) {
	int i;
	int l = sprintf(asm_buf, "%8x:   ", eip);
	for(i = 0; i < len; i ++) {
 804ace8:	39 fb                	cmp    %edi,%ebx
 804acea:	75 d4                	jne    804acc0 <print_bin_instr+0x30>
		l += sprintf(asm_buf + l, "%02x ", instr_fetch(eip + i, 1));
	}
	sprintf(asm_buf + l, "%*.s", 50 - (12 + 3 * len), "");
 804acec:	8d 44 6d 00          	lea    0x0(%ebp,%ebp,2),%eax
 804acf0:	81 c6 80 89 0c 08    	add    $0x80c8980,%esi
 804acf6:	68 10 f1 05 08       	push   $0x805f110
 804acfb:	f7 d8                	neg    %eax
 804acfd:	83 c0 26             	add    $0x26,%eax
 804ad00:	50                   	push   %eax
 804ad01:	68 ae f6 05 08       	push   $0x805f6ae
 804ad06:	56                   	push   %esi
 804ad07:	e8 84 de ff ff       	call   8048b90 <sprintf@plt>
}
 804ad0c:	83 c4 1c             	add    $0x1c,%esp
 804ad0f:	5b                   	pop    %ebx
 804ad10:	5e                   	pop    %esi
 804ad11:	5f                   	pop    %edi
 804ad12:	5d                   	pop    %ebp
 804ad13:	c3                   	ret    
 804ad14:	8d b6 00 00 00 00    	lea    0x0(%esi),%esi
 804ad1a:	8d bf 00 00 00 00    	lea    0x0(%edi),%edi

0804ad20 <do_int3>:

/* This function will be called when an `int3' instruction is being executed. */
void do_int3() {
 804ad20:	83 ec 14             	sub    $0x14,%esp
	printf("\nHit breakpoint at eip = 0x%08x\n", cpu.eip);
 804ad23:	ff 35 e0 ae 8f 14    	pushl  0x148faee0
 804ad29:	68 b4 f6 05 08       	push   $0x805f6b4
 804ad2e:	e8 1d dc ff ff       	call   8048950 <printf@plt>
	nemu_state = STOP;
 804ad33:	c7 05 80 81 07 08 00 	movl   $0x0,0x8078180
 804ad3a:	00 00 00 
}
 804ad3d:	83 c4 1c             	add    $0x1c,%esp
 804ad40:	c3                   	ret    
 804ad41:	eb 0d                	jmp    804ad50 <cpu_exec>
 804ad43:	90                   	nop
 804ad44:	90                   	nop
 804ad45:	90                   	nop
 804ad46:	90                   	nop
 804ad47:	90                   	nop
 804ad48:	90                   	nop
 804ad49:	90                   	nop
 804ad4a:	90                   	nop
 804ad4b:	90                   	nop
 804ad4c:	90                   	nop
 804ad4d:	90                   	nop
 804ad4e:	90                   	nop
 804ad4f:	90                   	nop

0804ad50 <cpu_exec>:

/* Simulate how the CPU works. */
void cpu_exec(volatile uint32_t n) {
 804ad50:	56                   	push   %esi
 804ad51:	53                   	push   %ebx
 804ad52:	83 ec 14             	sub    $0x14,%esp
	if(nemu_state == END) {
 804ad55:	83 3d 80 81 07 08 02 	cmpl   $0x2,0x8078180
 804ad5c:	0f 84 5e 01 00 00    	je     804aec0 <cpu_exec+0x170>
		return;
	}
	nemu_state = RUNNING;

#ifdef DEBUG
	volatile uint32_t n_temp = n;
 804ad62:	8b 44 24 20          	mov    0x20(%esp),%eax
#endif

	setjmp(jbuf);
 804ad66:	83 ec 0c             	sub    $0xc,%esp
void cpu_exec(volatile uint32_t n) {
	if(nemu_state == END) {
		printf("Program execution has ended. To restart the program, exit NEMU and run again.\n");
		return;
	}
	nemu_state = RUNNING;
 804ad69:	c7 05 80 81 07 08 01 	movl   $0x1,0x8078180
 804ad70:	00 00 00 

#ifdef DEBUG
	volatile uint32_t n_temp = n;
 804ad73:	89 44 24 18          	mov    %eax,0x18(%esp)
#endif

	setjmp(jbuf);
 804ad77:	68 40 88 0c 08       	push   $0x80c8840
 804ad7c:	e8 ef db ff ff       	call   8048970 <_setjmp@plt>

	for(; n > 0; n --) {
 804ad81:	8b 44 24 30          	mov    0x30(%esp),%eax
 804ad85:	83 c4 10             	add    $0x10,%esp
 804ad88:	85 c0                	test   %eax,%eax
 804ad8a:	0f 84 15 01 00 00    	je     804aea5 <cpu_exec+0x155>
		}
#endif

		/* TODO: check watchpoints here. */
		bool flag = true;
		check_wp(&flag);
 804ad90:	8d 74 24 0b          	lea    0xb(%esp),%esi
 804ad94:	eb 2e                	jmp    804adc4 <cpu_exec+0x74>
 804ad96:	8d 76 00             	lea    0x0(%esi),%esi
 804ad99:	8d bc 27 00 00 00 00 	lea    0x0(%edi,%eiz,1),%edi
		if(!flag) {
			nemu_state = STOP;
			printf("\nHit breakpoint at eip = 0x%08x\n", cpu.eip);
		}

		if(nemu_state != RUNNING) { return; }
 804ada0:	83 3d 80 81 07 08 01 	cmpl   $0x1,0x8078180
 804ada7:	0f 85 f2 00 00 00    	jne    804ae9f <cpu_exec+0x14f>
	volatile uint32_t n_temp = n;
#endif

	setjmp(jbuf);

	for(; n > 0; n --) {
 804adad:	8b 44 24 20          	mov    0x20(%esp),%eax
 804adb1:	83 e8 01             	sub    $0x1,%eax
 804adb4:	89 44 24 20          	mov    %eax,0x20(%esp)
 804adb8:	8b 44 24 20          	mov    0x20(%esp),%eax
 804adbc:	85 c0                	test   %eax,%eax
 804adbe:	0f 84 ec 00 00 00    	je     804aeb0 <cpu_exec+0x160>
#ifdef DEBUG
		swaddr_t eip_temp = cpu.eip;
		if((n & 0xffff) == 0) {
 804adc4:	8b 54 24 20          	mov    0x20(%esp),%edx

	setjmp(jbuf);

	for(; n > 0; n --) {
#ifdef DEBUG
		swaddr_t eip_temp = cpu.eip;
 804adc8:	8b 1d e0 ae 8f 14    	mov    0x148faee0,%ebx
		if((n & 0xffff) == 0) {
 804adce:	66 85 d2             	test   %dx,%dx
 804add1:	89 d8                	mov    %ebx,%eax
 804add3:	75 18                	jne    804aded <cpu_exec+0x9d>
			/* Output some dots while executing the program. */
			fputc('.', stderr);
 804add5:	83 ec 08             	sub    $0x8,%esp
 804add8:	ff 35 00 5c 07 08    	pushl  0x8075c00
 804adde:	6a 2e                	push   $0x2e
 804ade0:	e8 8b dd ff ff       	call   8048b70 <fputc@plt>
 804ade5:	a1 e0 ae 8f 14       	mov    0x148faee0,%eax
 804adea:	83 c4 10             	add    $0x10,%esp
		}
#endif

		/* Execute one instruction, including instruction fetch,
		 * instruction decode, and the actual execution. */
		int instr_len = exec(cpu.eip);
 804aded:	83 ec 0c             	sub    $0xc,%esp
 804adf0:	50                   	push   %eax
 804adf1:	e8 5a 22 00 00       	call   804d050 <exec>
 804adf6:	5a                   	pop    %edx
 804adf7:	59                   	pop    %ecx

		cpu.eip += instr_len;

#ifdef DEBUG
		print_bin_instr(eip_temp, instr_len);
 804adf8:	50                   	push   %eax
 804adf9:	53                   	push   %ebx

		/* Execute one instruction, including instruction fetch,
		 * instruction decode, and the actual execution. */
		int instr_len = exec(cpu.eip);

		cpu.eip += instr_len;
 804adfa:	01 05 e0 ae 8f 14    	add    %eax,0x148faee0

#ifdef DEBUG
		print_bin_instr(eip_temp, instr_len);
 804ae00:	e8 8b fe ff ff       	call   804ac90 <print_bin_instr>
 804ae05:	5b                   	pop    %ebx
 804ae06:	58                   	pop    %eax
		strcat(asm_buf, assembly);
 804ae07:	68 00 89 0c 08       	push   $0x80c8900
 804ae0c:	68 80 89 0c 08       	push   $0x80c8980
 804ae11:	e8 0a dc ff ff       	call   8048a20 <strcat@plt>
		Log_write("%s\n", asm_buf);
 804ae16:	83 c4 0c             	add    $0xc,%esp
 804ae19:	68 80 89 0c 08       	push   $0x80c8980
 804ae1e:	68 be f2 05 08       	push   $0x805f2be
 804ae23:	ff 35 28 5c 07 08    	pushl  0x8075c28
 804ae29:	e8 92 dc ff ff       	call   8048ac0 <fprintf@plt>
 804ae2e:	58                   	pop    %eax
 804ae2f:	ff 35 28 5c 07 08    	pushl  0x8075c28
 804ae35:	e8 26 db ff ff       	call   8048960 <fflush@plt>
 804ae3a:	83 c4 10             	add    $0x10,%esp
		if(n_temp < MAX_INSTR_TO_PRINT) {
 804ae3d:	8b 44 24 0c          	mov    0xc(%esp),%eax
 804ae41:	83 f8 09             	cmp    $0x9,%eax
 804ae44:	77 10                	ja     804ae56 <cpu_exec+0x106>
			printf("%s\n", asm_buf);
 804ae46:	83 ec 0c             	sub    $0xc,%esp
 804ae49:	68 80 89 0c 08       	push   $0x80c8980
 804ae4e:	e8 0d dc ff ff       	call   8048a60 <puts@plt>
 804ae53:	83 c4 10             	add    $0x10,%esp
		}
#endif

		/* TODO: check watchpoints here. */
		bool flag = true;
 804ae56:	c6 44 24 0b 01       	movb   $0x1,0xb(%esp)
		check_wp(&flag);
 804ae5b:	83 ec 0c             	sub    $0xc,%esp
 804ae5e:	56                   	push   %esi
 804ae5f:	e8 cc f0 ff ff       	call   8049f30 <check_wp>
 804ae64:	83 c4 10             	add    $0x10,%esp
		if(!flag) {
 804ae67:	80 7c 24 0b 00       	cmpb   $0x0,0xb(%esp)
 804ae6c:	0f 85 2e ff ff ff    	jne    804ada0 <cpu_exec+0x50>
			nemu_state = STOP;
			printf("\nHit breakpoint at eip = 0x%08x\n", cpu.eip);
 804ae72:	83 ec 08             	sub    $0x8,%esp
 804ae75:	ff 35 e0 ae 8f 14    	pushl  0x148faee0

		/* TODO: check watchpoints here. */
		bool flag = true;
		check_wp(&flag);
		if(!flag) {
			nemu_state = STOP;
 804ae7b:	c7 05 80 81 07 08 00 	movl   $0x0,0x8078180
 804ae82:	00 00 00 
			printf("\nHit breakpoint at eip = 0x%08x\n", cpu.eip);
 804ae85:	68 b4 f6 05 08       	push   $0x805f6b4
 804ae8a:	e8 c1 da ff ff       	call   8048950 <printf@plt>
 804ae8f:	83 c4 10             	add    $0x10,%esp
		}

		if(nemu_state != RUNNING) { return; }
 804ae92:	83 3d 80 81 07 08 01 	cmpl   $0x1,0x8078180
 804ae99:	0f 84 0e ff ff ff    	je     804adad <cpu_exec+0x5d>
	}

	if(nemu_state == RUNNING) { 
		nemu_state = STOP; 
	}
}
 804ae9f:	83 c4 14             	add    $0x14,%esp
 804aea2:	5b                   	pop    %ebx
 804aea3:	5e                   	pop    %esi
 804aea4:	c3                   	ret    
		}

		if(nemu_state != RUNNING) { return; }
	}

	if(nemu_state == RUNNING) { 
 804aea5:	83 3d 80 81 07 08 01 	cmpl   $0x1,0x8078180
 804aeac:	75 f1                	jne    804ae9f <cpu_exec+0x14f>
 804aeae:	66 90                	xchg   %ax,%ax
		nemu_state = STOP; 
 804aeb0:	c7 05 80 81 07 08 00 	movl   $0x0,0x8078180
 804aeb7:	00 00 00 
	}
}
 804aeba:	83 c4 14             	add    $0x14,%esp
 804aebd:	5b                   	pop    %ebx
 804aebe:	5e                   	pop    %esi
 804aebf:	c3                   	ret    
}

/* Simulate how the CPU works. */
void cpu_exec(volatile uint32_t n) {
	if(nemu_state == END) {
		printf("Program execution has ended. To restart the program, exit NEMU and run again.\n");
 804aec0:	83 ec 0c             	sub    $0xc,%esp
 804aec3:	68 d8 f6 05 08       	push   $0x805f6d8
 804aec8:	e8 93 db ff ff       	call   8048a60 <puts@plt>
 804aecd:	83 c4 10             	add    $0x10,%esp
	}

	if(nemu_state == RUNNING) { 
		nemu_state = STOP; 
	}
}
 804aed0:	83 c4 14             	add    $0x14,%esp
 804aed3:	5b                   	pop    %ebx
 804aed4:	5e                   	pop    %esi
 804aed5:	c3                   	ret    
 804aed6:	66 90                	xchg   %ax,%ax
 804aed8:	66 90                	xchg   %ax,%ax
 804aeda:	66 90                	xchg   %ax,%ax
 804aedc:	66 90                	xchg   %ax,%ax
 804aede:	66 90                	xchg   %ax,%ax

0804aee0 <hwaddr_read>:
uint32_t l1cache_read(hwaddr_t, size_t);
void l1cache_write(hwaddr_t, size_t, uint32_t);

/* Memory accessing interfaces */

uint32_t hwaddr_read(hwaddr_t addr, size_t len) {
 804aee0:	53                   	push   %ebx
 804aee1:	83 ec 10             	sub    $0x10,%esp
 804aee4:	8b 5c 24 1c          	mov    0x1c(%esp),%ebx
	return l1cache_read(addr, len) & (~0u >> ((4 - len) << 3));
 804aee8:	53                   	push   %ebx
 804aee9:	ff 74 24 1c          	pushl  0x1c(%esp)
 804aeed:	e8 1e 0c 00 00       	call   804bb10 <l1cache_read>
 804aef2:	b9 04 00 00 00       	mov    $0x4,%ecx
 804aef7:	ba ff ff ff ff       	mov    $0xffffffff,%edx
	//return dram_read(addr, len) & (~0u >> ((4 - len) << 3));
}
 804aefc:	83 c4 18             	add    $0x18,%esp
void l1cache_write(hwaddr_t, size_t, uint32_t);

/* Memory accessing interfaces */

uint32_t hwaddr_read(hwaddr_t addr, size_t len) {
	return l1cache_read(addr, len) & (~0u >> ((4 - len) << 3));
 804aeff:	29 d9                	sub    %ebx,%ecx
 804af01:	c1 e1 03             	shl    $0x3,%ecx
 804af04:	d3 ea                	shr    %cl,%edx
 804af06:	21 d0                	and    %edx,%eax
	//return dram_read(addr, len) & (~0u >> ((4 - len) << 3));
}
 804af08:	5b                   	pop    %ebx
 804af09:	c3                   	ret    
 804af0a:	8d b6 00 00 00 00    	lea    0x0(%esi),%esi

0804af10 <hwaddr_write>:

void hwaddr_write(hwaddr_t addr, size_t len, uint32_t data) {
	l1cache_write(addr, len, data);
 804af10:	e9 9b 0d 00 00       	jmp    804bcb0 <l1cache_write>
 804af15:	8d 74 26 00          	lea    0x0(%esi,%eiz,1),%esi
 804af19:	8d bc 27 00 00 00 00 	lea    0x0(%edi,%eiz,1),%edi

0804af20 <lnaddr_read>:
	//dram_write(addr, len, data);
}

uint32_t lnaddr_read(lnaddr_t addr, size_t len) {
 804af20:	53                   	push   %ebx
 804af21:	83 ec 10             	sub    $0x10,%esp
 804af24:	8b 5c 24 1c          	mov    0x1c(%esp),%ebx
void l1cache_write(hwaddr_t, size_t, uint32_t);

/* Memory accessing interfaces */

uint32_t hwaddr_read(hwaddr_t addr, size_t len) {
	return l1cache_read(addr, len) & (~0u >> ((4 - len) << 3));
 804af28:	53                   	push   %ebx
 804af29:	ff 74 24 1c          	pushl  0x1c(%esp)
 804af2d:	e8 de 0b 00 00       	call   804bb10 <l1cache_read>
 804af32:	b9 04 00 00 00       	mov    $0x4,%ecx
 804af37:	ba ff ff ff ff       	mov    $0xffffffff,%edx
	//dram_write(addr, len, data);
}

uint32_t lnaddr_read(lnaddr_t addr, size_t len) {
	return hwaddr_read(addr, len);
}
 804af3c:	83 c4 18             	add    $0x18,%esp
void l1cache_write(hwaddr_t, size_t, uint32_t);

/* Memory accessing interfaces */

uint32_t hwaddr_read(hwaddr_t addr, size_t len) {
	return l1cache_read(addr, len) & (~0u >> ((4 - len) << 3));
 804af3f:	29 d9                	sub    %ebx,%ecx
 804af41:	c1 e1 03             	shl    $0x3,%ecx
 804af44:	d3 ea                	shr    %cl,%edx
 804af46:	21 d0                	and    %edx,%eax
	//dram_write(addr, len, data);
}

uint32_t lnaddr_read(lnaddr_t addr, size_t len) {
	return hwaddr_read(addr, len);
}
 804af48:	5b                   	pop    %ebx
 804af49:	c3                   	ret    
 804af4a:	8d b6 00 00 00 00    	lea    0x0(%esi),%esi

0804af50 <lnaddr_write>:
	return l1cache_read(addr, len) & (~0u >> ((4 - len) << 3));
	//return dram_read(addr, len) & (~0u >> ((4 - len) << 3));
}

void hwaddr_write(hwaddr_t addr, size_t len, uint32_t data) {
	l1cache_write(addr, len, data);
 804af50:	e9 5b 0d 00 00       	jmp    804bcb0 <l1cache_write>
 804af55:	8d 74 26 00          	lea    0x0(%esi,%eiz,1),%esi
 804af59:	8d bc 27 00 00 00 00 	lea    0x0(%edi,%eiz,1),%edi

0804af60 <swaddr_read>:

void lnaddr_write(lnaddr_t addr, size_t len, uint32_t data) {
	hwaddr_write(addr, len, data);
}

uint32_t swaddr_read(swaddr_t addr, size_t len) {
 804af60:	53                   	push   %ebx
 804af61:	83 ec 08             	sub    $0x8,%esp
 804af64:	8b 5c 24 14          	mov    0x14(%esp),%ebx
#ifdef DEBUG
	assert(len == 1 || len == 2 || len == 4);
 804af68:	8d 43 ff             	lea    -0x1(%ebx),%eax
 804af6b:	83 f8 01             	cmp    $0x1,%eax
 804af6e:	76 05                	jbe    804af75 <swaddr_read+0x15>
 804af70:	83 fb 04             	cmp    $0x4,%ebx
 804af73:	75 25                	jne    804af9a <swaddr_read+0x3a>
void l1cache_write(hwaddr_t, size_t, uint32_t);

/* Memory accessing interfaces */

uint32_t hwaddr_read(hwaddr_t addr, size_t len) {
	return l1cache_read(addr, len) & (~0u >> ((4 - len) << 3));
 804af75:	83 ec 08             	sub    $0x8,%esp
 804af78:	53                   	push   %ebx
 804af79:	ff 74 24 1c          	pushl  0x1c(%esp)
 804af7d:	e8 8e 0b 00 00       	call   804bb10 <l1cache_read>
 804af82:	b9 04 00 00 00       	mov    $0x4,%ecx
 804af87:	ba ff ff ff ff       	mov    $0xffffffff,%edx
uint32_t swaddr_read(swaddr_t addr, size_t len) {
#ifdef DEBUG
	assert(len == 1 || len == 2 || len == 4);
#endif
	return lnaddr_read(addr, len);
}
 804af8c:	83 c4 18             	add    $0x18,%esp
void l1cache_write(hwaddr_t, size_t, uint32_t);

/* Memory accessing interfaces */

uint32_t hwaddr_read(hwaddr_t addr, size_t len) {
	return l1cache_read(addr, len) & (~0u >> ((4 - len) << 3));
 804af8f:	29 d9                	sub    %ebx,%ecx
 804af91:	c1 e1 03             	shl    $0x3,%ecx
 804af94:	d3 ea                	shr    %cl,%edx
 804af96:	21 d0                	and    %edx,%eax
uint32_t swaddr_read(swaddr_t addr, size_t len) {
#ifdef DEBUG
	assert(len == 1 || len == 2 || len == 4);
#endif
	return lnaddr_read(addr, len);
}
 804af98:	5b                   	pop    %ebx
 804af99:	c3                   	ret    
	hwaddr_write(addr, len, data);
}

uint32_t swaddr_read(swaddr_t addr, size_t len) {
#ifdef DEBUG
	assert(len == 1 || len == 2 || len == 4);
 804af9a:	68 6e f7 05 08       	push   $0x805f76e
 804af9f:	6a 1e                	push   $0x1e
 804afa1:	68 26 f7 05 08       	push   $0x805f726
 804afa6:	68 40 f7 05 08       	push   $0x805f740
 804afab:	e8 00 dc ff ff       	call   8048bb0 <__assert_fail@plt>

0804afb0 <swaddr_write>:
#endif
	return lnaddr_read(addr, len);
}

void swaddr_write(swaddr_t addr, size_t len, uint32_t data) {
 804afb0:	53                   	push   %ebx
 804afb1:	83 ec 08             	sub    $0x8,%esp
 804afb4:	8b 44 24 14          	mov    0x14(%esp),%eax
 804afb8:	8b 4c 24 10          	mov    0x10(%esp),%ecx
 804afbc:	8b 5c 24 18          	mov    0x18(%esp),%ebx
#ifdef DEBUG
	assert(len == 1 || len == 2 || len == 4);
 804afc0:	8d 50 ff             	lea    -0x1(%eax),%edx
 804afc3:	83 fa 01             	cmp    $0x1,%edx
 804afc6:	76 05                	jbe    804afcd <swaddr_write+0x1d>
 804afc8:	83 f8 04             	cmp    $0x4,%eax
 804afcb:	75 15                	jne    804afe2 <swaddr_write+0x32>
	return l1cache_read(addr, len) & (~0u >> ((4 - len) << 3));
	//return dram_read(addr, len) & (~0u >> ((4 - len) << 3));
}

void hwaddr_write(hwaddr_t addr, size_t len, uint32_t data) {
	l1cache_write(addr, len, data);
 804afcd:	89 5c 24 18          	mov    %ebx,0x18(%esp)
 804afd1:	89 44 24 14          	mov    %eax,0x14(%esp)
 804afd5:	89 4c 24 10          	mov    %ecx,0x10(%esp)
void swaddr_write(swaddr_t addr, size_t len, uint32_t data) {
#ifdef DEBUG
	assert(len == 1 || len == 2 || len == 4);
#endif
	lnaddr_write(addr, len, data);
}
 804afd9:	83 c4 08             	add    $0x8,%esp
 804afdc:	5b                   	pop    %ebx
	return l1cache_read(addr, len) & (~0u >> ((4 - len) << 3));
	//return dram_read(addr, len) & (~0u >> ((4 - len) << 3));
}

void hwaddr_write(hwaddr_t addr, size_t len, uint32_t data) {
	l1cache_write(addr, len, data);
 804afdd:	e9 ce 0c 00 00       	jmp    804bcb0 <l1cache_write>
	return lnaddr_read(addr, len);
}

void swaddr_write(swaddr_t addr, size_t len, uint32_t data) {
#ifdef DEBUG
	assert(len == 1 || len == 2 || len == 4);
 804afe2:	68 61 f7 05 08       	push   $0x805f761
 804afe7:	6a 25                	push   $0x25
 804afe9:	68 26 f7 05 08       	push   $0x805f726
 804afee:	68 40 f7 05 08       	push   $0x805f740
 804aff3:	e8 b8 db ff ff       	call   8048bb0 <__assert_fail@plt>
 804aff8:	66 90                	xchg   %ax,%ax
 804affa:	66 90                	xchg   %ax,%ax
 804affc:	66 90                	xchg   %ax,%ax
 804affe:	66 90                	xchg   %ax,%ax

0804b000 <check_cache>:

static uint8_t check_cache(hwaddr_t addr) {
	l2cache_addr temp;
	temp.addr = addr;
	uint32_t tag = temp.tag;
	uint32_t set = temp.set;
 804b000:	89 c2                	mov    %eax,%edx
			l2cache[i][j].dirty = false;
		}
	}
}

static uint8_t check_cache(hwaddr_t addr) {
 804b002:	55                   	push   %ebp
 804b003:	57                   	push   %edi
	l2cache_addr temp;
	temp.addr = addr;
	uint32_t tag = temp.tag;
	uint32_t set = temp.set;
 804b004:	c1 ea 06             	shr    $0x6,%edx
			l2cache[i][j].dirty = false;
		}
	}
}

static uint8_t check_cache(hwaddr_t addr) {
 804b007:	56                   	push   %esi
	l2cache_addr temp;
	temp.addr = addr;
	uint32_t tag = temp.tag;
 804b008:	89 c5                	mov    %eax,%ebp
	uint32_t set = temp.set;
 804b00a:	0f b7 ca             	movzwl %dx,%ecx
			l2cache[i][j].dirty = false;
		}
	}
}

static uint8_t check_cache(hwaddr_t addr) {
 804b00d:	53                   	push   %ebx
	l2cache_addr temp;
	temp.addr = addr;
	uint32_t tag = temp.tag;
 804b00e:	c1 ed 16             	shr    $0x16,%ebp
 804b011:	8d 34 c9             	lea    (%ecx,%ecx,8),%esi
 804b014:	83 e5 1f             	and    $0x1f,%ebp
			l2cache[i][j].dirty = false;
		}
	}
}

static uint8_t check_cache(hwaddr_t addr) {
 804b017:	83 ec 5c             	sub    $0x5c,%esp
	l2cache_addr temp;
	temp.addr = addr;
	uint32_t tag = temp.tag;
 804b01a:	89 eb                	mov    %ebp,%ebx
 804b01c:	c1 e6 07             	shl    $0x7,%esi
 804b01f:	89 6c 24 04          	mov    %ebp,0x4(%esp)
	uint32_t set = temp.set;
	uint8_t way = 0;
	int i;
	bool success = false;
	for(way = 0; way < CACHE_WAY_SIZE; way ++)
 804b023:	31 ed                	xor    %ebp,%ebp
 804b025:	8d be 00 8a 0c 08    	lea    0x80c8a00(%esi),%edi

static uint8_t check_cache(hwaddr_t addr) {
	l2cache_addr temp;
	temp.addr = addr;
	uint32_t tag = temp.tag;
	uint32_t set = temp.set;
 804b02b:	89 0c 24             	mov    %ecx,(%esp)
 804b02e:	89 74 24 08          	mov    %esi,0x8(%esp)
	uint8_t way = 0;
	int i;
	bool success = false;
	for(way = 0; way < CACHE_WAY_SIZE; way ++)
 804b032:	89 e9                	mov    %ebp,%ecx

static uint8_t check_cache(hwaddr_t addr) {
	l2cache_addr temp;
	temp.addr = addr;
	uint32_t tag = temp.tag;
	uint32_t set = temp.set;
 804b034:	89 fa                	mov    %edi,%edx
 804b036:	8d 76 00             	lea    0x0(%esi),%esi
 804b039:	8d bc 27 00 00 00 00 	lea    0x0(%edi,%eiz,1),%edi
	uint8_t way = 0;
	int i;
	bool success = false;
	for(way = 0; way < CACHE_WAY_SIZE; way ++)
		if(l2cache[set][way].valid && (l2cache[set][way].tag == tag)) {
 804b040:	80 7a 44 00          	cmpb   $0x0,0x44(%edx)
 804b044:	74 09                	je     804b04f <check_cache+0x4f>
 804b046:	39 5a 40             	cmp    %ebx,0x40(%edx)
 804b049:	0f 84 80 01 00 00    	je     804b1cf <check_cache+0x1cf>
	uint32_t tag = temp.tag;
	uint32_t set = temp.set;
	uint8_t way = 0;
	int i;
	bool success = false;
	for(way = 0; way < CACHE_WAY_SIZE; way ++)
 804b04f:	83 c1 01             	add    $0x1,%ecx
 804b052:	83 c2 48             	add    $0x48,%edx
 804b055:	80 f9 10             	cmp    $0x10,%cl
 804b058:	75 e6                	jne    804b040 <check_cache+0x40>
			break;
		}

	if(!success) {
		uint8_t temp1[CACHE_BLOCK_SIZE];
		hwaddr_t addr_temp = addr & ~CACHE_BLOCK_MASK;
 804b05a:	83 e0 c0             	and    $0xffffffc0,%eax
 804b05d:	8d 6c 24 10          	lea    0x10(%esp),%ebp
 804b061:	8d 74 24 50          	lea    0x50(%esp),%esi
 804b065:	89 c3                	mov    %eax,%ebx
 804b067:	89 44 24 0c          	mov    %eax,0xc(%esp)
 804b06b:	29 eb                	sub    %ebp,%ebx
 804b06d:	8d 76 00             	lea    0x0(%esi),%esi
 804b070:	8d 04 2b             	lea    (%ebx,%ebp,1),%eax
		for(i = 0; i < CACHE_BLOCK_SIZE; i ++) {
			temp1[i] = (uint8_t)(dram_read(addr_temp + i , 1) & 0xff);
 804b073:	83 ec 08             	sub    $0x8,%esp
 804b076:	83 c5 01             	add    $0x1,%ebp
 804b079:	6a 01                	push   $0x1
 804b07b:	50                   	push   %eax
 804b07c:	e8 2f 08 00 00       	call   804b8b0 <dram_read>
 804b081:	88 45 ff             	mov    %al,-0x1(%ebp)
		}

	if(!success) {
		uint8_t temp1[CACHE_BLOCK_SIZE];
		hwaddr_t addr_temp = addr & ~CACHE_BLOCK_MASK;
		for(i = 0; i < CACHE_BLOCK_SIZE; i ++) {
 804b084:	83 c4 10             	add    $0x10,%esp
 804b087:	39 f5                	cmp    %esi,%ebp
 804b089:	75 e5                	jne    804b070 <check_cache+0x70>
 804b08b:	31 db                	xor    %ebx,%ebx
 804b08d:	8d 76 00             	lea    0x0(%esi),%esi
			temp1[i] = (uint8_t)(dram_read(addr_temp + i , 1) & 0xff);
		}
		for(way = 0; way < CACHE_WAY_SIZE; way ++)
			if(!l2cache[set][way].valid) break;
 804b090:	80 7f 44 00          	cmpb   $0x0,0x44(%edi)
 804b094:	89 dd                	mov    %ebx,%ebp
 804b096:	0f 84 92 00 00 00    	je     804b12e <check_cache+0x12e>
 804b09c:	83 c3 01             	add    $0x1,%ebx
 804b09f:	83 c7 48             	add    $0x48,%edi
		uint8_t temp1[CACHE_BLOCK_SIZE];
		hwaddr_t addr_temp = addr & ~CACHE_BLOCK_MASK;
		for(i = 0; i < CACHE_BLOCK_SIZE; i ++) {
			temp1[i] = (uint8_t)(dram_read(addr_temp + i , 1) & 0xff);
		}
		for(way = 0; way < CACHE_WAY_SIZE; way ++)
 804b0a2:	83 fb 10             	cmp    $0x10,%ebx
 804b0a5:	75 e9                	jne    804b090 <check_cache+0x90>
			if(!l2cache[set][way].valid) break;
		if(way == CACHE_WAY_SIZE) way = rand() & (CACHE_WAY_SIZE - 1);
 804b0a7:	e8 a4 da ff ff       	call   8048b50 <rand@plt>
 804b0ac:	89 c5                	mov    %eax,%ebp
		if(l2cache[set][way].valid && l2cache[set][way].dirty) {
 804b0ae:	8b 0c 24             	mov    (%esp),%ecx
		for(i = 0; i < CACHE_BLOCK_SIZE; i ++) {
			temp1[i] = (uint8_t)(dram_read(addr_temp + i , 1) & 0xff);
		}
		for(way = 0; way < CACHE_WAY_SIZE; way ++)
			if(!l2cache[set][way].valid) break;
		if(way == CACHE_WAY_SIZE) way = rand() & (CACHE_WAY_SIZE - 1);
 804b0b1:	83 e5 0f             	and    $0xf,%ebp
		if(l2cache[set][way].valid && l2cache[set][way].dirty) {
 804b0b4:	89 e8                	mov    %ebp,%eax
 804b0b6:	0f b6 d8             	movzbl %al,%ebx
 804b0b9:	8d 14 c9             	lea    (%ecx,%ecx,8),%edx
 804b0bc:	8d 04 db             	lea    (%ebx,%ebx,8),%eax
 804b0bf:	c1 e2 07             	shl    $0x7,%edx
 804b0c2:	c1 e0 03             	shl    $0x3,%eax
 804b0c5:	8d 94 10 40 8a 0c 08 	lea    0x80c8a40(%eax,%edx,1),%edx
 804b0cc:	80 7a 04 00          	cmpb   $0x0,0x4(%edx)
 804b0d0:	74 5c                	je     804b12e <check_cache+0x12e>
 804b0d2:	80 7a 05 00          	cmpb   $0x0,0x5(%edx)
 804b0d6:	74 56                	je     804b12e <check_cache+0x12e>
 804b0d8:	8b 4c 24 0c          	mov    0xc(%esp),%ecx
 804b0dc:	8b 74 24 08          	mov    0x8(%esp),%esi
 804b0e0:	89 5c 24 08          	mov    %ebx,0x8(%esp)
 804b0e4:	89 cf                	mov    %ecx,%edi
 804b0e6:	29 ce                	sub    %ecx,%esi
 804b0e8:	89 cb                	mov    %ecx,%ebx
 804b0ea:	83 c7 40             	add    $0x40,%edi
 804b0ed:	01 c6                	add    %eax,%esi
 804b0ef:	89 fa                	mov    %edi,%edx
 804b0f1:	89 d7                	mov    %edx,%edi
 804b0f3:	90                   	nop
 804b0f4:	8d 74 26 00          	lea    0x0(%esi,%eiz,1),%esi
			for(i = 0; i < CACHE_BLOCK_SIZE; i ++) {
				dram_write(addr_temp + i, 1, l2cache[set][way].buf[i]);
 804b0f8:	0f b6 94 1e 00 8a 0c 	movzbl 0x80c8a00(%esi,%ebx,1),%edx
 804b0ff:	08 
 804b100:	83 ec 04             	sub    $0x4,%esp
 804b103:	52                   	push   %edx
 804b104:	6a 01                	push   $0x1
 804b106:	53                   	push   %ebx
 804b107:	83 c3 01             	add    $0x1,%ebx
 804b10a:	e8 e1 07 00 00       	call   804b8f0 <dram_write>
		}
		for(way = 0; way < CACHE_WAY_SIZE; way ++)
			if(!l2cache[set][way].valid) break;
		if(way == CACHE_WAY_SIZE) way = rand() & (CACHE_WAY_SIZE - 1);
		if(l2cache[set][way].valid && l2cache[set][way].dirty) {
			for(i = 0; i < CACHE_BLOCK_SIZE; i ++) {
 804b10f:	83 c4 10             	add    $0x10,%esp
 804b112:	39 fb                	cmp    %edi,%ebx
 804b114:	75 e2                	jne    804b0f8 <check_cache+0xf8>
				dram_write(addr_temp + i, 1, l2cache[set][way].buf[i]);
			}
			l2cache[set][way].dirty = false;
 804b116:	8b 04 24             	mov    (%esp),%eax
 804b119:	8b 5c 24 08          	mov    0x8(%esp),%ebx
 804b11d:	8d 04 c0             	lea    (%eax,%eax,8),%eax
 804b120:	8d 14 db             	lea    (%ebx,%ebx,8),%edx
 804b123:	c1 e0 07             	shl    $0x7,%eax
 804b126:	c6 84 d0 45 8a 0c 08 	movb   $0x0,0x80c8a45(%eax,%edx,8)
 804b12d:	00 
		}
		memcpy(l2cache[set][way].buf, temp1, CACHE_BLOCK_SIZE);
 804b12e:	8b 04 24             	mov    (%esp),%eax
 804b131:	8d 14 db             	lea    (%ebx,%ebx,8),%edx
 804b134:	8b 5c 24 10          	mov    0x10(%esp),%ebx
 804b138:	8d 04 c0             	lea    (%eax,%eax,8),%eax
 804b13b:	c1 e0 07             	shl    $0x7,%eax
 804b13e:	8d 14 d0             	lea    (%eax,%edx,8),%edx
 804b141:	8d 82 00 8a 0c 08    	lea    0x80c8a00(%edx),%eax
 804b147:	89 9a 00 8a 0c 08    	mov    %ebx,0x80c8a00(%edx)
 804b14d:	8b 54 24 14          	mov    0x14(%esp),%edx
 804b151:	89 50 04             	mov    %edx,0x4(%eax)
 804b154:	8b 54 24 18          	mov    0x18(%esp),%edx
 804b158:	89 50 08             	mov    %edx,0x8(%eax)
 804b15b:	8b 54 24 1c          	mov    0x1c(%esp),%edx
 804b15f:	89 50 0c             	mov    %edx,0xc(%eax)
 804b162:	8b 54 24 20          	mov    0x20(%esp),%edx
 804b166:	89 50 10             	mov    %edx,0x10(%eax)
 804b169:	8b 54 24 24          	mov    0x24(%esp),%edx
 804b16d:	89 50 14             	mov    %edx,0x14(%eax)
 804b170:	8b 54 24 28          	mov    0x28(%esp),%edx
 804b174:	89 50 18             	mov    %edx,0x18(%eax)
 804b177:	8b 54 24 2c          	mov    0x2c(%esp),%edx
 804b17b:	89 50 1c             	mov    %edx,0x1c(%eax)
 804b17e:	8b 54 24 30          	mov    0x30(%esp),%edx
 804b182:	89 50 20             	mov    %edx,0x20(%eax)
 804b185:	8b 54 24 34          	mov    0x34(%esp),%edx
 804b189:	89 50 24             	mov    %edx,0x24(%eax)
 804b18c:	8b 54 24 38          	mov    0x38(%esp),%edx
 804b190:	89 50 28             	mov    %edx,0x28(%eax)
 804b193:	8b 54 24 3c          	mov    0x3c(%esp),%edx
 804b197:	89 50 2c             	mov    %edx,0x2c(%eax)
 804b19a:	8b 54 24 40          	mov    0x40(%esp),%edx
 804b19e:	89 50 30             	mov    %edx,0x30(%eax)
 804b1a1:	8b 54 24 44          	mov    0x44(%esp),%edx
 804b1a5:	89 50 34             	mov    %edx,0x34(%eax)
 804b1a8:	8b 54 24 48          	mov    0x48(%esp),%edx
 804b1ac:	89 50 38             	mov    %edx,0x38(%eax)
 804b1af:	8b 54 24 4c          	mov    0x4c(%esp),%edx
 804b1b3:	89 50 3c             	mov    %edx,0x3c(%eax)
		l2cache[set][way].valid = true;
 804b1b6:	c6 40 44 01          	movb   $0x1,0x44(%eax)
		l2cache[set][way].dirty = false;
		l2cache[set][way].tag = tag;
 804b1ba:	8b 7c 24 04          	mov    0x4(%esp),%edi
			}
			l2cache[set][way].dirty = false;
		}
		memcpy(l2cache[set][way].buf, temp1, CACHE_BLOCK_SIZE);
		l2cache[set][way].valid = true;
		l2cache[set][way].dirty = false;
 804b1be:	c6 40 45 00          	movb   $0x0,0x45(%eax)
		l2cache[set][way].tag = tag;
 804b1c2:	89 78 40             	mov    %edi,0x40(%eax)
	}	
	else {
		//Log("Hit");
	}
	return way;
}
 804b1c5:	83 c4 5c             	add    $0x5c,%esp
 804b1c8:	89 e8                	mov    %ebp,%eax
 804b1ca:	5b                   	pop    %ebx
 804b1cb:	5e                   	pop    %esi
 804b1cc:	5f                   	pop    %edi
 804b1cd:	5d                   	pop    %ebp
 804b1ce:	c3                   	ret    
 804b1cf:	83 c4 5c             	add    $0x5c,%esp
 804b1d2:	89 cd                	mov    %ecx,%ebp
 804b1d4:	5b                   	pop    %ebx
 804b1d5:	89 e8                	mov    %ebp,%eax
 804b1d7:	5e                   	pop    %esi
 804b1d8:	5f                   	pop    %edi
 804b1d9:	5d                   	pop    %ebp
 804b1da:	c3                   	ret    
 804b1db:	90                   	nop
 804b1dc:	8d 74 26 00          	lea    0x0(%esi,%eiz,1),%esi

0804b1e0 <init_l2cache>:
l2CB l2cache[CACHE_SET_SIZE][CACHE_WAY_SIZE];

uint32_t dram_read(hwaddr_t addr, size_t len);
void dram_write(hwaddr_t addr, size_t len, uint32_t data);

void init_l2cache() {
 804b1e0:	b8 00 8a 0c 08       	mov    $0x80c8a00,%eax
 804b1e5:	b9 00 8a 8c 0c       	mov    $0xc8c8a00,%ecx
 804b1ea:	8d b6 00 00 00 00    	lea    0x0(%esi),%esi
 804b1f0:	8d 90 80 04 00 00    	lea    0x480(%eax),%edx
 804b1f6:	8d 76 00             	lea    0x0(%esi),%esi
 804b1f9:	8d bc 27 00 00 00 00 	lea    0x0(%edi,%eiz,1),%edi
	int i, j;
	for(i = 0; i < CACHE_SET_SIZE; i ++) {
		for(j = 0; j < CACHE_WAY_SIZE; j ++) {
			l2cache[i][j].valid = false;
 804b200:	c6 40 44 00          	movb   $0x0,0x44(%eax)
			l2cache[i][j].dirty = false;
 804b204:	c6 40 45 00          	movb   $0x0,0x45(%eax)
 804b208:	83 c0 48             	add    $0x48,%eax
void dram_write(hwaddr_t addr, size_t len, uint32_t data);

void init_l2cache() {
	int i, j;
	for(i = 0; i < CACHE_SET_SIZE; i ++) {
		for(j = 0; j < CACHE_WAY_SIZE; j ++) {
 804b20b:	39 d0                	cmp    %edx,%eax
 804b20d:	75 f1                	jne    804b200 <init_l2cache+0x20>
uint32_t dram_read(hwaddr_t addr, size_t len);
void dram_write(hwaddr_t addr, size_t len, uint32_t data);

void init_l2cache() {
	int i, j;
	for(i = 0; i < CACHE_SET_SIZE; i ++) {
 804b20f:	39 c1                	cmp    %eax,%ecx
 804b211:	75 dd                	jne    804b1f0 <init_l2cache+0x10>
 804b213:	f3 c3                	repz ret 
 804b215:	8d 74 26 00          	lea    0x0(%esi,%eiz,1),%esi
 804b219:	8d bc 27 00 00 00 00 	lea    0x0(%edi,%eiz,1),%edi

0804b220 <l2cache_read>:
		//Log("Hit");
	}
	return way;
}

uint32_t l2cache_read(hwaddr_t addr, size_t len) {
 804b220:	55                   	push   %ebp
 804b221:	57                   	push   %edi
 804b222:	56                   	push   %esi
 804b223:	53                   	push   %ebx
 804b224:	81 ec 8c 00 00 00    	sub    $0x8c,%esp
 804b22a:	8b b4 24 a4 00 00 00 	mov    0xa4(%esp),%esi
 804b231:	8b bc 24 a0 00 00 00 	mov    0xa0(%esp),%edi
	assert(len == 1 || len == 2 || len == 4);
 804b238:	8d 46 ff             	lea    -0x1(%esi),%eax
 804b23b:	83 f8 01             	cmp    $0x1,%eax
 804b23e:	76 09                	jbe    804b249 <l2cache_read+0x29>
 804b240:	83 fe 04             	cmp    $0x4,%esi
 804b243:	0f 85 5f 01 00 00    	jne    804b3a8 <l2cache_read+0x188>
	l2cache_addr temp;
	temp.addr = addr;

	uint32_t set = temp.set;
 804b249:	89 fd                	mov    %edi,%ebp
	uint8_t way = check_cache(addr);
 804b24b:	89 f8                	mov    %edi,%eax
	uint32_t block = temp.block;
 804b24d:	89 fb                	mov    %edi,%ebx
uint32_t l2cache_read(hwaddr_t addr, size_t len) {
	assert(len == 1 || len == 2 || len == 4);
	l2cache_addr temp;
	temp.addr = addr;

	uint32_t set = temp.set;
 804b24f:	c1 ed 06             	shr    $0x6,%ebp
	uint8_t way = check_cache(addr);
	uint32_t block = temp.block;
 804b252:	83 e3 3f             	and    $0x3f,%ebx
	assert(len == 1 || len == 2 || len == 4);
	l2cache_addr temp;
	temp.addr = addr;

	uint32_t set = temp.set;
	uint8_t way = check_cache(addr);
 804b255:	e8 a6 fd ff ff       	call   804b000 <check_cache>
uint32_t l2cache_read(hwaddr_t addr, size_t len) {
	assert(len == 1 || len == 2 || len == 4);
	l2cache_addr temp;
	temp.addr = addr;

	uint32_t set = temp.set;
 804b25a:	0f b7 ed             	movzwl %bp,%ebp
	uint8_t way = check_cache(addr);
	uint32_t block = temp.block;

	uint8_t buf[CACHE_BLOCK_SIZE << 1];
	memcpy(buf, l2cache[set][way].buf, CACHE_BLOCK_SIZE);
 804b25d:	0f b6 c0             	movzbl %al,%eax
 804b260:	8d 14 c0             	lea    (%eax,%eax,8),%edx
 804b263:	8d 44 ed 00          	lea    0x0(%ebp,%ebp,8),%eax
 804b267:	c1 e0 07             	shl    $0x7,%eax
 804b26a:	8d 04 d0             	lea    (%eax,%edx,8),%eax
 804b26d:	8d 90 00 8a 0c 08    	lea    0x80c8a00(%eax),%edx
 804b273:	8b 80 00 8a 0c 08    	mov    0x80c8a00(%eax),%eax
 804b279:	89 04 24             	mov    %eax,(%esp)
 804b27c:	8b 42 04             	mov    0x4(%edx),%eax
 804b27f:	89 44 24 04          	mov    %eax,0x4(%esp)
 804b283:	8b 42 08             	mov    0x8(%edx),%eax
 804b286:	89 44 24 08          	mov    %eax,0x8(%esp)
 804b28a:	8b 42 0c             	mov    0xc(%edx),%eax
 804b28d:	89 44 24 0c          	mov    %eax,0xc(%esp)
 804b291:	8b 42 10             	mov    0x10(%edx),%eax
 804b294:	89 44 24 10          	mov    %eax,0x10(%esp)
 804b298:	8b 42 14             	mov    0x14(%edx),%eax
 804b29b:	89 44 24 14          	mov    %eax,0x14(%esp)
 804b29f:	8b 42 18             	mov    0x18(%edx),%eax
 804b2a2:	89 44 24 18          	mov    %eax,0x18(%esp)
 804b2a6:	8b 42 1c             	mov    0x1c(%edx),%eax
 804b2a9:	89 44 24 1c          	mov    %eax,0x1c(%esp)
 804b2ad:	8b 42 20             	mov    0x20(%edx),%eax
 804b2b0:	89 44 24 20          	mov    %eax,0x20(%esp)
 804b2b4:	8b 42 24             	mov    0x24(%edx),%eax
 804b2b7:	89 44 24 24          	mov    %eax,0x24(%esp)
 804b2bb:	8b 42 28             	mov    0x28(%edx),%eax
 804b2be:	89 44 24 28          	mov    %eax,0x28(%esp)
 804b2c2:	8b 42 2c             	mov    0x2c(%edx),%eax
 804b2c5:	89 44 24 2c          	mov    %eax,0x2c(%esp)
 804b2c9:	8b 42 30             	mov    0x30(%edx),%eax
 804b2cc:	89 44 24 30          	mov    %eax,0x30(%esp)
 804b2d0:	8b 42 34             	mov    0x34(%edx),%eax
 804b2d3:	89 44 24 34          	mov    %eax,0x34(%esp)
 804b2d7:	8b 42 38             	mov    0x38(%edx),%eax
 804b2da:	89 44 24 38          	mov    %eax,0x38(%esp)
 804b2de:	8b 42 3c             	mov    0x3c(%edx),%eax
 804b2e1:	89 44 24 3c          	mov    %eax,0x3c(%esp)
	if(block + len > CACHE_BLOCK_SIZE) {
 804b2e5:	8d 04 1e             	lea    (%esi,%ebx,1),%eax
 804b2e8:	83 f8 40             	cmp    $0x40,%eax
 804b2eb:	0f 86 98 00 00 00    	jbe    804b389 <l2cache_read+0x169>
		temp.addr += CACHE_BLOCK_SIZE;
 804b2f1:	8d 47 40             	lea    0x40(%edi),%eax
		set = temp.set;
 804b2f4:	89 c7                	mov    %eax,%edi
 804b2f6:	c1 ef 06             	shr    $0x6,%edi
		way = check_cache(temp.addr);
 804b2f9:	e8 02 fd ff ff       	call   804b000 <check_cache>

	uint8_t buf[CACHE_BLOCK_SIZE << 1];
	memcpy(buf, l2cache[set][way].buf, CACHE_BLOCK_SIZE);
	if(block + len > CACHE_BLOCK_SIZE) {
		temp.addr += CACHE_BLOCK_SIZE;
		set = temp.set;
 804b2fe:	0f b7 ff             	movzwl %di,%edi
		way = check_cache(temp.addr);
		memcpy(buf + CACHE_BLOCK_SIZE, l2cache[set][way].buf, CACHE_BLOCK_SIZE);
 804b301:	0f b6 c0             	movzbl %al,%eax
 804b304:	8d 14 c0             	lea    (%eax,%eax,8),%edx
 804b307:	8d 04 ff             	lea    (%edi,%edi,8),%eax
 804b30a:	c1 e0 07             	shl    $0x7,%eax
 804b30d:	8d 14 d0             	lea    (%eax,%edx,8),%edx
 804b310:	8d 82 00 8a 0c 08    	lea    0x80c8a00(%edx),%eax
 804b316:	8b 92 00 8a 0c 08    	mov    0x80c8a00(%edx),%edx
 804b31c:	89 54 24 40          	mov    %edx,0x40(%esp)
 804b320:	8b 50 04             	mov    0x4(%eax),%edx
 804b323:	89 54 24 44          	mov    %edx,0x44(%esp)
 804b327:	8b 50 08             	mov    0x8(%eax),%edx
 804b32a:	89 54 24 48          	mov    %edx,0x48(%esp)
 804b32e:	8b 50 0c             	mov    0xc(%eax),%edx
 804b331:	89 54 24 4c          	mov    %edx,0x4c(%esp)
 804b335:	8b 50 10             	mov    0x10(%eax),%edx
 804b338:	89 54 24 50          	mov    %edx,0x50(%esp)
 804b33c:	8b 50 14             	mov    0x14(%eax),%edx
 804b33f:	89 54 24 54          	mov    %edx,0x54(%esp)
 804b343:	8b 50 18             	mov    0x18(%eax),%edx
 804b346:	89 54 24 58          	mov    %edx,0x58(%esp)
 804b34a:	8b 50 1c             	mov    0x1c(%eax),%edx
 804b34d:	89 54 24 5c          	mov    %edx,0x5c(%esp)
 804b351:	8b 50 20             	mov    0x20(%eax),%edx
 804b354:	89 54 24 60          	mov    %edx,0x60(%esp)
 804b358:	8b 50 24             	mov    0x24(%eax),%edx
 804b35b:	89 54 24 64          	mov    %edx,0x64(%esp)
 804b35f:	8b 50 28             	mov    0x28(%eax),%edx
 804b362:	89 54 24 68          	mov    %edx,0x68(%esp)
 804b366:	8b 50 2c             	mov    0x2c(%eax),%edx
 804b369:	89 54 24 6c          	mov    %edx,0x6c(%esp)
 804b36d:	8b 50 30             	mov    0x30(%eax),%edx
 804b370:	89 54 24 70          	mov    %edx,0x70(%esp)
 804b374:	8b 50 34             	mov    0x34(%eax),%edx
 804b377:	89 54 24 74          	mov    %edx,0x74(%esp)
 804b37b:	8b 50 38             	mov    0x38(%eax),%edx
 804b37e:	8b 40 3c             	mov    0x3c(%eax),%eax
 804b381:	89 54 24 78          	mov    %edx,0x78(%esp)
 804b385:	89 44 24 7c          	mov    %eax,0x7c(%esp)
	}
	return (*(uint32_t *)(buf + block)) & (~0u >> ((4 - len) << 3));
 804b389:	b9 04 00 00 00       	mov    $0x4,%ecx
 804b38e:	b8 ff ff ff ff       	mov    $0xffffffff,%eax
 804b393:	29 f1                	sub    %esi,%ecx
 804b395:	c1 e1 03             	shl    $0x3,%ecx
 804b398:	d3 e8                	shr    %cl,%eax
 804b39a:	23 04 1c             	and    (%esp,%ebx,1),%eax
}
 804b39d:	81 c4 8c 00 00 00    	add    $0x8c,%esp
 804b3a3:	5b                   	pop    %ebx
 804b3a4:	5e                   	pop    %esi
 804b3a5:	5f                   	pop    %edi
 804b3a6:	5d                   	pop    %ebp
 804b3a7:	c3                   	ret    
	}
	return way;
}

uint32_t l2cache_read(hwaddr_t addr, size_t len) {
	assert(len == 1 || len == 2 || len == 4);
 804b3a8:	68 a2 f7 05 08       	push   $0x805f7a2
 804b3ad:	6a 5a                	push   $0x5a
 804b3af:	68 7a f7 05 08       	push   $0x805f77a
 804b3b4:	68 40 f7 05 08       	push   $0x805f740
 804b3b9:	e8 f2 d7 ff ff       	call   8048bb0 <__assert_fail@plt>
 804b3be:	66 90                	xchg   %ax,%ax

0804b3c0 <l2cache_write>:
		memcpy(buf + CACHE_BLOCK_SIZE, l2cache[set][way].buf, CACHE_BLOCK_SIZE);
	}
	return (*(uint32_t *)(buf + block)) & (~0u >> ((4 - len) << 3));
}

void l2cache_write(hwaddr_t addr, size_t len, uint32_t data) {
 804b3c0:	55                   	push   %ebp
 804b3c1:	57                   	push   %edi
 804b3c2:	56                   	push   %esi
 804b3c3:	53                   	push   %ebx
 804b3c4:	83 ec 1c             	sub    $0x1c,%esp
 804b3c7:	8b 44 24 30          	mov    0x30(%esp),%eax
 804b3cb:	8b 7c 24 34          	mov    0x34(%esp),%edi
 804b3cf:	8b 74 24 38          	mov    0x38(%esp),%esi
 804b3d3:	89 44 24 04          	mov    %eax,0x4(%esp)
	assert(len == 1 || len == 2 || len == 4);
 804b3d7:	8d 47 ff             	lea    -0x1(%edi),%eax
 804b3da:	83 f8 01             	cmp    $0x1,%eax
 804b3dd:	76 09                	jbe    804b3e8 <l2cache_write+0x28>
 804b3df:	83 ff 04             	cmp    $0x4,%edi
 804b3e2:	0f 85 56 01 00 00    	jne    804b53e <l2cache_write+0x17e>
	l2cache_addr temp;
	temp.addr = addr;
	uint32_t tag = temp.tag;
 804b3e8:	8b 4c 24 04          	mov    0x4(%esp),%ecx
	uint32_t set = temp.set;
 804b3ec:	89 c8                	mov    %ecx,%eax

void l2cache_write(hwaddr_t addr, size_t len, uint32_t data) {
	assert(len == 1 || len == 2 || len == 4);
	l2cache_addr temp;
	temp.addr = addr;
	uint32_t tag = temp.tag;
 804b3ee:	89 cb                	mov    %ecx,%ebx
	uint32_t set = temp.set;
	uint32_t block = temp.block;
 804b3f0:	89 cd                	mov    %ecx,%ebp
void l2cache_write(hwaddr_t addr, size_t len, uint32_t data) {
	assert(len == 1 || len == 2 || len == 4);
	l2cache_addr temp;
	temp.addr = addr;
	uint32_t tag = temp.tag;
	uint32_t set = temp.set;
 804b3f2:	c1 e8 06             	shr    $0x6,%eax

void l2cache_write(hwaddr_t addr, size_t len, uint32_t data) {
	assert(len == 1 || len == 2 || len == 4);
	l2cache_addr temp;
	temp.addr = addr;
	uint32_t tag = temp.tag;
 804b3f5:	c1 eb 16             	shr    $0x16,%ebx
	uint32_t set = temp.set;
	uint32_t block = temp.block;
 804b3f8:	83 e5 3f             	and    $0x3f,%ebp
void l2cache_write(hwaddr_t addr, size_t len, uint32_t data) {
	assert(len == 1 || len == 2 || len == 4);
	l2cache_addr temp;
	temp.addr = addr;
	uint32_t tag = temp.tag;
	uint32_t set = temp.set;
 804b3fb:	0f b7 c0             	movzwl %ax,%eax

void l2cache_write(hwaddr_t addr, size_t len, uint32_t data) {
	assert(len == 1 || len == 2 || len == 4);
	l2cache_addr temp;
	temp.addr = addr;
	uint32_t tag = temp.tag;
 804b3fe:	83 e3 1f             	and    $0x1f,%ebx
 804b401:	8d 0c c0             	lea    (%eax,%eax,8),%ecx
	uint32_t set = temp.set;
 804b404:	89 44 24 08          	mov    %eax,0x8(%esp)
	uint32_t block = temp.block;
 804b408:	31 c0                	xor    %eax,%eax
 804b40a:	c1 e1 07             	shl    $0x7,%ecx
 804b40d:	8d 91 00 8a 0c 08    	lea    0x80c8a00(%ecx),%edx
 804b413:	90                   	nop
 804b414:	8d 74 26 00          	lea    0x0(%esi,%eiz,1),%esi
	uint8_t way = 0;
	bool success = false;
	for(way = 0; way < CACHE_WAY_SIZE; way ++)
	if(l2cache[set][way].valid && (l2cache[set][way].tag == tag)) {
 804b418:	80 7a 44 00          	cmpb   $0x0,0x44(%edx)
 804b41c:	74 05                	je     804b423 <l2cache_write+0x63>
 804b41e:	39 5a 40             	cmp    %ebx,0x40(%edx)
 804b421:	74 27                	je     804b44a <l2cache_write+0x8a>
 804b423:	83 c0 01             	add    $0x1,%eax
 804b426:	83 c2 48             	add    $0x48,%edx
	uint32_t tag = temp.tag;
	uint32_t set = temp.set;
	uint32_t block = temp.block;
